; ModuleID = 'sad.cpp'
source_filename = "sad.cpp"
target datalayout = "e-m:e-p270:32:32-p271:32:32-p272:64:64-i64:64-f80:128-n8:16:32:64-S128"
target triple = "x86_64-unknown-linux-gnu"

%struct._IO_FILE = type { i32, i8*, i8*, i8*, i8*, i8*, i8*, i8*, i8*, i8*, i8*, i8*, %struct._IO_marker*, %struct._IO_FILE*, i32, i32, i64, i16, i8, [1 x i8], i8*, i64, i8*, i8*, i8*, i8*, i64, i32, [20 x i8] }
%struct._IO_marker = type { %struct._IO_marker*, %struct._IO_FILE*, i32 }
%struct.texture = type { %struct.textureReference }
%struct.textureReference = type { i32, i32, i32, [3 x i32], %struct.hipChannelFormatDesc, i32, i32, i32, float, float, float, %struct.__hip_texture*, i32, i32 }
%struct.hipChannelFormatDesc = type { i32, i32, i32, i32, i32 }
%struct.__hip_texture = type opaque
%struct.pb_Parameters = type { i8*, i8** }
%struct.pb_Timer = type { i32, i64, i64 }
%struct.timeval = type { i64, i64 }
%struct.timezone = type { i32, i32 }
%struct.pb_TimerSet = type { i32, %struct.pb_async_time_marker_list*, i64, i64, [8 x %struct.pb_Timer], [8 x %struct.pb_SubTimerList*] }
%struct.pb_async_time_marker_list = type { i8*, i32, i8*, %struct.pb_async_time_marker_list* }
%struct.pb_SubTimerList = type { %struct.pb_SubTimer*, %struct.pb_SubTimer* }
%struct.pb_SubTimer = type { i8*, %struct.pb_Timer, %struct.pb_SubTimer* }
%struct.ihipEvent_t = type opaque
%struct.ihipStream_t = type opaque
%struct.dim3 = type { i32, i32, i32 }
%struct.hipArray = type { i8*, %struct.hipChannelFormatDesc, i32, i32, i32, i32, i32, i32, i8, i32 }
%struct.image_i16 = type { i32, i32, i16* }

$__hip_gpubin_handle = comdat any

@.str = private unnamed_addr constant [32 x i8] c"Expecting file name after '-o'\0A\00", align 1
@.str.1 = private unnamed_addr constant [32 x i8] c"Expecting file name after '-i'\0A\00", align 1
@.str.2 = private unnamed_addr constant [35 x i8] c"Unexpected command-line parameter\0A\00", align 1
@stderr = external dso_local local_unnamed_addr global %struct._IO_FILE*, align 8
@.str.3 = private unnamed_addr constant [43 x i8] c"Ignoring attempt to start a running timer\0A\00", align 1
@.str.4 = private unnamed_addr constant [32 x i8] c"Warning: Timer was not stopped\0A\00", align 1
@.str.5 = private unnamed_addr constant [35 x i8] c"Warning: Subtimer was not stopped\0A\00", align 1
@.str.6 = private unnamed_addr constant [54 x i8] c"Ignoring attempt to start running timer and subtimer\0A\00", align 1
@.str.7 = private unnamed_addr constant [42 x i8] c"Ignoring attempt to stop a stopped timer\0A\00", align 1
@.str.8 = private unnamed_addr constant [32 x i8] c"Warning: Timer was not running\0A\00", align 1
@.str.9 = private unnamed_addr constant [35 x i8] c"Warning: Subtimer was not running\0A\00", align 1
@.str.10 = private unnamed_addr constant [53 x i8] c"Ignoring attempt to stop stopped timer and subtimer\0A\00", align 1
@.str.11 = private unnamed_addr constant [49 x i8] c"Elapsed time from a running timer is inaccurate\0A\00", align 1
@.str.13 = private unnamed_addr constant [3 x i8] c"IO\00", align 1
@.str.14 = private unnamed_addr constant [7 x i8] c"Kernel\00", align 1
@.str.15 = private unnamed_addr constant [5 x i8] c"Copy\00", align 1
@.str.16 = private unnamed_addr constant [7 x i8] c"Driver\00", align 1
@.str.17 = private unnamed_addr constant [11 x i8] c"Copy Async\00", align 1
@.str.18 = private unnamed_addr constant [8 x i8] c"Compute\00", align 1
@.str.19 = private unnamed_addr constant [10 x i8] c"%-*s: %f\0A\00", align 1
@.str.20 = private unnamed_addr constant [12 x i8] c" -%-*s: %f\0A\00", align 1
@.str.21 = private unnamed_addr constant [24 x i8] c"CPU/Kernel Overlap: %f\0A\00", align 1
@.str.22 = private unnamed_addr constant [21 x i8] c"Timer Wall Time: %f\0A\00", align 1
@_ZL4line = internal global [16 x i16] zeroinitializer, align 16
@.str.25 = private unnamed_addr constant [31 x i8] c"Expecting two input filenames\0A\00", align 1
@.str.26 = private unnamed_addr constant [36 x i8] c"Input images must be the same size\0A\00", align 1
@.str.27 = private unnamed_addr constant [53 x i8] c"Input image size must be an integral multiple of 16\0A\00", align 1
@.str.28 = private unnamed_addr constant [16 x i8] c"CUDA error: %s\0A\00", align 1
@_Z11mb_sad_calcPtS_ii = dso_local constant void (i16*, i16*, i32, i32)* @_Z26__device_stub__mb_sad_calcPtS_ii, align 8
@_Z17larger_sad_calc_8Ptii = dso_local constant void (i16*, i32, i32)* @_Z32__device_stub__larger_sad_calc_8Ptii, align 8
@_Z18larger_sad_calc_16Ptii = dso_local constant void (i16*, i32, i32)* @_Z33__device_stub__larger_sad_calc_16Ptii, align 8
@ref = internal global %struct.texture zeroinitializer, align 16
@.str.29 = private unnamed_addr constant [2 x i8] c"r\00", align 1
@.str.30 = private unnamed_addr constant [23 x i8] c"Cannot find file '%s'\0A\00", align 1
@.str.31 = private unnamed_addr constant [17 x i8] c"delete_argument\0A\00", align 1
@.str.32 = private unnamed_addr constant [15 x i8] c"next_argument\0A\00", align 1
@.str.33 = private unnamed_addr constant [2 x i8] c"w\00", align 1
@.str.34 = private unnamed_addr constant [25 x i8] c"Cannot open output file\0A\00", align 1
@0 = private unnamed_addr constant [22 x i8] c"_Z11mb_sad_calcPtS_ii\00", align 1
@1 = private unnamed_addr constant [26 x i8] c"_Z17larger_sad_calc_8Ptii\00", align 1
@2 = private unnamed_addr constant [27 x i8] c"_Z18larger_sad_calc_16Ptii\00", align 1
@3 = private unnamed_addr constant [4 x i8] c"ref\00", align 1
@__hip_fatbin = external constant i8, section ".hip_fatbin"
@__hip_fatbin_wrapper = internal constant { i32, i32, i8*, i8* } { i32 1212764230, i32 1, i8* @__hip_fatbin, i8* null }, section ".hipFatBinSegment", align 8
@__hip_gpubin_handle = linkonce hidden local_unnamed_addr global i8** null, comdat, align 8
@llvm.global_ctors = appending global [2 x { i32, void ()*, i8* }] [{ i32, void ()*, i8* } { i32 65535, void ()* @_GLOBAL__sub_I_sad.cpp, i8* null }, { i32, void ()*, i8* } { i32 65535, void ()* bitcast (void (i8*)* @__hip_module_ctor to void ()*), i8* null }]
@str = private unnamed_addr constant [9 x i8] c"Success.\00", align 1
@str.35 = private unnamed_addr constant [44 x i8] c"Computed SADs do not match expected values.\00", align 1

; Function Attrs: mustprogress nounwind uwtable
define dso_local noalias %struct.pb_Parameters* @pb_ReadParameters(i32* nocapture %0, i8** %1) local_unnamed_addr #0 {
  %3 = tail call noalias align 16 dereferenceable_or_null(16) i8* @malloc(i64 16) #25
  %4 = bitcast i8* %3 to %struct.pb_Parameters*
  %5 = getelementptr inbounds %struct.pb_Parameters, %struct.pb_Parameters* %4, i64 0, i32 0
  store i8* null, i8** %5, align 16, !tbaa !3
  %6 = tail call noalias align 16 dereferenceable_or_null(8) i8* @malloc(i64 8) #25
  %7 = bitcast i8* %6 to i8**
  %8 = getelementptr inbounds %struct.pb_Parameters, %struct.pb_Parameters* %4, i64 0, i32 1
  %9 = bitcast i8*** %8 to i8**
  store i8* %6, i8** %9, align 8, !tbaa !8
  store i8* null, i8** %7, align 16, !tbaa !9
  %10 = load i32, i32* %0, align 4, !tbaa !10
  %11 = icmp eq i32 %10, 0
  br i1 %11, label %125, label %12

12:                                               ; preds = %2, %119
  %13 = phi i32 [ %123, %119 ], [ %10, %2 ]
  %14 = phi i8** [ %122, %119 ], [ %1, %2 ]
  %15 = phi i8** [ %121, %119 ], [ %1, %2 ]
  %16 = phi i32 [ %120, %119 ], [ 0, %2 ]
  %17 = load i8*, i8** %15, align 8, !tbaa !9
  %18 = load i8, i8* %17, align 1, !tbaa !12
  %19 = icmp eq i8 %18, 45
  br i1 %19, label %20, label %108

20:                                               ; preds = %12
  %21 = getelementptr inbounds i8, i8* %17, i64 1
  %22 = load i8, i8* %21, align 1, !tbaa !12
  %23 = icmp eq i8 %22, 0
  br i1 %23, label %108, label %24

24:                                               ; preds = %20
  %25 = getelementptr inbounds i8, i8* %17, i64 2
  %26 = load i8, i8* %25, align 1, !tbaa !12
  %27 = icmp eq i8 %26, 0
  br i1 %27, label %28, label %108

28:                                               ; preds = %24
  %29 = icmp slt i32 %16, %13
  br i1 %29, label %34, label %30

30:                                               ; preds = %28
  %31 = load %struct._IO_FILE*, %struct._IO_FILE** @stderr, align 8, !tbaa !9
  %32 = tail call i64 @fwrite(i8* getelementptr inbounds ([17 x i8], [17 x i8]* @.str.31, i64 0, i64 0), i64 16, i64 1, %struct._IO_FILE* %31) #26
  %33 = load i8, i8* %21, align 1, !tbaa !12
  br label %34

34:                                               ; preds = %28, %30
  %35 = phi i8 [ %22, %28 ], [ %33, %30 ]
  %36 = add nsw i32 %13, -1
  %37 = getelementptr inbounds i8*, i8** %15, i64 1
  %38 = sext i8 %35 to i32
  switch i32 %38, label %283 [
    i32 111, label %39
    i32 105, label %52
    i32 45, label %127
  ]

39:                                               ; preds = %34
  %40 = icmp eq i32 %16, %36
  br i1 %40, label %283, label %41

41:                                               ; preds = %39
  %42 = load i8*, i8** %5, align 16, !tbaa !3
  tail call void @free(i8* %42) #25
  %43 = load i8*, i8** %37, align 8, !tbaa !9
  %44 = icmp slt i32 %16, %36
  br i1 %44, label %48, label %45

45:                                               ; preds = %41
  %46 = load %struct._IO_FILE*, %struct._IO_FILE** @stderr, align 8, !tbaa !9
  %47 = tail call i64 @fwrite(i8* getelementptr inbounds ([17 x i8], [17 x i8]* @.str.31, i64 0, i64 0), i64 16, i64 1, %struct._IO_FILE* %46) #26
  br label %48

48:                                               ; preds = %41, %45
  %49 = add nsw i32 %13, -2
  %50 = getelementptr inbounds i8*, i8** %15, i64 2
  %51 = tail call noalias i8* @strdup(i8* %43) #25
  store i8* %51, i8** %5, align 16, !tbaa !3
  br label %119

52:                                               ; preds = %34
  %53 = icmp eq i32 %16, %36
  br i1 %53, label %283, label %54

54:                                               ; preds = %52
  %55 = load i8*, i8** %37, align 8, !tbaa !9
  %56 = icmp slt i32 %16, %36
  br i1 %56, label %60, label %57

57:                                               ; preds = %54
  %58 = load %struct._IO_FILE*, %struct._IO_FILE** @stderr, align 8, !tbaa !9
  %59 = tail call i64 @fwrite(i8* getelementptr inbounds ([17 x i8], [17 x i8]* @.str.31, i64 0, i64 0), i64 16, i64 1, %struct._IO_FILE* %58) #26
  br label %60

60:                                               ; preds = %54, %57
  %61 = add nsw i32 %13, -2
  br label %62

62:                                               ; preds = %69, %60
  %63 = phi i64 [ %71, %69 ], [ 0, %60 ]
  %64 = phi i32 [ %70, %69 ], [ 1, %60 ]
  %65 = getelementptr inbounds i8, i8* %55, i64 %63
  %66 = load i8, i8* %65, align 1, !tbaa !12
  switch i8 %66, label %69 [
    i8 0, label %72
    i8 44, label %67
  ]

67:                                               ; preds = %62
  %68 = add nsw i32 %64, 1
  br label %69

69:                                               ; preds = %67, %62
  %70 = phi i32 [ %68, %67 ], [ %64, %62 ]
  %71 = add nuw i64 %63, 1
  br label %62, !llvm.loop !13

72:                                               ; preds = %62
  %73 = getelementptr inbounds i8*, i8** %15, i64 2
  %74 = add nsw i32 %64, 1
  %75 = sext i32 %74 to i64
  %76 = shl nsw i64 %75, 3
  %77 = tail call noalias align 16 i8* @malloc(i64 %76) #25
  %78 = bitcast i8* %77 to i8**
  %79 = icmp sgt i32 %64, 0
  br i1 %79, label %80, label %104

80:                                               ; preds = %72
  %81 = zext i32 %64 to i64
  br label %82

82:                                               ; preds = %90, %80
  %83 = phi i64 [ 0, %80 ], [ %102, %90 ]
  %84 = phi i8* [ %55, %80 ], [ %101, %90 ]
  br label %85

85:                                               ; preds = %88, %82
  %86 = phi i8* [ %89, %88 ], [ %84, %82 ]
  %87 = load i8, i8* %86, align 1, !tbaa !12
  switch i8 %87, label %88 [
    i8 44, label %90
    i8 0, label %90
  ]

88:                                               ; preds = %85
  %89 = getelementptr inbounds i8, i8* %86, i64 1
  br label %85, !llvm.loop !15

90:                                               ; preds = %85, %85
  %91 = ptrtoint i8* %86 to i64
  %92 = ptrtoint i8* %84 to i64
  %93 = sub i64 %91, %92
  %94 = shl i64 %93, 32
  %95 = add i64 %94, 4294967296
  %96 = ashr exact i64 %95, 32
  %97 = tail call noalias align 16 i8* @malloc(i64 %96) #25
  %98 = getelementptr inbounds i8*, i8** %78, i64 %83
  store i8* %97, i8** %98, align 8, !tbaa !9
  %99 = ashr exact i64 %94, 32
  tail call void @llvm.memcpy.p0i8.p0i8.i64(i8* align 16 %97, i8* align 1 %84, i64 %99, i1 false) #25
  %100 = getelementptr inbounds i8, i8* %97, i64 %99
  store i8 0, i8* %100, align 1, !tbaa !12
  %101 = getelementptr inbounds i8, i8* %86, i64 1
  %102 = add nuw nsw i64 %83, 1
  %103 = icmp eq i64 %102, %81
  br i1 %103, label %104, label %82, !llvm.loop !16

104:                                              ; preds = %90, %72
  %105 = phi i32 [ 0, %72 ], [ %64, %90 ]
  %106 = zext i32 %105 to i64
  %107 = getelementptr inbounds i8*, i8** %78, i64 %106
  store i8* null, i8** %107, align 8, !tbaa !9
  store i8* %77, i8** %9, align 8, !tbaa !8
  br label %119

108:                                              ; preds = %24, %20, %12
  %109 = icmp slt i32 %16, %13
  br i1 %109, label %114, label %110

110:                                              ; preds = %108
  %111 = load %struct._IO_FILE*, %struct._IO_FILE** @stderr, align 8, !tbaa !9
  %112 = tail call i64 @fwrite(i8* getelementptr inbounds ([15 x i8], [15 x i8]* @.str.32, i64 0, i64 0), i64 14, i64 1, %struct._IO_FILE* %111) #26
  %113 = load i8*, i8** %15, align 8, !tbaa !9
  br label %114

114:                                              ; preds = %108, %110
  %115 = phi i8* [ %17, %108 ], [ %113, %110 ]
  %116 = getelementptr inbounds i8*, i8** %15, i64 1
  %117 = getelementptr inbounds i8*, i8** %14, i64 1
  store i8* %115, i8** %14, align 8, !tbaa !9
  %118 = add nsw i32 %16, 1
  br label %119

119:                                              ; preds = %114, %104, %48
  %120 = phi i32 [ %118, %114 ], [ %16, %104 ], [ %16, %48 ]
  %121 = phi i8** [ %116, %114 ], [ %73, %104 ], [ %50, %48 ]
  %122 = phi i8** [ %117, %114 ], [ %14, %104 ], [ %14, %48 ]
  %123 = phi i32 [ %13, %114 ], [ %61, %104 ], [ %49, %48 ]
  %124 = icmp eq i32 %120, %123
  br i1 %124, label %125, label %12

125:                                              ; preds = %119, %2
  %126 = phi i32 [ 0, %2 ], [ %120, %119 ]
  store i32 %126, i32* %0, align 4, !tbaa !10
  br label %302

127:                                              ; preds = %34
  store i32 %36, i32* %0, align 4, !tbaa !10
  %128 = icmp slt i32 %16, %36
  br i1 %128, label %129, label %302

129:                                              ; preds = %127
  %130 = add i32 %13, -2
  %131 = sub i32 %130, %16
  %132 = zext i32 %131 to i64
  %133 = add nuw nsw i64 %132, 1
  %134 = icmp ult i32 %131, 3
  br i1 %134, label %228, label %135

135:                                              ; preds = %129
  %136 = add i32 %13, -2
  %137 = sub i32 %136, %16
  %138 = zext i32 %137 to i64
  %139 = add nuw nsw i64 %138, 1
  %140 = getelementptr i8*, i8** %14, i64 %139
  %141 = getelementptr i8*, i8** %37, i64 %139
  %142 = icmp ult i8** %14, %141
  %143 = icmp ult i8** %37, %140
  %144 = and i1 %142, %143
  br i1 %144, label %228, label %145

145:                                              ; preds = %135
  %146 = and i64 %133, 8589934588
  %147 = getelementptr i8*, i8** %37, i64 %146
  %148 = getelementptr i8*, i8** %14, i64 %146
  %149 = trunc i64 %146 to i32
  %150 = add i32 %16, %149
  %151 = add nsw i64 %146, -4
  %152 = lshr exact i64 %151, 2
  %153 = add nuw nsw i64 %152, 1
  %154 = and i64 %153, 3
  %155 = icmp ult i64 %151, 12
  br i1 %155, label %207, label %156

156:                                              ; preds = %145
  %157 = and i64 %153, 9223372036854775804
  br label %158

158:                                              ; preds = %158, %156
  %159 = phi i64 [ 0, %156 ], [ %204, %158 ]
  %160 = phi i64 [ 0, %156 ], [ %205, %158 ]
  %161 = getelementptr i8*, i8** %37, i64 %159
  %162 = getelementptr i8*, i8** %14, i64 %159
  %163 = bitcast i8** %161 to <2 x i8*>*
  %164 = load <2 x i8*>, <2 x i8*>* %163, align 8, !tbaa !9, !alias.scope !17
  %165 = getelementptr i8*, i8** %161, i64 2
  %166 = bitcast i8** %165 to <2 x i8*>*
  %167 = load <2 x i8*>, <2 x i8*>* %166, align 8, !tbaa !9, !alias.scope !17
  %168 = bitcast i8** %162 to <2 x i8*>*
  store <2 x i8*> %164, <2 x i8*>* %168, align 8, !tbaa !9, !alias.scope !20, !noalias !17
  %169 = getelementptr i8*, i8** %162, i64 2
  %170 = bitcast i8** %169 to <2 x i8*>*
  store <2 x i8*> %167, <2 x i8*>* %170, align 8, !tbaa !9, !alias.scope !20, !noalias !17
  %171 = or i64 %159, 4
  %172 = getelementptr i8*, i8** %37, i64 %171
  %173 = getelementptr i8*, i8** %14, i64 %171
  %174 = bitcast i8** %172 to <2 x i8*>*
  %175 = load <2 x i8*>, <2 x i8*>* %174, align 8, !tbaa !9, !alias.scope !17
  %176 = getelementptr i8*, i8** %172, i64 2
  %177 = bitcast i8** %176 to <2 x i8*>*
  %178 = load <2 x i8*>, <2 x i8*>* %177, align 8, !tbaa !9, !alias.scope !17
  %179 = bitcast i8** %173 to <2 x i8*>*
  store <2 x i8*> %175, <2 x i8*>* %179, align 8, !tbaa !9, !alias.scope !20, !noalias !17
  %180 = getelementptr i8*, i8** %173, i64 2
  %181 = bitcast i8** %180 to <2 x i8*>*
  store <2 x i8*> %178, <2 x i8*>* %181, align 8, !tbaa !9, !alias.scope !20, !noalias !17
  %182 = or i64 %159, 8
  %183 = getelementptr i8*, i8** %37, i64 %182
  %184 = getelementptr i8*, i8** %14, i64 %182
  %185 = bitcast i8** %183 to <2 x i8*>*
  %186 = load <2 x i8*>, <2 x i8*>* %185, align 8, !tbaa !9, !alias.scope !17
  %187 = getelementptr i8*, i8** %183, i64 2
  %188 = bitcast i8** %187 to <2 x i8*>*
  %189 = load <2 x i8*>, <2 x i8*>* %188, align 8, !tbaa !9, !alias.scope !17
  %190 = bitcast i8** %184 to <2 x i8*>*
  store <2 x i8*> %186, <2 x i8*>* %190, align 8, !tbaa !9, !alias.scope !20, !noalias !17
  %191 = getelementptr i8*, i8** %184, i64 2
  %192 = bitcast i8** %191 to <2 x i8*>*
  store <2 x i8*> %189, <2 x i8*>* %192, align 8, !tbaa !9, !alias.scope !20, !noalias !17
  %193 = or i64 %159, 12
  %194 = getelementptr i8*, i8** %37, i64 %193
  %195 = getelementptr i8*, i8** %14, i64 %193
  %196 = bitcast i8** %194 to <2 x i8*>*
  %197 = load <2 x i8*>, <2 x i8*>* %196, align 8, !tbaa !9, !alias.scope !17
  %198 = getelementptr i8*, i8** %194, i64 2
  %199 = bitcast i8** %198 to <2 x i8*>*
  %200 = load <2 x i8*>, <2 x i8*>* %199, align 8, !tbaa !9, !alias.scope !17
  %201 = bitcast i8** %195 to <2 x i8*>*
  store <2 x i8*> %197, <2 x i8*>* %201, align 8, !tbaa !9, !alias.scope !20, !noalias !17
  %202 = getelementptr i8*, i8** %195, i64 2
  %203 = bitcast i8** %202 to <2 x i8*>*
  store <2 x i8*> %200, <2 x i8*>* %203, align 8, !tbaa !9, !alias.scope !20, !noalias !17
  %204 = add nuw i64 %159, 16
  %205 = add nuw i64 %160, 4
  %206 = icmp eq i64 %205, %157
  br i1 %206, label %207, label %158, !llvm.loop !22

207:                                              ; preds = %158, %145
  %208 = phi i64 [ 0, %145 ], [ %204, %158 ]
  %209 = icmp eq i64 %154, 0
  br i1 %209, label %226, label %210

210:                                              ; preds = %207, %210
  %211 = phi i64 [ %223, %210 ], [ %208, %207 ]
  %212 = phi i64 [ %224, %210 ], [ 0, %207 ]
  %213 = getelementptr i8*, i8** %37, i64 %211
  %214 = getelementptr i8*, i8** %14, i64 %211
  %215 = bitcast i8** %213 to <2 x i8*>*
  %216 = load <2 x i8*>, <2 x i8*>* %215, align 8, !tbaa !9, !alias.scope !17
  %217 = getelementptr i8*, i8** %213, i64 2
  %218 = bitcast i8** %217 to <2 x i8*>*
  %219 = load <2 x i8*>, <2 x i8*>* %218, align 8, !tbaa !9, !alias.scope !17
  %220 = bitcast i8** %214 to <2 x i8*>*
  store <2 x i8*> %216, <2 x i8*>* %220, align 8, !tbaa !9, !alias.scope !20, !noalias !17
  %221 = getelementptr i8*, i8** %214, i64 2
  %222 = bitcast i8** %221 to <2 x i8*>*
  store <2 x i8*> %219, <2 x i8*>* %222, align 8, !tbaa !9, !alias.scope !20, !noalias !17
  %223 = add nuw i64 %211, 4
  %224 = add i64 %212, 1
  %225 = icmp eq i64 %224, %154
  br i1 %225, label %226, label %210, !llvm.loop !24

226:                                              ; preds = %210, %207
  %227 = icmp eq i64 %133, %146
  br i1 %227, label %302, label %228

228:                                              ; preds = %135, %129, %226
  %229 = phi i8** [ %37, %135 ], [ %37, %129 ], [ %147, %226 ]
  %230 = phi i8** [ %14, %135 ], [ %14, %129 ], [ %148, %226 ]
  %231 = phi i32 [ %16, %135 ], [ %16, %129 ], [ %150, %226 ]
  %232 = sub i32 %36, %231
  %233 = add i32 %13, -2
  %234 = sub i32 %233, %231
  %235 = and i32 %232, 7
  %236 = icmp eq i32 %235, 0
  br i1 %236, label %248, label %237

237:                                              ; preds = %228, %237
  %238 = phi i8** [ %242, %237 ], [ %229, %228 ]
  %239 = phi i8** [ %244, %237 ], [ %230, %228 ]
  %240 = phi i32 [ %245, %237 ], [ %231, %228 ]
  %241 = phi i32 [ %246, %237 ], [ 0, %228 ]
  %242 = getelementptr inbounds i8*, i8** %238, i64 1
  %243 = load i8*, i8** %238, align 8, !tbaa !9
  %244 = getelementptr inbounds i8*, i8** %239, i64 1
  store i8* %243, i8** %239, align 8, !tbaa !9
  %245 = add nsw i32 %240, 1
  %246 = add i32 %241, 1
  %247 = icmp eq i32 %246, %235
  br i1 %247, label %248, label %237, !llvm.loop !26

248:                                              ; preds = %237, %228
  %249 = phi i8** [ %229, %228 ], [ %242, %237 ]
  %250 = phi i8** [ %230, %228 ], [ %244, %237 ]
  %251 = phi i32 [ %231, %228 ], [ %245, %237 ]
  %252 = icmp ult i32 %234, 7
  br i1 %252, label %302, label %253

253:                                              ; preds = %248, %253
  %254 = phi i8** [ %278, %253 ], [ %249, %248 ]
  %255 = phi i8** [ %280, %253 ], [ %250, %248 ]
  %256 = phi i32 [ %281, %253 ], [ %251, %248 ]
  %257 = getelementptr inbounds i8*, i8** %254, i64 1
  %258 = load i8*, i8** %254, align 8, !tbaa !9
  %259 = getelementptr inbounds i8*, i8** %255, i64 1
  store i8* %258, i8** %255, align 8, !tbaa !9
  %260 = getelementptr inbounds i8*, i8** %254, i64 2
  %261 = load i8*, i8** %257, align 8, !tbaa !9
  %262 = getelementptr inbounds i8*, i8** %255, i64 2
  store i8* %261, i8** %259, align 8, !tbaa !9
  %263 = getelementptr inbounds i8*, i8** %254, i64 3
  %264 = load i8*, i8** %260, align 8, !tbaa !9
  %265 = getelementptr inbounds i8*, i8** %255, i64 3
  store i8* %264, i8** %262, align 8, !tbaa !9
  %266 = getelementptr inbounds i8*, i8** %254, i64 4
  %267 = load i8*, i8** %263, align 8, !tbaa !9
  %268 = getelementptr inbounds i8*, i8** %255, i64 4
  store i8* %267, i8** %265, align 8, !tbaa !9
  %269 = getelementptr inbounds i8*, i8** %254, i64 5
  %270 = load i8*, i8** %266, align 8, !tbaa !9
  %271 = getelementptr inbounds i8*, i8** %255, i64 5
  store i8* %270, i8** %268, align 8, !tbaa !9
  %272 = getelementptr inbounds i8*, i8** %254, i64 6
  %273 = load i8*, i8** %269, align 8, !tbaa !9
  %274 = getelementptr inbounds i8*, i8** %255, i64 6
  store i8* %273, i8** %271, align 8, !tbaa !9
  %275 = getelementptr inbounds i8*, i8** %254, i64 7
  %276 = load i8*, i8** %272, align 8, !tbaa !9
  %277 = getelementptr inbounds i8*, i8** %255, i64 7
  store i8* %276, i8** %274, align 8, !tbaa !9
  %278 = getelementptr inbounds i8*, i8** %254, i64 8
  %279 = load i8*, i8** %275, align 8, !tbaa !9
  %280 = getelementptr inbounds i8*, i8** %255, i64 8
  store i8* %279, i8** %277, align 8, !tbaa !9
  %281 = add nsw i32 %256, 8
  %282 = icmp eq i32 %281, %36
  br i1 %282, label %302, label %253, !llvm.loop !27

283:                                              ; preds = %34, %39, %52
  %284 = phi i8* [ getelementptr inbounds ([32 x i8], [32 x i8]* @.str.1, i64 0, i64 0), %52 ], [ getelementptr inbounds ([32 x i8], [32 x i8]* @.str, i64 0, i64 0), %39 ], [ getelementptr inbounds ([35 x i8], [35 x i8]* @.str.2, i64 0, i64 0), %34 ]
  %285 = load %struct._IO_FILE*, %struct._IO_FILE** @stderr, align 8, !tbaa !9
  %286 = tail call i32 @fputs(i8* nonnull %284, %struct._IO_FILE* %285) #27
  %287 = load i8*, i8** %5, align 16, !tbaa !3
  tail call void @free(i8* %287) #25
  %288 = load i8**, i8*** %8, align 8, !tbaa !8
  %289 = icmp eq i8** %288, null
  br i1 %289, label %301, label %290

290:                                              ; preds = %283
  %291 = load i8*, i8** %288, align 8, !tbaa !9
  %292 = icmp eq i8* %291, null
  br i1 %292, label %299, label %293

293:                                              ; preds = %290, %293
  %294 = phi i8* [ %297, %293 ], [ %291, %290 ]
  %295 = phi i8** [ %296, %293 ], [ %288, %290 ]
  tail call void @free(i8* nonnull %294) #25
  %296 = getelementptr inbounds i8*, i8** %295, i64 1
  %297 = load i8*, i8** %296, align 8, !tbaa !9
  %298 = icmp eq i8* %297, null
  br i1 %298, label %299, label %293, !llvm.loop !28

299:                                              ; preds = %293, %290
  %300 = bitcast i8** %288 to i8*
  tail call void @free(i8* %300) #25
  br label %301

301:                                              ; preds = %283, %299
  tail call void @free(i8* %3) #25
  br label %302

302:                                              ; preds = %248, %253, %226, %125, %127, %301
  %303 = phi %struct.pb_Parameters* [ null, %301 ], [ %4, %127 ], [ %4, %125 ], [ %4, %226 ], [ %4, %253 ], [ %4, %248 ]
  ret %struct.pb_Parameters* %303
}

; Function Attrs: argmemonly mustprogress nofree nosync nounwind willreturn
declare void @llvm.lifetime.start.p0i8(i64 immarg, i8* nocapture) #1

; Function Attrs: inaccessiblememonly mustprogress nofree nounwind willreturn
declare dso_local noalias noundef i8* @malloc(i64 noundef) local_unnamed_addr #2

; Function Attrs: inaccessiblemem_or_argmemonly mustprogress nounwind willreturn
declare dso_local void @free(i8* nocapture noundef) local_unnamed_addr #3

; Function Attrs: inaccessiblemem_or_argmemonly mustprogress nofree nounwind willreturn
declare dso_local noalias i8* @strdup(i8* nocapture readonly) local_unnamed_addr #4

; Function Attrs: argmemonly mustprogress nofree nosync nounwind willreturn
declare void @llvm.lifetime.end.p0i8(i64 immarg, i8* nocapture) #1

; Function Attrs: nofree nounwind
declare dso_local noundef i32 @fputs(i8* nocapture noundef readonly, %struct._IO_FILE* nocapture noundef) local_unnamed_addr #5

; Function Attrs: mustprogress nounwind uwtable
define dso_local void @pb_FreeParameters(%struct.pb_Parameters* nocapture %0) local_unnamed_addr #0 {
  %2 = getelementptr inbounds %struct.pb_Parameters, %struct.pb_Parameters* %0, i64 0, i32 0
  %3 = load i8*, i8** %2, align 8, !tbaa !3
  tail call void @free(i8* %3) #25
  %4 = getelementptr inbounds %struct.pb_Parameters, %struct.pb_Parameters* %0, i64 0, i32 1
  %5 = load i8**, i8*** %4, align 8, !tbaa !8
  %6 = icmp eq i8** %5, null
  br i1 %6, label %18, label %7

7:                                                ; preds = %1
  %8 = load i8*, i8** %5, align 8, !tbaa !9
  %9 = icmp eq i8* %8, null
  br i1 %9, label %16, label %10

10:                                               ; preds = %7, %10
  %11 = phi i8* [ %14, %10 ], [ %8, %7 ]
  %12 = phi i8** [ %13, %10 ], [ %5, %7 ]
  tail call void @free(i8* nonnull %11) #25
  %13 = getelementptr inbounds i8*, i8** %12, i64 1
  %14 = load i8*, i8** %13, align 8, !tbaa !9
  %15 = icmp eq i8* %14, null
  br i1 %15, label %16, label %10, !llvm.loop !28

16:                                               ; preds = %10, %7
  %17 = bitcast i8** %5 to i8*
  tail call void @free(i8* %17) #25
  br label %18

18:                                               ; preds = %1, %16
  %19 = bitcast %struct.pb_Parameters* %0 to i8*
  tail call void @free(i8* %19) #25
  ret void
}

; Function Attrs: mustprogress nofree norecurse nosync nounwind readonly uwtable willreturn
define dso_local i32 @pb_Parameters_CountInputs(%struct.pb_Parameters* nocapture readonly %0) local_unnamed_addr #6 {
  %2 = getelementptr inbounds %struct.pb_Parameters, %struct.pb_Parameters* %0, i64 0, i32 1
  %3 = load i8**, i8*** %2, align 8, !tbaa !8
  br label %4

4:                                                ; preds = %4, %1
  %5 = phi i64 [ %9, %4 ], [ 0, %1 ]
  %6 = getelementptr inbounds i8*, i8** %3, i64 %5
  %7 = load i8*, i8** %6, align 8, !tbaa !9
  %8 = icmp eq i8* %7, null
  %9 = add nuw i64 %5, 1
  br i1 %8, label %10, label %4, !llvm.loop !29

10:                                               ; preds = %4
  %11 = trunc i64 %5 to i32
  ret i32 %11
}

; Function Attrs: mustprogress nofree norecurse nosync nounwind uwtable willreturn writeonly
define dso_local void @pb_ResetTimer(%struct.pb_Timer* nocapture writeonly %0) local_unnamed_addr #7 {
  %2 = getelementptr inbounds %struct.pb_Timer, %struct.pb_Timer* %0, i64 0, i32 0
  store i32 0, i32* %2, align 8, !tbaa !30
  %3 = getelementptr inbounds %struct.pb_Timer, %struct.pb_Timer* %0, i64 0, i32 1
  store i64 0, i64* %3, align 8, !tbaa !34
  ret void
}

; Function Attrs: mustprogress nofree nounwind uwtable
define dso_local void @pb_StartTimer(%struct.pb_Timer* nocapture %0) local_unnamed_addr #8 {
  %2 = alloca %struct.timeval, align 8
  %3 = getelementptr inbounds %struct.pb_Timer, %struct.pb_Timer* %0, i64 0, i32 0
  %4 = load i32, i32* %3, align 8, !tbaa !30
  %5 = icmp eq i32 %4, 0
  br i1 %5, label %9, label %6

6:                                                ; preds = %1
  %7 = load %struct._IO_FILE*, %struct._IO_FILE** @stderr, align 8, !tbaa !9
  %8 = tail call i64 @fwrite(i8* getelementptr inbounds ([43 x i8], [43 x i8]* @.str.3, i64 0, i64 0), i64 42, i64 1, %struct._IO_FILE* %7) #27
  br label %19

9:                                                ; preds = %1
  store i32 1, i32* %3, align 8, !tbaa !30
  %10 = bitcast %struct.timeval* %2 to i8*
  call void @llvm.lifetime.start.p0i8(i64 16, i8* nonnull %10) #25
  %11 = call i32 @gettimeofday(%struct.timeval* nonnull %2, %struct.timezone* null) #25
  %12 = getelementptr inbounds %struct.timeval, %struct.timeval* %2, i64 0, i32 0
  %13 = load i64, i64* %12, align 8, !tbaa !35
  %14 = mul nsw i64 %13, 1000000
  %15 = getelementptr inbounds %struct.timeval, %struct.timeval* %2, i64 0, i32 1
  %16 = load i64, i64* %15, align 8, !tbaa !38
  %17 = add nsw i64 %14, %16
  %18 = getelementptr inbounds %struct.pb_Timer, %struct.pb_Timer* %0, i64 0, i32 2
  store i64 %17, i64* %18, align 8, !tbaa !39
  call void @llvm.lifetime.end.p0i8(i64 16, i8* nonnull %10) #25
  br label %19

19:                                               ; preds = %9, %6
  ret void
}

; Function Attrs: nofree nounwind
declare dso_local noundef i32 @gettimeofday(%struct.timeval* nocapture noundef, %struct.timezone* nocapture noundef) local_unnamed_addr #5

; Function Attrs: mustprogress nofree nounwind uwtable
define dso_local void @_Z24pb_StartTimerAndSubTimerP8pb_TimerS0_(%struct.pb_Timer* nocapture %0, %struct.pb_Timer* nocapture %1) local_unnamed_addr #8 {
  %3 = alloca %struct.timeval, align 8
  %4 = getelementptr inbounds %struct.pb_Timer, %struct.pb_Timer* %0, i64 0, i32 0
  %5 = load i32, i32* %4, align 8, !tbaa !30
  %6 = icmp eq i32 %5, 0
  br i1 %6, label %10, label %7

7:                                                ; preds = %2
  %8 = load %struct._IO_FILE*, %struct._IO_FILE** @stderr, align 8, !tbaa !9
  %9 = tail call i64 @fwrite(i8* getelementptr inbounds ([32 x i8], [32 x i8]* @.str.4, i64 0, i64 0), i64 31, i64 1, %struct._IO_FILE* %8) #27
  br label %10

10:                                               ; preds = %7, %2
  %11 = phi i32 [ 1, %7 ], [ 3, %2 ]
  %12 = getelementptr inbounds %struct.pb_Timer, %struct.pb_Timer* %1, i64 0, i32 0
  %13 = load i32, i32* %12, align 8, !tbaa !30
  %14 = icmp eq i32 %13, 0
  br i1 %14, label %23, label %15

15:                                               ; preds = %10
  %16 = load %struct._IO_FILE*, %struct._IO_FILE** @stderr, align 8, !tbaa !9
  %17 = tail call i64 @fwrite(i8* getelementptr inbounds ([35 x i8], [35 x i8]* @.str.5, i64 0, i64 0), i64 34, i64 1, %struct._IO_FILE* %16) #27
  %18 = and i32 %11, 2
  %19 = icmp eq i32 %18, 0
  br i1 %19, label %20, label %23

20:                                               ; preds = %15
  %21 = load %struct._IO_FILE*, %struct._IO_FILE** @stderr, align 8, !tbaa !9
  %22 = tail call i64 @fwrite(i8* getelementptr inbounds ([54 x i8], [54 x i8]* @.str.6, i64 0, i64 0), i64 53, i64 1, %struct._IO_FILE* %21) #27
  br label %49

23:                                               ; preds = %10, %15
  %24 = phi i32 [ %18, %15 ], [ %11, %10 ]
  store i32 1, i32* %4, align 8, !tbaa !30
  store i32 1, i32* %12, align 8, !tbaa !30
  %25 = bitcast %struct.timeval* %3 to i8*
  call void @llvm.lifetime.start.p0i8(i64 16, i8* nonnull %25) #25
  %26 = call i32 @gettimeofday(%struct.timeval* nonnull %3, %struct.timezone* null) #25
  %27 = and i32 %24, 2
  %28 = icmp eq i32 %27, 0
  br i1 %28, label %37, label %29

29:                                               ; preds = %23
  %30 = getelementptr inbounds %struct.timeval, %struct.timeval* %3, i64 0, i32 0
  %31 = load i64, i64* %30, align 8, !tbaa !35
  %32 = mul nsw i64 %31, 1000000
  %33 = getelementptr inbounds %struct.timeval, %struct.timeval* %3, i64 0, i32 1
  %34 = load i64, i64* %33, align 8, !tbaa !38
  %35 = add nsw i64 %32, %34
  %36 = getelementptr inbounds %struct.pb_Timer, %struct.pb_Timer* %0, i64 0, i32 2
  store i64 %35, i64* %36, align 8, !tbaa !39
  br label %37

37:                                               ; preds = %29, %23
  %38 = and i32 %24, 1
  %39 = icmp eq i32 %38, 0
  br i1 %39, label %48, label %40

40:                                               ; preds = %37
  %41 = getelementptr inbounds %struct.timeval, %struct.timeval* %3, i64 0, i32 0
  %42 = load i64, i64* %41, align 8, !tbaa !35
  %43 = mul nsw i64 %42, 1000000
  %44 = getelementptr inbounds %struct.timeval, %struct.timeval* %3, i64 0, i32 1
  %45 = load i64, i64* %44, align 8, !tbaa !38
  %46 = add nsw i64 %43, %45
  %47 = getelementptr inbounds %struct.pb_Timer, %struct.pb_Timer* %1, i64 0, i32 2
  store i64 %46, i64* %47, align 8, !tbaa !39
  br label %48

48:                                               ; preds = %40, %37
  call void @llvm.lifetime.end.p0i8(i64 16, i8* nonnull %25) #25
  br label %49

49:                                               ; preds = %48, %20
  ret void
}

; Function Attrs: mustprogress nofree nounwind uwtable
define dso_local void @pb_StopTimer(%struct.pb_Timer* nocapture %0) local_unnamed_addr #8 {
  %2 = alloca %struct.timeval, align 8
  %3 = getelementptr inbounds %struct.pb_Timer, %struct.pb_Timer* %0, i64 0, i32 0
  %4 = load i32, i32* %3, align 8, !tbaa !30
  %5 = icmp eq i32 %4, 1
  br i1 %5, label %9, label %6

6:                                                ; preds = %1
  %7 = load %struct._IO_FILE*, %struct._IO_FILE** @stderr, align 8, !tbaa !9
  %8 = tail call i64 @fwrite(i8* getelementptr inbounds ([42 x i8], [42 x i8]* @.str.7, i64 0, i64 0), i64 41, i64 1, %struct._IO_FILE* %7) #27
  br label %24

9:                                                ; preds = %1
  store i32 0, i32* %3, align 8, !tbaa !30
  %10 = bitcast %struct.timeval* %2 to i8*
  call void @llvm.lifetime.start.p0i8(i64 16, i8* nonnull %10) #25
  %11 = call i32 @gettimeofday(%struct.timeval* nonnull %2, %struct.timezone* null) #25
  %12 = getelementptr inbounds %struct.timeval, %struct.timeval* %2, i64 0, i32 0
  %13 = load i64, i64* %12, align 8, !tbaa !35
  %14 = mul nsw i64 %13, 1000000
  %15 = getelementptr inbounds %struct.timeval, %struct.timeval* %2, i64 0, i32 1
  %16 = load i64, i64* %15, align 8, !tbaa !38
  %17 = add nsw i64 %14, %16
  call void @llvm.lifetime.end.p0i8(i64 16, i8* nonnull %10) #25
  %18 = getelementptr inbounds %struct.pb_Timer, %struct.pb_Timer* %0, i64 0, i32 1
  %19 = getelementptr inbounds %struct.pb_Timer, %struct.pb_Timer* %0, i64 0, i32 2
  %20 = load i64, i64* %19, align 8, !tbaa !39
  %21 = sub i64 %17, %20
  %22 = load i64, i64* %18, align 8, !tbaa !40
  %23 = add i64 %21, %22
  store i64 %23, i64* %18, align 8, !tbaa !40
  store i64 %17, i64* %19, align 8, !tbaa !39
  br label %24

24:                                               ; preds = %9, %6
  ret void
}

; Function Attrs: mustprogress nofree nounwind uwtable
define dso_local void @_Z23pb_StopTimerAndSubTimerP8pb_TimerS0_(%struct.pb_Timer* nocapture %0, %struct.pb_Timer* nocapture %1) local_unnamed_addr #8 {
  %3 = alloca %struct.timeval, align 8
  %4 = getelementptr inbounds %struct.pb_Timer, %struct.pb_Timer* %0, i64 0, i32 0
  %5 = load i32, i32* %4, align 8, !tbaa !30
  %6 = icmp eq i32 %5, 1
  br i1 %6, label %10, label %7

7:                                                ; preds = %2
  %8 = load %struct._IO_FILE*, %struct._IO_FILE** @stderr, align 8, !tbaa !9
  %9 = tail call i64 @fwrite(i8* getelementptr inbounds ([32 x i8], [32 x i8]* @.str.8, i64 0, i64 0), i64 31, i64 1, %struct._IO_FILE* %8) #27
  br label %10

10:                                               ; preds = %7, %2
  %11 = phi i32 [ 1, %7 ], [ 3, %2 ]
  %12 = getelementptr inbounds %struct.pb_Timer, %struct.pb_Timer* %1, i64 0, i32 0
  %13 = load i32, i32* %12, align 8, !tbaa !30
  %14 = icmp eq i32 %13, 1
  br i1 %14, label %23, label %15

15:                                               ; preds = %10
  %16 = load %struct._IO_FILE*, %struct._IO_FILE** @stderr, align 8, !tbaa !9
  %17 = tail call i64 @fwrite(i8* getelementptr inbounds ([35 x i8], [35 x i8]* @.str.9, i64 0, i64 0), i64 34, i64 1, %struct._IO_FILE* %16) #27
  %18 = and i32 %11, 2
  %19 = icmp eq i32 %18, 0
  br i1 %19, label %20, label %23

20:                                               ; preds = %15
  %21 = load %struct._IO_FILE*, %struct._IO_FILE** @stderr, align 8, !tbaa !9
  %22 = tail call i64 @fwrite(i8* getelementptr inbounds ([53 x i8], [53 x i8]* @.str.10, i64 0, i64 0), i64 52, i64 1, %struct._IO_FILE* %21) #27
  br label %52

23:                                               ; preds = %10, %15
  %24 = phi i32 [ %18, %15 ], [ %11, %10 ]
  store i32 0, i32* %4, align 8, !tbaa !30
  store i32 0, i32* %12, align 8, !tbaa !30
  %25 = bitcast %struct.timeval* %3 to i8*
  call void @llvm.lifetime.start.p0i8(i64 16, i8* nonnull %25) #25
  %26 = call i32 @gettimeofday(%struct.timeval* nonnull %3, %struct.timezone* null) #25
  %27 = getelementptr inbounds %struct.timeval, %struct.timeval* %3, i64 0, i32 0
  %28 = load i64, i64* %27, align 8, !tbaa !35
  %29 = mul nsw i64 %28, 1000000
  %30 = getelementptr inbounds %struct.timeval, %struct.timeval* %3, i64 0, i32 1
  %31 = load i64, i64* %30, align 8, !tbaa !38
  %32 = add nsw i64 %29, %31
  call void @llvm.lifetime.end.p0i8(i64 16, i8* nonnull %25) #25
  %33 = and i32 %24, 2
  %34 = icmp eq i32 %33, 0
  br i1 %34, label %42, label %35

35:                                               ; preds = %23
  %36 = getelementptr inbounds %struct.pb_Timer, %struct.pb_Timer* %0, i64 0, i32 1
  %37 = getelementptr inbounds %struct.pb_Timer, %struct.pb_Timer* %0, i64 0, i32 2
  %38 = load i64, i64* %37, align 8, !tbaa !39
  %39 = sub i64 %32, %38
  %40 = load i64, i64* %36, align 8, !tbaa !40
  %41 = add i64 %39, %40
  store i64 %41, i64* %36, align 8, !tbaa !40
  store i64 %32, i64* %37, align 8, !tbaa !39
  br label %42

42:                                               ; preds = %35, %23
  %43 = and i32 %24, 1
  %44 = icmp eq i32 %43, 0
  br i1 %44, label %52, label %45

45:                                               ; preds = %42
  %46 = getelementptr inbounds %struct.pb_Timer, %struct.pb_Timer* %1, i64 0, i32 1
  %47 = getelementptr inbounds %struct.pb_Timer, %struct.pb_Timer* %1, i64 0, i32 2
  %48 = load i64, i64* %47, align 8, !tbaa !39
  %49 = sub i64 %32, %48
  %50 = load i64, i64* %46, align 8, !tbaa !40
  %51 = add i64 %49, %50
  store i64 %51, i64* %46, align 8, !tbaa !40
  store i64 %32, i64* %47, align 8, !tbaa !39
  br label %52

52:                                               ; preds = %42, %45, %20
  ret void
}

; Function Attrs: mustprogress nofree nounwind uwtable
define dso_local double @pb_GetElapsedTime(%struct.pb_Timer* nocapture readonly %0) local_unnamed_addr #8 {
  %2 = getelementptr inbounds %struct.pb_Timer, %struct.pb_Timer* %0, i64 0, i32 0
  %3 = load i32, i32* %2, align 8, !tbaa !30
  %4 = icmp eq i32 %3, 0
  br i1 %4, label %8, label %5

5:                                                ; preds = %1
  %6 = load %struct._IO_FILE*, %struct._IO_FILE** @stderr, align 8, !tbaa !9
  %7 = tail call i64 @fwrite(i8* getelementptr inbounds ([49 x i8], [49 x i8]* @.str.11, i64 0, i64 0), i64 48, i64 1, %struct._IO_FILE* %6) #27
  br label %8

8:                                                ; preds = %5, %1
  %9 = getelementptr inbounds %struct.pb_Timer, %struct.pb_Timer* %0, i64 0, i32 1
  %10 = load i64, i64* %9, align 8, !tbaa !34
  %11 = uitofp i64 %10 to double
  %12 = fdiv contract double %11, 1.000000e+06
  ret double %12
}

; Function Attrs: mustprogress nofree nounwind uwtable
define dso_local void @pb_InitializeTimerSet(%struct.pb_TimerSet* nocapture writeonly %0) local_unnamed_addr #8 {
  %2 = alloca %struct.timeval, align 8
  %3 = bitcast %struct.timeval* %2 to i8*
  call void @llvm.lifetime.start.p0i8(i64 16, i8* nonnull %3) #25
  %4 = call i32 @gettimeofday(%struct.timeval* nonnull %2, %struct.timezone* null) #25
  %5 = getelementptr inbounds %struct.timeval, %struct.timeval* %2, i64 0, i32 0
  %6 = load i64, i64* %5, align 8, !tbaa !35
  %7 = mul nsw i64 %6, 1000000
  %8 = getelementptr inbounds %struct.timeval, %struct.timeval* %2, i64 0, i32 1
  %9 = load i64, i64* %8, align 8, !tbaa !38
  %10 = add nsw i64 %7, %9
  call void @llvm.lifetime.end.p0i8(i64 16, i8* nonnull %3) #25
  %11 = getelementptr inbounds %struct.pb_TimerSet, %struct.pb_TimerSet* %0, i64 0, i32 3
  store i64 %10, i64* %11, align 8, !tbaa !41
  %12 = getelementptr inbounds %struct.pb_TimerSet, %struct.pb_TimerSet* %0, i64 0, i32 0
  store i32 0, i32* %12, align 8, !tbaa !44
  %13 = getelementptr inbounds %struct.pb_TimerSet, %struct.pb_TimerSet* %0, i64 0, i32 1
  store %struct.pb_async_time_marker_list* null, %struct.pb_async_time_marker_list** %13, align 8, !tbaa !45
  %14 = getelementptr inbounds %struct.pb_TimerSet, %struct.pb_TimerSet* %0, i64 0, i32 4, i64 0, i32 0
  store i32 0, i32* %14, align 8, !tbaa !30
  %15 = getelementptr inbounds %struct.pb_TimerSet, %struct.pb_TimerSet* %0, i64 0, i32 4, i64 0, i32 1
  store i64 0, i64* %15, align 8, !tbaa !34
  %16 = getelementptr inbounds %struct.pb_TimerSet, %struct.pb_TimerSet* %0, i64 0, i32 5, i64 0
  %17 = getelementptr inbounds %struct.pb_TimerSet, %struct.pb_TimerSet* %0, i64 0, i32 4, i64 1, i32 0
  store i32 0, i32* %17, align 8, !tbaa !30
  %18 = getelementptr inbounds %struct.pb_TimerSet, %struct.pb_TimerSet* %0, i64 0, i32 4, i64 1, i32 1
  store i64 0, i64* %18, align 8, !tbaa !34
  %19 = getelementptr inbounds %struct.pb_TimerSet, %struct.pb_TimerSet* %0, i64 0, i32 4, i64 2, i32 0
  store i32 0, i32* %19, align 8, !tbaa !30
  %20 = getelementptr inbounds %struct.pb_TimerSet, %struct.pb_TimerSet* %0, i64 0, i32 4, i64 2, i32 1
  store i64 0, i64* %20, align 8, !tbaa !34
  %21 = getelementptr inbounds %struct.pb_TimerSet, %struct.pb_TimerSet* %0, i64 0, i32 4, i64 3, i32 0
  store i32 0, i32* %21, align 8, !tbaa !30
  %22 = getelementptr inbounds %struct.pb_TimerSet, %struct.pb_TimerSet* %0, i64 0, i32 4, i64 3, i32 1
  store i64 0, i64* %22, align 8, !tbaa !34
  %23 = getelementptr inbounds %struct.pb_TimerSet, %struct.pb_TimerSet* %0, i64 0, i32 4, i64 4, i32 0
  store i32 0, i32* %23, align 8, !tbaa !30
  %24 = getelementptr inbounds %struct.pb_TimerSet, %struct.pb_TimerSet* %0, i64 0, i32 4, i64 4, i32 1
  store i64 0, i64* %24, align 8, !tbaa !34
  %25 = getelementptr inbounds %struct.pb_TimerSet, %struct.pb_TimerSet* %0, i64 0, i32 4, i64 5, i32 0
  store i32 0, i32* %25, align 8, !tbaa !30
  %26 = getelementptr inbounds %struct.pb_TimerSet, %struct.pb_TimerSet* %0, i64 0, i32 4, i64 5, i32 1
  store i64 0, i64* %26, align 8, !tbaa !34
  %27 = getelementptr inbounds %struct.pb_TimerSet, %struct.pb_TimerSet* %0, i64 0, i32 4, i64 6, i32 0
  store i32 0, i32* %27, align 8, !tbaa !30
  %28 = getelementptr inbounds %struct.pb_TimerSet, %struct.pb_TimerSet* %0, i64 0, i32 4, i64 6, i32 1
  store i64 0, i64* %28, align 8, !tbaa !34
  %29 = getelementptr inbounds %struct.pb_TimerSet, %struct.pb_TimerSet* %0, i64 0, i32 4, i64 7, i32 0
  store i32 0, i32* %29, align 8, !tbaa !30
  %30 = getelementptr inbounds %struct.pb_TimerSet, %struct.pb_TimerSet* %0, i64 0, i32 4, i64 7, i32 1
  store i64 0, i64* %30, align 8, !tbaa !34
  %31 = bitcast %struct.pb_SubTimerList** %16 to i8*
  call void @llvm.memset.p0i8.i64(i8* noundef nonnull align 8 dereferenceable(64) %31, i8 0, i64 64, i1 false)
  ret void
}

; Function Attrs: mustprogress nofree norecurse nosync nounwind readnone uwtable willreturn
define dso_local void @pb_SetOpenCL(i8* nocapture %0, i8* nocapture %1) local_unnamed_addr #9 {
  ret void
}

; Function Attrs: mustprogress nofree nounwind uwtable
define dso_local void @pb_AddSubTimer(%struct.pb_TimerSet* nocapture %0, i8* nocapture readonly %1, i32 %2) local_unnamed_addr #8 {
  %4 = tail call noalias align 16 dereferenceable_or_null(40) i8* @malloc(i64 40) #25
  %5 = bitcast i8* %4 to %struct.pb_SubTimer*
  %6 = tail call i64 @strlen(i8* noundef nonnull dereferenceable(1) %1) #28
  %7 = shl i64 %6, 32
  %8 = add i64 %7, 4294967296
  %9 = ashr exact i64 %8, 32
  %10 = tail call noalias align 16 i8* @malloc(i64 %9) #25
  %11 = getelementptr inbounds %struct.pb_SubTimer, %struct.pb_SubTimer* %5, i64 0, i32 0
  store i8* %10, i8** %11, align 16, !tbaa !46
  %12 = tail call i8* @strcpy(i8* noundef nonnull dereferenceable(1) %10, i8* noundef nonnull dereferenceable(1) %1)
  %13 = getelementptr inbounds %struct.pb_SubTimer, %struct.pb_SubTimer* %5, i64 0, i32 1, i32 0
  store i32 0, i32* %13, align 8, !tbaa !30
  %14 = getelementptr inbounds %struct.pb_SubTimer, %struct.pb_SubTimer* %5, i64 0, i32 1, i32 1
  store i64 0, i64* %14, align 16, !tbaa !34
  %15 = getelementptr inbounds %struct.pb_SubTimer, %struct.pb_SubTimer* %5, i64 0, i32 2
  store %struct.pb_SubTimer* null, %struct.pb_SubTimer** %15, align 16, !tbaa !48
  %16 = zext i32 %2 to i64
  %17 = getelementptr inbounds %struct.pb_TimerSet, %struct.pb_TimerSet* %0, i64 0, i32 5, i64 %16
  %18 = load %struct.pb_SubTimerList*, %struct.pb_SubTimerList** %17, align 8, !tbaa !9
  %19 = icmp eq %struct.pb_SubTimerList* %18, null
  br i1 %19, label %20, label %26

20:                                               ; preds = %3
  %21 = tail call noalias align 16 dereferenceable_or_null(16) i8* @malloc(i64 16) #25
  %22 = bitcast i8* %21 to %struct.pb_SubTimerList*
  %23 = getelementptr inbounds %struct.pb_SubTimerList, %struct.pb_SubTimerList* %22, i64 0, i32 1
  %24 = bitcast %struct.pb_SubTimer** %23 to i8**
  store i8* %4, i8** %24, align 8, !tbaa !49
  %25 = bitcast %struct.pb_SubTimerList** %17 to i8**
  store i8* %21, i8** %25, align 8, !tbaa !9
  br label %37

26:                                               ; preds = %3
  %27 = getelementptr inbounds %struct.pb_SubTimerList, %struct.pb_SubTimerList* %18, i64 0, i32 1
  %28 = load %struct.pb_SubTimer*, %struct.pb_SubTimer** %27, align 8, !tbaa !49
  br label %29

29:                                               ; preds = %29, %26
  %30 = phi %struct.pb_SubTimer* [ %28, %26 ], [ %32, %29 ]
  %31 = getelementptr inbounds %struct.pb_SubTimer, %struct.pb_SubTimer* %30, i64 0, i32 2
  %32 = load %struct.pb_SubTimer*, %struct.pb_SubTimer** %31, align 8, !tbaa !48
  %33 = icmp eq %struct.pb_SubTimer* %32, null
  br i1 %33, label %34, label %29, !llvm.loop !51

34:                                               ; preds = %29
  %35 = getelementptr inbounds %struct.pb_SubTimer, %struct.pb_SubTimer* %30, i64 0, i32 2
  %36 = bitcast %struct.pb_SubTimer** %35 to i8**
  store i8* %4, i8** %36, align 8, !tbaa !48
  br label %37

37:                                               ; preds = %34, %20
  ret void
}

; Function Attrs: argmemonly mustprogress nofree nounwind readonly willreturn
declare dso_local i64 @strlen(i8* nocapture) local_unnamed_addr #10

; Function Attrs: mustprogress uwtable
define dso_local void @pb_SwitchToTimer(%struct.pb_TimerSet* nocapture %0, i32 %1) local_unnamed_addr #11 {
  %3 = alloca %struct.timeval, align 8
  %4 = alloca %struct.timeval, align 8
  %5 = alloca %struct.timeval, align 8
  %6 = alloca %struct.timeval, align 8
  %7 = alloca %struct.timeval, align 8
  %8 = alloca %struct.timeval, align 8
  %9 = getelementptr inbounds %struct.pb_TimerSet, %struct.pb_TimerSet* %0, i64 0, i32 0
  %10 = load i32, i32* %9, align 8, !tbaa !44
  %11 = icmp eq i32 %10, 0
  br i1 %11, label %143, label %12

12:                                               ; preds = %2
  %13 = zext i32 %10 to i64
  %14 = getelementptr inbounds %struct.pb_TimerSet, %struct.pb_TimerSet* %0, i64 0, i32 5, i64 %13
  %15 = load %struct.pb_SubTimerList*, %struct.pb_SubTimerList** %14, align 8, !tbaa !9
  %16 = icmp eq %struct.pb_SubTimerList* %15, null
  br i1 %16, label %20, label %17

17:                                               ; preds = %12
  %18 = getelementptr inbounds %struct.pb_SubTimerList, %struct.pb_SubTimerList* %15, i64 0, i32 0
  %19 = load %struct.pb_SubTimer*, %struct.pb_SubTimer** %18, align 8, !tbaa !52
  br label %20

20:                                               ; preds = %12, %17
  %21 = phi %struct.pb_SubTimer* [ %19, %17 ], [ null, %12 ]
  switch i32 %10, label %22 [
    i32 5, label %74
    i32 2, label %74
  ]

22:                                               ; preds = %20
  %23 = icmp eq i32 %10, %1
  %24 = icmp eq %struct.pb_SubTimer* %21, null
  br i1 %23, label %51, label %25

25:                                               ; preds = %22
  br i1 %24, label %29, label %26

26:                                               ; preds = %25
  %27 = getelementptr inbounds %struct.pb_TimerSet, %struct.pb_TimerSet* %0, i64 0, i32 4, i64 %13
  %28 = getelementptr inbounds %struct.pb_SubTimer, %struct.pb_SubTimer* %21, i64 0, i32 1
  tail call void @_Z23pb_StopTimerAndSubTimerP8pb_TimerS0_(%struct.pb_Timer* nonnull %27, %struct.pb_Timer* nonnull %28)
  br label %143

29:                                               ; preds = %25
  %30 = getelementptr inbounds %struct.pb_TimerSet, %struct.pb_TimerSet* %0, i64 0, i32 4, i64 %13, i32 0
  %31 = load i32, i32* %30, align 8, !tbaa !30
  %32 = icmp eq i32 %31, 1
  br i1 %32, label %36, label %33

33:                                               ; preds = %29
  %34 = load %struct._IO_FILE*, %struct._IO_FILE** @stderr, align 8, !tbaa !9
  %35 = tail call i64 @fwrite(i8* getelementptr inbounds ([42 x i8], [42 x i8]* @.str.7, i64 0, i64 0), i64 41, i64 1, %struct._IO_FILE* %34) #26
  br label %143

36:                                               ; preds = %29
  store i32 0, i32* %30, align 8, !tbaa !30
  %37 = bitcast %struct.timeval* %8 to i8*
  call void @llvm.lifetime.start.p0i8(i64 16, i8* nonnull %37) #25
  %38 = call i32 @gettimeofday(%struct.timeval* nonnull %8, %struct.timezone* null) #25
  %39 = getelementptr inbounds %struct.timeval, %struct.timeval* %8, i64 0, i32 0
  %40 = load i64, i64* %39, align 8, !tbaa !35
  %41 = mul nsw i64 %40, 1000000
  %42 = getelementptr inbounds %struct.timeval, %struct.timeval* %8, i64 0, i32 1
  %43 = load i64, i64* %42, align 8, !tbaa !38
  %44 = add nsw i64 %41, %43
  call void @llvm.lifetime.end.p0i8(i64 16, i8* nonnull %37) #25
  %45 = getelementptr inbounds %struct.pb_TimerSet, %struct.pb_TimerSet* %0, i64 0, i32 4, i64 %13, i32 1
  %46 = getelementptr inbounds %struct.pb_TimerSet, %struct.pb_TimerSet* %0, i64 0, i32 4, i64 %13, i32 2
  %47 = load i64, i64* %46, align 8, !tbaa !39
  %48 = sub i64 %44, %47
  %49 = load i64, i64* %45, align 8, !tbaa !40
  %50 = add i64 %48, %49
  store i64 %50, i64* %45, align 8, !tbaa !40
  store i64 %44, i64* %46, align 8, !tbaa !39
  br label %143

51:                                               ; preds = %22
  br i1 %24, label %143, label %52

52:                                               ; preds = %51
  %53 = getelementptr inbounds %struct.pb_SubTimer, %struct.pb_SubTimer* %21, i64 0, i32 1, i32 0
  %54 = load i32, i32* %53, align 8, !tbaa !30
  %55 = icmp eq i32 %54, 1
  br i1 %55, label %59, label %56

56:                                               ; preds = %52
  %57 = load %struct._IO_FILE*, %struct._IO_FILE** @stderr, align 8, !tbaa !9
  %58 = tail call i64 @fwrite(i8* getelementptr inbounds ([42 x i8], [42 x i8]* @.str.7, i64 0, i64 0), i64 41, i64 1, %struct._IO_FILE* %57) #26
  br label %143

59:                                               ; preds = %52
  store i32 0, i32* %53, align 8, !tbaa !30
  %60 = bitcast %struct.timeval* %7 to i8*
  call void @llvm.lifetime.start.p0i8(i64 16, i8* nonnull %60) #25
  %61 = call i32 @gettimeofday(%struct.timeval* nonnull %7, %struct.timezone* null) #25
  %62 = getelementptr inbounds %struct.timeval, %struct.timeval* %7, i64 0, i32 0
  %63 = load i64, i64* %62, align 8, !tbaa !35
  %64 = mul nsw i64 %63, 1000000
  %65 = getelementptr inbounds %struct.timeval, %struct.timeval* %7, i64 0, i32 1
  %66 = load i64, i64* %65, align 8, !tbaa !38
  %67 = add nsw i64 %64, %66
  call void @llvm.lifetime.end.p0i8(i64 16, i8* nonnull %60) #25
  %68 = getelementptr inbounds %struct.pb_SubTimer, %struct.pb_SubTimer* %21, i64 0, i32 1, i32 1
  %69 = getelementptr inbounds %struct.pb_SubTimer, %struct.pb_SubTimer* %21, i64 0, i32 1, i32 2
  %70 = load i64, i64* %69, align 8, !tbaa !39
  %71 = sub i64 %67, %70
  %72 = load i64, i64* %68, align 8, !tbaa !40
  %73 = add i64 %71, %72
  store i64 %73, i64* %68, align 8, !tbaa !40
  store i64 %67, i64* %69, align 8, !tbaa !39
  br label %143

74:                                               ; preds = %20, %20
  %75 = getelementptr inbounds %struct.pb_TimerSet, %struct.pb_TimerSet* %0, i64 0, i32 1
  %76 = load %struct.pb_async_time_marker_list*, %struct.pb_async_time_marker_list** %75, align 8, !tbaa !9
  %77 = icmp eq %struct.pb_async_time_marker_list* %76, null
  br i1 %77, label %93, label %78

78:                                               ; preds = %74
  %79 = getelementptr inbounds %struct.pb_async_time_marker_list, %struct.pb_async_time_marker_list* %76, i64 0, i32 1
  %80 = load i32, i32* %79, align 8, !tbaa !53
  %81 = icmp eq i32 %80, 8
  br i1 %81, label %110, label %82

82:                                               ; preds = %78, %87
  %83 = phi %struct.pb_async_time_marker_list* [ %85, %87 ], [ %76, %78 ]
  %84 = getelementptr inbounds %struct.pb_async_time_marker_list, %struct.pb_async_time_marker_list* %83, i64 0, i32 3
  %85 = load %struct.pb_async_time_marker_list*, %struct.pb_async_time_marker_list** %84, align 8, !tbaa !9
  %86 = icmp eq %struct.pb_async_time_marker_list* %85, null
  br i1 %86, label %91, label %87, !llvm.loop !55

87:                                               ; preds = %82
  %88 = getelementptr inbounds %struct.pb_async_time_marker_list, %struct.pb_async_time_marker_list* %85, i64 0, i32 1
  %89 = load i32, i32* %88, align 8, !tbaa !53
  %90 = icmp eq i32 %89, 8
  br i1 %90, label %108, label %82, !llvm.loop !55

91:                                               ; preds = %82
  %92 = getelementptr inbounds %struct.pb_async_time_marker_list, %struct.pb_async_time_marker_list* %83, i64 0, i32 3
  br label %93

93:                                               ; preds = %91, %74
  %94 = phi %struct.pb_async_time_marker_list** [ %75, %74 ], [ %92, %91 ]
  %95 = tail call noalias align 16 dereferenceable_or_null(32) i8* @malloc(i64 32) #25
  %96 = bitcast %struct.pb_async_time_marker_list** %94 to i8**
  store i8* %95, i8** %96, align 8, !tbaa !9
  %97 = tail call noalias align 16 dereferenceable_or_null(8) i8* @malloc(i64 8) #25
  %98 = bitcast i8* %95 to %struct.pb_async_time_marker_list*
  %99 = getelementptr inbounds %struct.pb_async_time_marker_list, %struct.pb_async_time_marker_list* %98, i64 0, i32 2
  store i8* %97, i8** %99, align 16, !tbaa !56
  %100 = load %struct.pb_async_time_marker_list*, %struct.pb_async_time_marker_list** %94, align 8, !tbaa !9
  %101 = getelementptr inbounds %struct.pb_async_time_marker_list, %struct.pb_async_time_marker_list* %100, i64 0, i32 2
  %102 = bitcast i8** %101 to %struct.ihipEvent_t***
  %103 = load %struct.ihipEvent_t**, %struct.ihipEvent_t*** %102, align 8, !tbaa !56
  %104 = tail call i32 @hipEventCreate(%struct.ihipEvent_t** %103)
  %105 = load %struct.pb_async_time_marker_list*, %struct.pb_async_time_marker_list** %94, align 8, !tbaa !9
  %106 = getelementptr inbounds %struct.pb_async_time_marker_list, %struct.pb_async_time_marker_list* %105, i64 0, i32 3
  store %struct.pb_async_time_marker_list* null, %struct.pb_async_time_marker_list** %106, align 8, !tbaa !57
  %107 = load %struct.pb_async_time_marker_list*, %struct.pb_async_time_marker_list** %94, align 8, !tbaa !9
  br label %110

108:                                              ; preds = %87
  %109 = getelementptr inbounds %struct.pb_async_time_marker_list, %struct.pb_async_time_marker_list* %83, i64 0, i32 3
  br label %110

110:                                              ; preds = %108, %78, %93
  %111 = phi %struct.pb_async_time_marker_list* [ %107, %93 ], [ %76, %78 ], [ %85, %108 ]
  %112 = phi %struct.pb_async_time_marker_list** [ %94, %93 ], [ %75, %78 ], [ %109, %108 ]
  %113 = getelementptr inbounds %struct.pb_async_time_marker_list, %struct.pb_async_time_marker_list* %111, i64 0, i32 0
  store i8* null, i8** %113, align 8, !tbaa !58
  %114 = load %struct.pb_async_time_marker_list*, %struct.pb_async_time_marker_list** %112, align 8, !tbaa !9
  %115 = getelementptr inbounds %struct.pb_async_time_marker_list, %struct.pb_async_time_marker_list* %114, i64 0, i32 1
  store i32 %1, i32* %115, align 8, !tbaa !53
  %116 = getelementptr inbounds %struct.pb_async_time_marker_list, %struct.pb_async_time_marker_list* %114, i64 0, i32 2
  %117 = bitcast i8** %116 to %struct.ihipEvent_t***
  %118 = load %struct.ihipEvent_t**, %struct.ihipEvent_t*** %117, align 8, !tbaa !56
  %119 = load %struct.ihipEvent_t*, %struct.ihipEvent_t** %118, align 8, !tbaa !9
  %120 = tail call i32 @hipEventRecord(%struct.ihipEvent_t* %119, %struct.ihipStream_t* null)
  switch i32 %1, label %121 [
    i32 5, label %143
    i32 2, label %143
  ]

121:                                              ; preds = %110
  %122 = getelementptr inbounds %struct.pb_TimerSet, %struct.pb_TimerSet* %0, i64 0, i32 4, i64 4, i32 0
  %123 = load i32, i32* %122, align 8, !tbaa !30
  %124 = icmp eq i32 %123, 1
  br i1 %124, label %128, label %125

125:                                              ; preds = %121
  %126 = load %struct._IO_FILE*, %struct._IO_FILE** @stderr, align 8, !tbaa !9
  %127 = tail call i64 @fwrite(i8* getelementptr inbounds ([42 x i8], [42 x i8]* @.str.7, i64 0, i64 0), i64 41, i64 1, %struct._IO_FILE* %126) #26
  br label %143

128:                                              ; preds = %121
  store i32 0, i32* %122, align 8, !tbaa !30
  %129 = bitcast %struct.timeval* %6 to i8*
  call void @llvm.lifetime.start.p0i8(i64 16, i8* nonnull %129) #25
  %130 = call i32 @gettimeofday(%struct.timeval* nonnull %6, %struct.timezone* null) #25
  %131 = getelementptr inbounds %struct.timeval, %struct.timeval* %6, i64 0, i32 0
  %132 = load i64, i64* %131, align 8, !tbaa !35
  %133 = mul nsw i64 %132, 1000000
  %134 = getelementptr inbounds %struct.timeval, %struct.timeval* %6, i64 0, i32 1
  %135 = load i64, i64* %134, align 8, !tbaa !38
  %136 = add nsw i64 %133, %135
  call void @llvm.lifetime.end.p0i8(i64 16, i8* nonnull %129) #25
  %137 = getelementptr inbounds %struct.pb_TimerSet, %struct.pb_TimerSet* %0, i64 0, i32 4, i64 4, i32 1
  %138 = getelementptr inbounds %struct.pb_TimerSet, %struct.pb_TimerSet* %0, i64 0, i32 4, i64 4, i32 2
  %139 = load i64, i64* %138, align 8, !tbaa !39
  %140 = sub i64 %136, %139
  %141 = load i64, i64* %137, align 8, !tbaa !40
  %142 = add i64 %140, %141
  store i64 %142, i64* %137, align 8, !tbaa !40
  store i64 %136, i64* %138, align 8, !tbaa !39
  br label %143

143:                                              ; preds = %110, %110, %128, %125, %59, %56, %36, %33, %51, %26, %2
  %144 = bitcast %struct.timeval* %5 to i8*
  call void @llvm.lifetime.start.p0i8(i64 16, i8* nonnull %144) #25
  %145 = call i32 @gettimeofday(%struct.timeval* nonnull %5, %struct.timezone* null) #25
  %146 = getelementptr inbounds %struct.timeval, %struct.timeval* %5, i64 0, i32 0
  %147 = load i64, i64* %146, align 8, !tbaa !35
  %148 = mul nsw i64 %147, 1000000
  %149 = getelementptr inbounds %struct.timeval, %struct.timeval* %5, i64 0, i32 1
  %150 = load i64, i64* %149, align 8, !tbaa !38
  %151 = add nsw i64 %148, %150
  call void @llvm.lifetime.end.p0i8(i64 16, i8* nonnull %144) #25
  %152 = getelementptr %struct.pb_TimerSet, %struct.pb_TimerSet* %0, i64 0, i32 1
  %153 = load %struct.pb_async_time_marker_list*, %struct.pb_async_time_marker_list** %152, align 8, !tbaa !45
  %154 = icmp eq %struct.pb_async_time_marker_list* %153, null
  br i1 %154, label %201, label %155

155:                                              ; preds = %143
  %156 = getelementptr inbounds %struct.pb_async_time_marker_list, %struct.pb_async_time_marker_list* %153, i64 0, i32 1
  %157 = load i32, i32* %156, align 8, !tbaa !53
  %158 = icmp eq i32 %157, 8
  br i1 %158, label %201, label %159

159:                                              ; preds = %155
  %160 = load i32, i32* %9, align 8, !tbaa !44
  switch i32 %160, label %162 [
    i32 5, label %161
    i32 2, label %161
  ]

161:                                              ; preds = %159, %159
  switch i32 %1, label %202 [
    i32 3, label %162
    i32 0, label %162
    i32 5, label %220
    i32 2, label %220
  ]

162:                                              ; preds = %159, %161, %161
  br label %163

163:                                              ; preds = %162, %168
  %164 = phi %struct.pb_async_time_marker_list* [ %166, %168 ], [ %153, %162 ]
  %165 = getelementptr inbounds %struct.pb_async_time_marker_list, %struct.pb_async_time_marker_list* %164, i64 0, i32 3
  %166 = load %struct.pb_async_time_marker_list*, %struct.pb_async_time_marker_list** %165, align 8, !tbaa !57
  %167 = icmp eq %struct.pb_async_time_marker_list* %166, null
  br i1 %167, label %172, label %168

168:                                              ; preds = %163
  %169 = getelementptr inbounds %struct.pb_async_time_marker_list, %struct.pb_async_time_marker_list* %166, i64 0, i32 1
  %170 = load i32, i32* %169, align 8, !tbaa !53
  %171 = icmp eq i32 %170, 8
  br i1 %171, label %172, label %163, !llvm.loop !59

172:                                              ; preds = %163, %168
  %173 = getelementptr inbounds %struct.pb_async_time_marker_list, %struct.pb_async_time_marker_list* %164, i64 0, i32 2
  %174 = bitcast i8** %173 to %struct.ihipEvent_t***
  %175 = load %struct.ihipEvent_t**, %struct.ihipEvent_t*** %174, align 8, !tbaa !56
  %176 = load %struct.ihipEvent_t*, %struct.ihipEvent_t** %175, align 8, !tbaa !9
  %177 = tail call i32 @hipEventQuery(%struct.ihipEvent_t* %176)
  switch i32 %1, label %192 [
    i32 3, label %178
    i32 0, label %178
  ]

178:                                              ; preds = %172, %172
  %179 = icmp eq i32 %177, 0
  br i1 %179, label %187, label %180

180:                                              ; preds = %178
  %181 = getelementptr inbounds %struct.pb_TimerSet, %struct.pb_TimerSet* %0, i64 0, i32 4, i64 7, i32 1
  %182 = getelementptr inbounds %struct.pb_TimerSet, %struct.pb_TimerSet* %0, i64 0, i32 2
  %183 = load i64, i64* %182, align 8, !tbaa !60
  %184 = sub i64 %151, %183
  %185 = load i64, i64* %181, align 8, !tbaa !40
  %186 = add i64 %184, %185
  store i64 %186, i64* %181, align 8, !tbaa !40
  br label %187

187:                                              ; preds = %180, %178
  %188 = load %struct.ihipEvent_t**, %struct.ihipEvent_t*** %174, align 8, !tbaa !56
  %189 = load %struct.ihipEvent_t*, %struct.ihipEvent_t** %188, align 8, !tbaa !9
  %190 = tail call i32 @hipEventSynchronize(%struct.ihipEvent_t* %189)
  %191 = tail call fastcc i64 @_ZL18record_async_timesP11pb_TimerSet(%struct.pb_TimerSet* %0)
  br i1 %179, label %196, label %201

192:                                              ; preds = %172
  %193 = icmp eq i32 %177, 0
  br i1 %193, label %194, label %201

194:                                              ; preds = %192
  %195 = tail call fastcc i64 @_ZL18record_async_timesP11pb_TimerSet(%struct.pb_TimerSet* %0)
  br label %196

196:                                              ; preds = %187, %194
  %197 = phi i64 [ %195, %194 ], [ %191, %187 ]
  %198 = getelementptr inbounds %struct.pb_TimerSet, %struct.pb_TimerSet* %0, i64 0, i32 4, i64 7, i32 1
  %199 = load i64, i64* %198, align 8, !tbaa !34
  %200 = add i64 %199, %197
  store i64 %200, i64* %198, align 8, !tbaa !34
  br label %201

201:                                              ; preds = %196, %143, %192, %187, %155
  switch i32 %1, label %202 [
    i32 0, label %283
    i32 5, label %220
    i32 2, label %220
  ]

202:                                              ; preds = %161, %201
  %203 = zext i32 %1 to i64
  %204 = getelementptr inbounds %struct.pb_TimerSet, %struct.pb_TimerSet* %0, i64 0, i32 4, i64 %203, i32 0
  %205 = load i32, i32* %204, align 8, !tbaa !30
  %206 = icmp eq i32 %205, 0
  br i1 %206, label %210, label %207

207:                                              ; preds = %202
  %208 = load %struct._IO_FILE*, %struct._IO_FILE** @stderr, align 8, !tbaa !9
  %209 = tail call i64 @fwrite(i8* getelementptr inbounds ([43 x i8], [43 x i8]* @.str.3, i64 0, i64 0), i64 42, i64 1, %struct._IO_FILE* %208) #26
  br label %283

210:                                              ; preds = %202
  store i32 1, i32* %204, align 8, !tbaa !30
  %211 = bitcast %struct.timeval* %4 to i8*
  call void @llvm.lifetime.start.p0i8(i64 16, i8* nonnull %211) #25
  %212 = call i32 @gettimeofday(%struct.timeval* nonnull %4, %struct.timezone* null) #25
  %213 = getelementptr inbounds %struct.timeval, %struct.timeval* %4, i64 0, i32 0
  %214 = load i64, i64* %213, align 8, !tbaa !35
  %215 = mul nsw i64 %214, 1000000
  %216 = getelementptr inbounds %struct.timeval, %struct.timeval* %4, i64 0, i32 1
  %217 = load i64, i64* %216, align 8, !tbaa !38
  %218 = add nsw i64 %215, %217
  %219 = getelementptr inbounds %struct.pb_TimerSet, %struct.pb_TimerSet* %0, i64 0, i32 4, i64 %203, i32 2
  store i64 %218, i64* %219, align 8, !tbaa !39
  call void @llvm.lifetime.end.p0i8(i64 16, i8* nonnull %211) #25
  br label %283

220:                                              ; preds = %161, %161, %201, %201
  %221 = load %struct.pb_async_time_marker_list*, %struct.pb_async_time_marker_list** %152, align 8, !tbaa !45
  %222 = icmp eq %struct.pb_async_time_marker_list* %221, null
  br i1 %222, label %227, label %223

223:                                              ; preds = %220
  %224 = getelementptr inbounds %struct.pb_async_time_marker_list, %struct.pb_async_time_marker_list* %221, i64 0, i32 1
  %225 = load i32, i32* %224, align 8, !tbaa !53
  %226 = icmp eq i32 %225, 8
  br i1 %226, label %238, label %250

227:                                              ; preds = %220
  %228 = tail call noalias align 16 dereferenceable_or_null(32) i8* @malloc(i64 32) #25
  %229 = bitcast %struct.pb_async_time_marker_list** %152 to i8**
  store i8* %228, i8** %229, align 8, !tbaa !9
  %230 = tail call noalias align 16 dereferenceable_or_null(8) i8* @malloc(i64 8) #25
  %231 = bitcast i8* %228 to %struct.pb_async_time_marker_list*
  %232 = getelementptr inbounds %struct.pb_async_time_marker_list, %struct.pb_async_time_marker_list* %231, i64 0, i32 2
  store i8* %230, i8** %232, align 16, !tbaa !56
  %233 = bitcast i8* %230 to %struct.ihipEvent_t**
  %234 = tail call i32 @hipEventCreate(%struct.ihipEvent_t** %233)
  %235 = load %struct.pb_async_time_marker_list*, %struct.pb_async_time_marker_list** %152, align 8, !tbaa !9
  %236 = getelementptr inbounds %struct.pb_async_time_marker_list, %struct.pb_async_time_marker_list* %235, i64 0, i32 3
  store %struct.pb_async_time_marker_list* null, %struct.pb_async_time_marker_list** %236, align 8, !tbaa !57
  %237 = load %struct.pb_async_time_marker_list*, %struct.pb_async_time_marker_list** %152, align 8, !tbaa !9
  br label %238

238:                                              ; preds = %223, %227
  %239 = phi %struct.pb_async_time_marker_list* [ %237, %227 ], [ %221, %223 ]
  %240 = getelementptr inbounds %struct.pb_async_time_marker_list, %struct.pb_async_time_marker_list* %239, i64 0, i32 0
  store i8* null, i8** %240, align 8, !tbaa !58
  %241 = load %struct.pb_async_time_marker_list*, %struct.pb_async_time_marker_list** %152, align 8, !tbaa !9
  %242 = getelementptr inbounds %struct.pb_async_time_marker_list, %struct.pb_async_time_marker_list* %241, i64 0, i32 1
  store i32 %1, i32* %242, align 8, !tbaa !53
  %243 = getelementptr inbounds %struct.pb_async_time_marker_list, %struct.pb_async_time_marker_list* %241, i64 0, i32 2
  %244 = bitcast i8** %243 to %struct.ihipEvent_t***
  %245 = load %struct.ihipEvent_t**, %struct.ihipEvent_t*** %244, align 8, !tbaa !56
  %246 = load %struct.ihipEvent_t*, %struct.ihipEvent_t** %245, align 8, !tbaa !9
  %247 = tail call i32 @hipEventRecord(%struct.ihipEvent_t* %246, %struct.ihipStream_t* null)
  %248 = getelementptr inbounds %struct.pb_TimerSet, %struct.pb_TimerSet* %0, i64 0, i32 2
  store i64 %151, i64* %248, align 8, !tbaa !60
  %249 = load i32, i32* %9, align 8, !tbaa !44
  br label %264

250:                                              ; preds = %223
  %251 = load i32, i32* %9, align 8, !tbaa !44
  switch i32 %251, label %252 [
    i32 5, label %264
    i32 2, label %264
  ]

252:                                              ; preds = %250, %257
  %253 = phi %struct.pb_async_time_marker_list* [ %255, %257 ], [ %221, %250 ]
  %254 = getelementptr inbounds %struct.pb_async_time_marker_list, %struct.pb_async_time_marker_list* %253, i64 0, i32 3
  %255 = load %struct.pb_async_time_marker_list*, %struct.pb_async_time_marker_list** %254, align 8, !tbaa !57
  %256 = icmp eq %struct.pb_async_time_marker_list* %255, null
  br i1 %256, label %261, label %257

257:                                              ; preds = %252
  %258 = getelementptr inbounds %struct.pb_async_time_marker_list, %struct.pb_async_time_marker_list* %255, i64 0, i32 1
  %259 = load i32, i32* %258, align 8, !tbaa !53
  %260 = icmp eq i32 %259, 8
  br i1 %260, label %261, label %252, !llvm.loop !59

261:                                              ; preds = %252, %257
  %262 = getelementptr inbounds %struct.pb_async_time_marker_list, %struct.pb_async_time_marker_list* %253, i64 0, i32 0
  store i8* null, i8** %262, align 8, !tbaa !58
  %263 = getelementptr inbounds %struct.pb_async_time_marker_list, %struct.pb_async_time_marker_list* %253, i64 0, i32 1
  store i32 %1, i32* %263, align 8, !tbaa !53
  br label %264

264:                                              ; preds = %250, %250, %261, %238
  %265 = phi i32 [ %251, %250 ], [ %251, %250 ], [ %251, %261 ], [ %249, %238 ]
  switch i32 %265, label %266 [
    i32 5, label %283
    i32 2, label %283
  ]

266:                                              ; preds = %264
  %267 = getelementptr inbounds %struct.pb_TimerSet, %struct.pb_TimerSet* %0, i64 0, i32 4, i64 4, i32 0
  %268 = load i32, i32* %267, align 8, !tbaa !30
  %269 = icmp eq i32 %268, 0
  br i1 %269, label %273, label %270

270:                                              ; preds = %266
  %271 = load %struct._IO_FILE*, %struct._IO_FILE** @stderr, align 8, !tbaa !9
  %272 = tail call i64 @fwrite(i8* getelementptr inbounds ([43 x i8], [43 x i8]* @.str.3, i64 0, i64 0), i64 42, i64 1, %struct._IO_FILE* %271) #26
  br label %283

273:                                              ; preds = %266
  store i32 1, i32* %267, align 8, !tbaa !30
  %274 = bitcast %struct.timeval* %3 to i8*
  call void @llvm.lifetime.start.p0i8(i64 16, i8* nonnull %274) #25
  %275 = call i32 @gettimeofday(%struct.timeval* nonnull %3, %struct.timezone* null) #25
  %276 = getelementptr inbounds %struct.timeval, %struct.timeval* %3, i64 0, i32 0
  %277 = load i64, i64* %276, align 8, !tbaa !35
  %278 = mul nsw i64 %277, 1000000
  %279 = getelementptr inbounds %struct.timeval, %struct.timeval* %3, i64 0, i32 1
  %280 = load i64, i64* %279, align 8, !tbaa !38
  %281 = add nsw i64 %278, %280
  %282 = getelementptr inbounds %struct.pb_TimerSet, %struct.pb_TimerSet* %0, i64 0, i32 4, i64 4, i32 2
  store i64 %281, i64* %282, align 8, !tbaa !39
  call void @llvm.lifetime.end.p0i8(i64 16, i8* nonnull %274) #25
  br label %283

283:                                              ; preds = %201, %264, %264, %273, %270, %210, %207
  store i32 %1, i32* %9, align 8, !tbaa !44
  ret void
}

declare dso_local i32 @hipEventQuery(%struct.ihipEvent_t*) local_unnamed_addr #12

declare dso_local i32 @hipEventSynchronize(%struct.ihipEvent_t*) local_unnamed_addr #12

; Function Attrs: mustprogress uwtable
define internal fastcc i64 @_ZL18record_async_timesP11pb_TimerSet(%struct.pb_TimerSet* nocapture %0) unnamed_addr #11 {
  %2 = alloca float, align 4
  %3 = getelementptr %struct.pb_TimerSet, %struct.pb_TimerSet* %0, i64 0, i32 1
  %4 = load %struct.pb_async_time_marker_list*, %struct.pb_async_time_marker_list** %3, align 8, !tbaa !45
  %5 = icmp eq %struct.pb_async_time_marker_list* %4, null
  br i1 %5, label %81, label %6

6:                                                ; preds = %1
  %7 = getelementptr inbounds %struct.pb_async_time_marker_list, %struct.pb_async_time_marker_list* %4, i64 0, i32 1
  %8 = load i32, i32* %7, align 8, !tbaa !53
  %9 = icmp eq i32 %8, 8
  br i1 %9, label %21, label %10

10:                                               ; preds = %6, %15
  %11 = phi %struct.pb_async_time_marker_list* [ %13, %15 ], [ %4, %6 ]
  %12 = getelementptr inbounds %struct.pb_async_time_marker_list, %struct.pb_async_time_marker_list* %11, i64 0, i32 3
  %13 = load %struct.pb_async_time_marker_list*, %struct.pb_async_time_marker_list** %12, align 8, !tbaa !57
  %14 = icmp eq %struct.pb_async_time_marker_list* %13, null
  br i1 %14, label %19, label %15

15:                                               ; preds = %10
  %16 = getelementptr inbounds %struct.pb_async_time_marker_list, %struct.pb_async_time_marker_list* %13, i64 0, i32 1
  %17 = load i32, i32* %16, align 8, !tbaa !53
  %18 = icmp eq i32 %17, 8
  br i1 %18, label %19, label %10, !llvm.loop !59

19:                                               ; preds = %10, %15
  %20 = icmp eq %struct.pb_async_time_marker_list* %4, %11
  br i1 %20, label %75, label %21

21:                                               ; preds = %6, %19
  %22 = phi %struct.pb_async_time_marker_list* [ %11, %19 ], [ null, %6 ]
  %23 = bitcast float* %2 to i8*
  br label %24

24:                                               ; preds = %21, %71
  %25 = phi %struct.pb_async_time_marker_list* [ %73, %71 ], [ %4, %21 ]
  %26 = phi i64 [ %72, %71 ], [ 0, %21 ]
  call void @llvm.lifetime.start.p0i8(i64 4, i8* nonnull %23) #25
  %27 = getelementptr inbounds %struct.pb_async_time_marker_list, %struct.pb_async_time_marker_list* %25, i64 0, i32 2
  %28 = bitcast i8** %27 to %struct.ihipEvent_t***
  %29 = load %struct.ihipEvent_t**, %struct.ihipEvent_t*** %28, align 8, !tbaa !56
  %30 = load %struct.ihipEvent_t*, %struct.ihipEvent_t** %29, align 8, !tbaa !9
  %31 = getelementptr inbounds %struct.pb_async_time_marker_list, %struct.pb_async_time_marker_list* %25, i64 0, i32 3
  %32 = load %struct.pb_async_time_marker_list*, %struct.pb_async_time_marker_list** %31, align 8, !tbaa !57
  %33 = getelementptr inbounds %struct.pb_async_time_marker_list, %struct.pb_async_time_marker_list* %32, i64 0, i32 2
  %34 = bitcast i8** %33 to %struct.ihipEvent_t***
  %35 = load %struct.ihipEvent_t**, %struct.ihipEvent_t*** %34, align 8, !tbaa !56
  %36 = load %struct.ihipEvent_t*, %struct.ihipEvent_t** %35, align 8, !tbaa !9
  %37 = call i32 @hipEventElapsedTime(float* nonnull %2, %struct.ihipEvent_t* %30, %struct.ihipEvent_t* %36)
  %38 = load float, float* %2, align 4, !tbaa !61
  %39 = fpext float %38 to double
  %40 = fmul contract double %39, 1.000000e+03
  %41 = fptoui double %40 to i64
  %42 = getelementptr inbounds %struct.pb_async_time_marker_list, %struct.pb_async_time_marker_list* %25, i64 0, i32 1
  %43 = load i32, i32* %42, align 8, !tbaa !53
  %44 = zext i32 %43 to i64
  %45 = getelementptr inbounds %struct.pb_TimerSet, %struct.pb_TimerSet* %0, i64 0, i32 4, i64 %44, i32 1
  %46 = load i64, i64* %45, align 8, !tbaa !34
  %47 = add i64 %46, %41
  store i64 %47, i64* %45, align 8, !tbaa !34
  %48 = getelementptr inbounds %struct.pb_async_time_marker_list, %struct.pb_async_time_marker_list* %25, i64 0, i32 0
  %49 = load i8*, i8** %48, align 8, !tbaa !58
  %50 = icmp eq i8* %49, null
  br i1 %50, label %71, label %51

51:                                               ; preds = %24
  %52 = getelementptr inbounds %struct.pb_TimerSet, %struct.pb_TimerSet* %0, i64 0, i32 5, i64 %44
  %53 = load %struct.pb_SubTimerList*, %struct.pb_SubTimerList** %52, align 8, !tbaa !9
  %54 = getelementptr inbounds %struct.pb_SubTimerList, %struct.pb_SubTimerList* %53, i64 0, i32 1
  %55 = load %struct.pb_SubTimer*, %struct.pb_SubTimer** %54, align 8, !tbaa !9
  %56 = icmp eq %struct.pb_SubTimer* %55, null
  br i1 %56, label %71, label %57

57:                                               ; preds = %51, %67
  %58 = phi %struct.pb_SubTimer* [ %69, %67 ], [ %55, %51 ]
  %59 = getelementptr inbounds %struct.pb_SubTimer, %struct.pb_SubTimer* %58, i64 0, i32 0
  %60 = load i8*, i8** %59, align 8, !tbaa !46
  %61 = call i32 @strcmp(i8* noundef nonnull dereferenceable(1) %60, i8* noundef nonnull dereferenceable(1) %49) #28
  %62 = icmp eq i32 %61, 0
  br i1 %62, label %63, label %67

63:                                               ; preds = %57
  %64 = getelementptr inbounds %struct.pb_SubTimer, %struct.pb_SubTimer* %58, i64 0, i32 1, i32 1
  %65 = load i64, i64* %64, align 8, !tbaa !63
  %66 = add i64 %65, %41
  store i64 %66, i64* %64, align 8, !tbaa !63
  br label %71

67:                                               ; preds = %57
  %68 = getelementptr inbounds %struct.pb_SubTimer, %struct.pb_SubTimer* %58, i64 0, i32 2
  %69 = load %struct.pb_SubTimer*, %struct.pb_SubTimer** %68, align 8, !tbaa !9
  %70 = icmp eq %struct.pb_SubTimer* %69, null
  br i1 %70, label %71, label %57, !llvm.loop !64

71:                                               ; preds = %67, %51, %63, %24
  %72 = add i64 %26, %41
  store i32 8, i32* %42, align 8, !tbaa !53
  call void @llvm.lifetime.end.p0i8(i64 4, i8* nonnull %23) #25
  %73 = load %struct.pb_async_time_marker_list*, %struct.pb_async_time_marker_list** %31, align 8, !tbaa !9
  %74 = icmp eq %struct.pb_async_time_marker_list* %73, %22
  br i1 %74, label %75, label %24, !llvm.loop !65

75:                                               ; preds = %71, %19
  %76 = phi i64 [ 0, %19 ], [ %72, %71 ]
  %77 = phi %struct.pb_async_time_marker_list* [ %4, %19 ], [ %22, %71 ]
  %78 = icmp eq %struct.pb_async_time_marker_list* %77, null
  br i1 %78, label %81, label %79

79:                                               ; preds = %75
  %80 = getelementptr inbounds %struct.pb_async_time_marker_list, %struct.pb_async_time_marker_list* %77, i64 0, i32 1
  store i32 8, i32* %80, align 8, !tbaa !53
  br label %81

81:                                               ; preds = %1, %79, %75
  %82 = phi i64 [ %76, %79 ], [ %76, %75 ], [ 0, %1 ]
  ret i64 %82
}

; Function Attrs: mustprogress uwtable
define dso_local void @pb_SwitchToSubTimer(%struct.pb_TimerSet* %0, i8* %1, i32 %2) local_unnamed_addr #11 {
  %4 = alloca %struct.timeval, align 8
  %5 = alloca %struct.timeval, align 8
  %6 = alloca %struct.timeval, align 8
  %7 = alloca %struct.timeval, align 8
  %8 = alloca %struct.timeval, align 8
  %9 = alloca %struct.timeval, align 8
  %10 = alloca %struct.timeval, align 8
  %11 = getelementptr inbounds %struct.pb_TimerSet, %struct.pb_TimerSet* %0, i64 0, i32 0
  %12 = load i32, i32* %11, align 8, !tbaa !44
  %13 = zext i32 %12 to i64
  %14 = getelementptr inbounds %struct.pb_TimerSet, %struct.pb_TimerSet* %0, i64 0, i32 5, i64 %13
  %15 = load %struct.pb_SubTimerList*, %struct.pb_SubTimerList** %14, align 8, !tbaa !9
  %16 = icmp eq %struct.pb_SubTimerList* %15, null
  br i1 %16, label %20, label %17

17:                                               ; preds = %3
  %18 = getelementptr inbounds %struct.pb_SubTimerList, %struct.pb_SubTimerList* %15, i64 0, i32 0
  %19 = load %struct.pb_SubTimer*, %struct.pb_SubTimer** %18, align 8, !tbaa !52
  br label %20

20:                                               ; preds = %3, %17
  %21 = phi %struct.pb_SubTimer* [ %19, %17 ], [ null, %3 ]
  switch i32 %12, label %22 [
    i32 0, label %143
    i32 5, label %74
    i32 2, label %74
  ]

22:                                               ; preds = %20
  %23 = icmp eq i32 %12, %2
  %24 = icmp eq %struct.pb_SubTimer* %21, null
  br i1 %23, label %51, label %25

25:                                               ; preds = %22
  br i1 %24, label %29, label %26

26:                                               ; preds = %25
  %27 = getelementptr inbounds %struct.pb_TimerSet, %struct.pb_TimerSet* %0, i64 0, i32 4, i64 %13
  %28 = getelementptr inbounds %struct.pb_SubTimer, %struct.pb_SubTimer* %21, i64 0, i32 1
  tail call void @_Z23pb_StopTimerAndSubTimerP8pb_TimerS0_(%struct.pb_Timer* nonnull %27, %struct.pb_Timer* nonnull %28)
  br label %143

29:                                               ; preds = %25
  %30 = getelementptr inbounds %struct.pb_TimerSet, %struct.pb_TimerSet* %0, i64 0, i32 4, i64 %13, i32 0
  %31 = load i32, i32* %30, align 8, !tbaa !30
  %32 = icmp eq i32 %31, 1
  br i1 %32, label %36, label %33

33:                                               ; preds = %29
  %34 = load %struct._IO_FILE*, %struct._IO_FILE** @stderr, align 8, !tbaa !9
  %35 = tail call i64 @fwrite(i8* getelementptr inbounds ([42 x i8], [42 x i8]* @.str.7, i64 0, i64 0), i64 41, i64 1, %struct._IO_FILE* %34) #26
  br label %143

36:                                               ; preds = %29
  store i32 0, i32* %30, align 8, !tbaa !30
  %37 = bitcast %struct.timeval* %10 to i8*
  call void @llvm.lifetime.start.p0i8(i64 16, i8* nonnull %37) #25
  %38 = call i32 @gettimeofday(%struct.timeval* nonnull %10, %struct.timezone* null) #25
  %39 = getelementptr inbounds %struct.timeval, %struct.timeval* %10, i64 0, i32 0
  %40 = load i64, i64* %39, align 8, !tbaa !35
  %41 = mul nsw i64 %40, 1000000
  %42 = getelementptr inbounds %struct.timeval, %struct.timeval* %10, i64 0, i32 1
  %43 = load i64, i64* %42, align 8, !tbaa !38
  %44 = add nsw i64 %41, %43
  call void @llvm.lifetime.end.p0i8(i64 16, i8* nonnull %37) #25
  %45 = getelementptr inbounds %struct.pb_TimerSet, %struct.pb_TimerSet* %0, i64 0, i32 4, i64 %13, i32 1
  %46 = getelementptr inbounds %struct.pb_TimerSet, %struct.pb_TimerSet* %0, i64 0, i32 4, i64 %13, i32 2
  %47 = load i64, i64* %46, align 8, !tbaa !39
  %48 = sub i64 %44, %47
  %49 = load i64, i64* %45, align 8, !tbaa !40
  %50 = add i64 %48, %49
  store i64 %50, i64* %45, align 8, !tbaa !40
  store i64 %44, i64* %46, align 8, !tbaa !39
  br label %143

51:                                               ; preds = %22
  br i1 %24, label %143, label %52

52:                                               ; preds = %51
  %53 = getelementptr inbounds %struct.pb_SubTimer, %struct.pb_SubTimer* %21, i64 0, i32 1, i32 0
  %54 = load i32, i32* %53, align 8, !tbaa !30
  %55 = icmp eq i32 %54, 1
  br i1 %55, label %59, label %56

56:                                               ; preds = %52
  %57 = load %struct._IO_FILE*, %struct._IO_FILE** @stderr, align 8, !tbaa !9
  %58 = tail call i64 @fwrite(i8* getelementptr inbounds ([42 x i8], [42 x i8]* @.str.7, i64 0, i64 0), i64 41, i64 1, %struct._IO_FILE* %57) #26
  br label %143

59:                                               ; preds = %52
  store i32 0, i32* %53, align 8, !tbaa !30
  %60 = bitcast %struct.timeval* %9 to i8*
  call void @llvm.lifetime.start.p0i8(i64 16, i8* nonnull %60) #25
  %61 = call i32 @gettimeofday(%struct.timeval* nonnull %9, %struct.timezone* null) #25
  %62 = getelementptr inbounds %struct.timeval, %struct.timeval* %9, i64 0, i32 0
  %63 = load i64, i64* %62, align 8, !tbaa !35
  %64 = mul nsw i64 %63, 1000000
  %65 = getelementptr inbounds %struct.timeval, %struct.timeval* %9, i64 0, i32 1
  %66 = load i64, i64* %65, align 8, !tbaa !38
  %67 = add nsw i64 %64, %66
  call void @llvm.lifetime.end.p0i8(i64 16, i8* nonnull %60) #25
  %68 = getelementptr inbounds %struct.pb_SubTimer, %struct.pb_SubTimer* %21, i64 0, i32 1, i32 1
  %69 = getelementptr inbounds %struct.pb_SubTimer, %struct.pb_SubTimer* %21, i64 0, i32 1, i32 2
  %70 = load i64, i64* %69, align 8, !tbaa !39
  %71 = sub i64 %67, %70
  %72 = load i64, i64* %68, align 8, !tbaa !40
  %73 = add i64 %71, %72
  store i64 %73, i64* %68, align 8, !tbaa !40
  store i64 %67, i64* %69, align 8, !tbaa !39
  br label %143

74:                                               ; preds = %20, %20
  %75 = getelementptr inbounds %struct.pb_TimerSet, %struct.pb_TimerSet* %0, i64 0, i32 1
  %76 = load %struct.pb_async_time_marker_list*, %struct.pb_async_time_marker_list** %75, align 8, !tbaa !9
  %77 = icmp eq %struct.pb_async_time_marker_list* %76, null
  br i1 %77, label %93, label %78

78:                                               ; preds = %74
  %79 = getelementptr inbounds %struct.pb_async_time_marker_list, %struct.pb_async_time_marker_list* %76, i64 0, i32 1
  %80 = load i32, i32* %79, align 8, !tbaa !53
  %81 = icmp eq i32 %80, 8
  br i1 %81, label %110, label %82

82:                                               ; preds = %78, %87
  %83 = phi %struct.pb_async_time_marker_list* [ %85, %87 ], [ %76, %78 ]
  %84 = getelementptr inbounds %struct.pb_async_time_marker_list, %struct.pb_async_time_marker_list* %83, i64 0, i32 3
  %85 = load %struct.pb_async_time_marker_list*, %struct.pb_async_time_marker_list** %84, align 8, !tbaa !9
  %86 = icmp eq %struct.pb_async_time_marker_list* %85, null
  br i1 %86, label %91, label %87, !llvm.loop !66

87:                                               ; preds = %82
  %88 = getelementptr inbounds %struct.pb_async_time_marker_list, %struct.pb_async_time_marker_list* %85, i64 0, i32 1
  %89 = load i32, i32* %88, align 8, !tbaa !53
  %90 = icmp eq i32 %89, 8
  br i1 %90, label %108, label %82, !llvm.loop !66

91:                                               ; preds = %82
  %92 = getelementptr inbounds %struct.pb_async_time_marker_list, %struct.pb_async_time_marker_list* %83, i64 0, i32 3
  br label %93

93:                                               ; preds = %91, %74
  %94 = phi %struct.pb_async_time_marker_list** [ %75, %74 ], [ %92, %91 ]
  %95 = tail call noalias align 16 dereferenceable_or_null(32) i8* @malloc(i64 32) #25
  %96 = bitcast %struct.pb_async_time_marker_list** %94 to i8**
  store i8* %95, i8** %96, align 8, !tbaa !9
  %97 = tail call noalias align 16 dereferenceable_or_null(8) i8* @malloc(i64 8) #25
  %98 = bitcast i8* %95 to %struct.pb_async_time_marker_list*
  %99 = getelementptr inbounds %struct.pb_async_time_marker_list, %struct.pb_async_time_marker_list* %98, i64 0, i32 2
  store i8* %97, i8** %99, align 16, !tbaa !56
  %100 = load %struct.pb_async_time_marker_list*, %struct.pb_async_time_marker_list** %94, align 8, !tbaa !9
  %101 = getelementptr inbounds %struct.pb_async_time_marker_list, %struct.pb_async_time_marker_list* %100, i64 0, i32 2
  %102 = bitcast i8** %101 to %struct.ihipEvent_t***
  %103 = load %struct.ihipEvent_t**, %struct.ihipEvent_t*** %102, align 8, !tbaa !56
  %104 = tail call i32 @hipEventCreate(%struct.ihipEvent_t** %103)
  %105 = load %struct.pb_async_time_marker_list*, %struct.pb_async_time_marker_list** %94, align 8, !tbaa !9
  %106 = getelementptr inbounds %struct.pb_async_time_marker_list, %struct.pb_async_time_marker_list* %105, i64 0, i32 3
  store %struct.pb_async_time_marker_list* null, %struct.pb_async_time_marker_list** %106, align 8, !tbaa !57
  %107 = load %struct.pb_async_time_marker_list*, %struct.pb_async_time_marker_list** %94, align 8, !tbaa !9
  br label %110

108:                                              ; preds = %87
  %109 = getelementptr inbounds %struct.pb_async_time_marker_list, %struct.pb_async_time_marker_list* %83, i64 0, i32 3
  br label %110

110:                                              ; preds = %108, %78, %93
  %111 = phi %struct.pb_async_time_marker_list* [ %107, %93 ], [ %76, %78 ], [ %85, %108 ]
  %112 = phi %struct.pb_async_time_marker_list** [ %94, %93 ], [ %75, %78 ], [ %109, %108 ]
  %113 = getelementptr inbounds %struct.pb_async_time_marker_list, %struct.pb_async_time_marker_list* %111, i64 0, i32 0
  store i8* %1, i8** %113, align 8, !tbaa !58
  %114 = load %struct.pb_async_time_marker_list*, %struct.pb_async_time_marker_list** %112, align 8, !tbaa !9
  %115 = getelementptr inbounds %struct.pb_async_time_marker_list, %struct.pb_async_time_marker_list* %114, i64 0, i32 1
  store i32 %2, i32* %115, align 8, !tbaa !53
  %116 = getelementptr inbounds %struct.pb_async_time_marker_list, %struct.pb_async_time_marker_list* %114, i64 0, i32 2
  %117 = bitcast i8** %116 to %struct.ihipEvent_t***
  %118 = load %struct.ihipEvent_t**, %struct.ihipEvent_t*** %117, align 8, !tbaa !56
  %119 = load %struct.ihipEvent_t*, %struct.ihipEvent_t** %118, align 8, !tbaa !9
  %120 = tail call i32 @hipEventRecord(%struct.ihipEvent_t* %119, %struct.ihipStream_t* null)
  switch i32 %2, label %121 [
    i32 5, label %143
    i32 2, label %143
  ]

121:                                              ; preds = %110
  %122 = getelementptr inbounds %struct.pb_TimerSet, %struct.pb_TimerSet* %0, i64 0, i32 4, i64 4, i32 0
  %123 = load i32, i32* %122, align 8, !tbaa !30
  %124 = icmp eq i32 %123, 1
  br i1 %124, label %128, label %125

125:                                              ; preds = %121
  %126 = load %struct._IO_FILE*, %struct._IO_FILE** @stderr, align 8, !tbaa !9
  %127 = tail call i64 @fwrite(i8* getelementptr inbounds ([42 x i8], [42 x i8]* @.str.7, i64 0, i64 0), i64 41, i64 1, %struct._IO_FILE* %126) #26
  br label %143

128:                                              ; preds = %121
  store i32 0, i32* %122, align 8, !tbaa !30
  %129 = bitcast %struct.timeval* %8 to i8*
  call void @llvm.lifetime.start.p0i8(i64 16, i8* nonnull %129) #25
  %130 = call i32 @gettimeofday(%struct.timeval* nonnull %8, %struct.timezone* null) #25
  %131 = getelementptr inbounds %struct.timeval, %struct.timeval* %8, i64 0, i32 0
  %132 = load i64, i64* %131, align 8, !tbaa !35
  %133 = mul nsw i64 %132, 1000000
  %134 = getelementptr inbounds %struct.timeval, %struct.timeval* %8, i64 0, i32 1
  %135 = load i64, i64* %134, align 8, !tbaa !38
  %136 = add nsw i64 %133, %135
  call void @llvm.lifetime.end.p0i8(i64 16, i8* nonnull %129) #25
  %137 = getelementptr inbounds %struct.pb_TimerSet, %struct.pb_TimerSet* %0, i64 0, i32 4, i64 4, i32 1
  %138 = getelementptr inbounds %struct.pb_TimerSet, %struct.pb_TimerSet* %0, i64 0, i32 4, i64 4, i32 2
  %139 = load i64, i64* %138, align 8, !tbaa !39
  %140 = sub i64 %136, %139
  %141 = load i64, i64* %137, align 8, !tbaa !40
  %142 = add i64 %140, %141
  store i64 %142, i64* %137, align 8, !tbaa !40
  store i64 %136, i64* %138, align 8, !tbaa !39
  br label %143

143:                                              ; preds = %20, %110, %110, %128, %125, %59, %56, %36, %33, %51, %26
  %144 = bitcast %struct.timeval* %7 to i8*
  call void @llvm.lifetime.start.p0i8(i64 16, i8* nonnull %144) #25
  %145 = call i32 @gettimeofday(%struct.timeval* nonnull %7, %struct.timezone* null) #25
  %146 = getelementptr inbounds %struct.timeval, %struct.timeval* %7, i64 0, i32 0
  %147 = load i64, i64* %146, align 8, !tbaa !35
  %148 = mul nsw i64 %147, 1000000
  %149 = getelementptr inbounds %struct.timeval, %struct.timeval* %7, i64 0, i32 1
  %150 = load i64, i64* %149, align 8, !tbaa !38
  %151 = add nsw i64 %148, %150
  call void @llvm.lifetime.end.p0i8(i64 16, i8* nonnull %144) #25
  %152 = getelementptr %struct.pb_TimerSet, %struct.pb_TimerSet* %0, i64 0, i32 1
  %153 = load %struct.pb_async_time_marker_list*, %struct.pb_async_time_marker_list** %152, align 8, !tbaa !45
  %154 = icmp eq %struct.pb_async_time_marker_list* %153, null
  br i1 %154, label %201, label %155

155:                                              ; preds = %143
  %156 = getelementptr inbounds %struct.pb_async_time_marker_list, %struct.pb_async_time_marker_list* %153, i64 0, i32 1
  %157 = load i32, i32* %156, align 8, !tbaa !53
  %158 = icmp eq i32 %157, 8
  br i1 %158, label %201, label %159

159:                                              ; preds = %155
  %160 = load i32, i32* %11, align 8, !tbaa !44
  switch i32 %160, label %162 [
    i32 5, label %161
    i32 2, label %161
  ]

161:                                              ; preds = %159, %159
  switch i32 %2, label %201 [
    i32 3, label %162
    i32 0, label %162
  ]

162:                                              ; preds = %159, %161, %161
  br label %163

163:                                              ; preds = %162, %168
  %164 = phi %struct.pb_async_time_marker_list* [ %166, %168 ], [ %153, %162 ]
  %165 = getelementptr inbounds %struct.pb_async_time_marker_list, %struct.pb_async_time_marker_list* %164, i64 0, i32 3
  %166 = load %struct.pb_async_time_marker_list*, %struct.pb_async_time_marker_list** %165, align 8, !tbaa !57
  %167 = icmp eq %struct.pb_async_time_marker_list* %166, null
  br i1 %167, label %172, label %168

168:                                              ; preds = %163
  %169 = getelementptr inbounds %struct.pb_async_time_marker_list, %struct.pb_async_time_marker_list* %166, i64 0, i32 1
  %170 = load i32, i32* %169, align 8, !tbaa !53
  %171 = icmp eq i32 %170, 8
  br i1 %171, label %172, label %163, !llvm.loop !59

172:                                              ; preds = %163, %168
  %173 = getelementptr inbounds %struct.pb_async_time_marker_list, %struct.pb_async_time_marker_list* %164, i64 0, i32 2
  %174 = bitcast i8** %173 to %struct.ihipEvent_t***
  %175 = load %struct.ihipEvent_t**, %struct.ihipEvent_t*** %174, align 8, !tbaa !56
  %176 = load %struct.ihipEvent_t*, %struct.ihipEvent_t** %175, align 8, !tbaa !9
  %177 = tail call i32 @hipEventQuery(%struct.ihipEvent_t* %176)
  switch i32 %2, label %192 [
    i32 3, label %178
    i32 0, label %178
  ]

178:                                              ; preds = %172, %172
  %179 = icmp eq i32 %177, 0
  br i1 %179, label %187, label %180

180:                                              ; preds = %178
  %181 = getelementptr inbounds %struct.pb_TimerSet, %struct.pb_TimerSet* %0, i64 0, i32 4, i64 7, i32 1
  %182 = getelementptr inbounds %struct.pb_TimerSet, %struct.pb_TimerSet* %0, i64 0, i32 2
  %183 = load i64, i64* %182, align 8, !tbaa !60
  %184 = sub i64 %151, %183
  %185 = load i64, i64* %181, align 8, !tbaa !40
  %186 = add i64 %184, %185
  store i64 %186, i64* %181, align 8, !tbaa !40
  br label %187

187:                                              ; preds = %180, %178
  %188 = load %struct.ihipEvent_t**, %struct.ihipEvent_t*** %174, align 8, !tbaa !56
  %189 = load %struct.ihipEvent_t*, %struct.ihipEvent_t** %188, align 8, !tbaa !9
  %190 = tail call i32 @hipEventSynchronize(%struct.ihipEvent_t* %189)
  %191 = tail call fastcc i64 @_ZL18record_async_timesP11pb_TimerSet(%struct.pb_TimerSet* %0)
  br i1 %179, label %196, label %201

192:                                              ; preds = %172
  %193 = icmp eq i32 %177, 0
  br i1 %193, label %194, label %201

194:                                              ; preds = %192
  %195 = tail call fastcc i64 @_ZL18record_async_timesP11pb_TimerSet(%struct.pb_TimerSet* %0)
  br label %196

196:                                              ; preds = %187, %194
  %197 = phi i64 [ %195, %194 ], [ %191, %187 ]
  %198 = getelementptr inbounds %struct.pb_TimerSet, %struct.pb_TimerSet* %0, i64 0, i32 4, i64 7, i32 1
  %199 = load i64, i64* %198, align 8, !tbaa !34
  %200 = add i64 %199, %197
  store i64 %200, i64* %198, align 8, !tbaa !34
  br label %201

201:                                              ; preds = %196, %161, %143, %192, %187, %155
  %202 = zext i32 %2 to i64
  %203 = getelementptr inbounds %struct.pb_TimerSet, %struct.pb_TimerSet* %0, i64 0, i32 5, i64 %202
  %204 = load %struct.pb_SubTimerList*, %struct.pb_SubTimerList** %203, align 8, !tbaa !9
  %205 = icmp eq i8* %1, null
  br i1 %205, label %220, label %206

206:                                              ; preds = %201
  %207 = getelementptr inbounds %struct.pb_SubTimerList, %struct.pb_SubTimerList* %204, i64 0, i32 1
  %208 = load %struct.pb_SubTimer*, %struct.pb_SubTimer** %207, align 8, !tbaa !9
  %209 = icmp eq %struct.pb_SubTimer* %208, null
  br i1 %209, label %220, label %210

210:                                              ; preds = %206, %216
  %211 = phi %struct.pb_SubTimer* [ %218, %216 ], [ %208, %206 ]
  %212 = getelementptr inbounds %struct.pb_SubTimer, %struct.pb_SubTimer* %211, i64 0, i32 0
  %213 = load i8*, i8** %212, align 8, !tbaa !46
  %214 = tail call i32 @strcmp(i8* noundef nonnull dereferenceable(1) %213, i8* noundef nonnull %1) #28
  %215 = icmp eq i32 %214, 0
  br i1 %215, label %220, label %216

216:                                              ; preds = %210
  %217 = getelementptr inbounds %struct.pb_SubTimer, %struct.pb_SubTimer* %211, i64 0, i32 2
  %218 = load %struct.pb_SubTimer*, %struct.pb_SubTimer** %217, align 8, !tbaa !9
  %219 = icmp eq %struct.pb_SubTimer* %218, null
  br i1 %219, label %220, label %210, !llvm.loop !67

220:                                              ; preds = %210, %216, %206, %201
  %221 = phi %struct.pb_SubTimer* [ null, %201 ], [ null, %206 ], [ %211, %210 ], [ null, %216 ]
  switch i32 %2, label %222 [
    i32 0, label %336
    i32 5, label %269
    i32 2, label %269
  ]

222:                                              ; preds = %220
  %223 = icmp eq %struct.pb_SubTimerList* %204, null
  br i1 %223, label %226, label %224

224:                                              ; preds = %222
  %225 = getelementptr inbounds %struct.pb_SubTimerList, %struct.pb_SubTimerList* %204, i64 0, i32 0
  store %struct.pb_SubTimer* %221, %struct.pb_SubTimer** %225, align 8, !tbaa !52
  br label %226

226:                                              ; preds = %224, %222
  %227 = load i32, i32* %11, align 8, !tbaa !44
  %228 = icmp ne i32 %227, %2
  %229 = icmp ne %struct.pb_SubTimer* %221, null
  %230 = select i1 %228, i1 %229, i1 false
  br i1 %230, label %231, label %234

231:                                              ; preds = %226
  %232 = getelementptr inbounds %struct.pb_TimerSet, %struct.pb_TimerSet* %0, i64 0, i32 4, i64 %202
  %233 = getelementptr inbounds %struct.pb_SubTimer, %struct.pb_SubTimer* %221, i64 0, i32 1
  tail call void @_Z24pb_StartTimerAndSubTimerP8pb_TimerS0_(%struct.pb_Timer* nonnull %232, %struct.pb_Timer* nonnull %233)
  br label %336

234:                                              ; preds = %226
  br i1 %229, label %235, label %252

235:                                              ; preds = %234
  %236 = getelementptr inbounds %struct.pb_SubTimer, %struct.pb_SubTimer* %221, i64 0, i32 1, i32 0
  %237 = load i32, i32* %236, align 8, !tbaa !30
  %238 = icmp eq i32 %237, 0
  br i1 %238, label %242, label %239

239:                                              ; preds = %235
  %240 = load %struct._IO_FILE*, %struct._IO_FILE** @stderr, align 8, !tbaa !9
  %241 = tail call i64 @fwrite(i8* getelementptr inbounds ([43 x i8], [43 x i8]* @.str.3, i64 0, i64 0), i64 42, i64 1, %struct._IO_FILE* %240) #26
  br label %336

242:                                              ; preds = %235
  store i32 1, i32* %236, align 8, !tbaa !30
  %243 = bitcast %struct.timeval* %6 to i8*
  call void @llvm.lifetime.start.p0i8(i64 16, i8* nonnull %243) #25
  %244 = call i32 @gettimeofday(%struct.timeval* nonnull %6, %struct.timezone* null) #25
  %245 = getelementptr inbounds %struct.timeval, %struct.timeval* %6, i64 0, i32 0
  %246 = load i64, i64* %245, align 8, !tbaa !35
  %247 = mul nsw i64 %246, 1000000
  %248 = getelementptr inbounds %struct.timeval, %struct.timeval* %6, i64 0, i32 1
  %249 = load i64, i64* %248, align 8, !tbaa !38
  %250 = add nsw i64 %247, %249
  %251 = getelementptr inbounds %struct.pb_SubTimer, %struct.pb_SubTimer* %221, i64 0, i32 1, i32 2
  store i64 %250, i64* %251, align 8, !tbaa !39
  call void @llvm.lifetime.end.p0i8(i64 16, i8* nonnull %243) #25
  br label %336

252:                                              ; preds = %234
  %253 = getelementptr inbounds %struct.pb_TimerSet, %struct.pb_TimerSet* %0, i64 0, i32 4, i64 %202, i32 0
  %254 = load i32, i32* %253, align 8, !tbaa !30
  %255 = icmp eq i32 %254, 0
  br i1 %255, label %259, label %256

256:                                              ; preds = %252
  %257 = load %struct._IO_FILE*, %struct._IO_FILE** @stderr, align 8, !tbaa !9
  %258 = tail call i64 @fwrite(i8* getelementptr inbounds ([43 x i8], [43 x i8]* @.str.3, i64 0, i64 0), i64 42, i64 1, %struct._IO_FILE* %257) #26
  br label %336

259:                                              ; preds = %252
  store i32 1, i32* %253, align 8, !tbaa !30
  %260 = bitcast %struct.timeval* %5 to i8*
  call void @llvm.lifetime.start.p0i8(i64 16, i8* nonnull %260) #25
  %261 = call i32 @gettimeofday(%struct.timeval* nonnull %5, %struct.timezone* null) #25
  %262 = getelementptr inbounds %struct.timeval, %struct.timeval* %5, i64 0, i32 0
  %263 = load i64, i64* %262, align 8, !tbaa !35
  %264 = mul nsw i64 %263, 1000000
  %265 = getelementptr inbounds %struct.timeval, %struct.timeval* %5, i64 0, i32 1
  %266 = load i64, i64* %265, align 8, !tbaa !38
  %267 = add nsw i64 %264, %266
  %268 = getelementptr inbounds %struct.pb_TimerSet, %struct.pb_TimerSet* %0, i64 0, i32 4, i64 %202, i32 2
  store i64 %267, i64* %268, align 8, !tbaa !39
  call void @llvm.lifetime.end.p0i8(i64 16, i8* nonnull %260) #25
  br label %336

269:                                              ; preds = %220, %220
  %270 = icmp eq %struct.pb_SubTimerList* %204, null
  br i1 %270, label %273, label %271

271:                                              ; preds = %269
  %272 = getelementptr inbounds %struct.pb_SubTimerList, %struct.pb_SubTimerList* %204, i64 0, i32 0
  store %struct.pb_SubTimer* %221, %struct.pb_SubTimer** %272, align 8, !tbaa !52
  br label %273

273:                                              ; preds = %271, %269
  %274 = load %struct.pb_async_time_marker_list*, %struct.pb_async_time_marker_list** %152, align 8, !tbaa !45
  %275 = icmp eq %struct.pb_async_time_marker_list* %274, null
  br i1 %275, label %280, label %276

276:                                              ; preds = %273
  %277 = getelementptr inbounds %struct.pb_async_time_marker_list, %struct.pb_async_time_marker_list* %274, i64 0, i32 1
  %278 = load i32, i32* %277, align 8, !tbaa !53
  %279 = icmp eq i32 %278, 8
  br i1 %279, label %291, label %303

280:                                              ; preds = %273
  %281 = tail call noalias align 16 dereferenceable_or_null(32) i8* @malloc(i64 32) #25
  %282 = bitcast %struct.pb_async_time_marker_list** %152 to i8**
  store i8* %281, i8** %282, align 8, !tbaa !9
  %283 = tail call noalias align 16 dereferenceable_or_null(8) i8* @malloc(i64 8) #25
  %284 = bitcast i8* %281 to %struct.pb_async_time_marker_list*
  %285 = getelementptr inbounds %struct.pb_async_time_marker_list, %struct.pb_async_time_marker_list* %284, i64 0, i32 2
  store i8* %283, i8** %285, align 16, !tbaa !56
  %286 = bitcast i8* %283 to %struct.ihipEvent_t**
  %287 = tail call i32 @hipEventCreate(%struct.ihipEvent_t** %286)
  %288 = load %struct.pb_async_time_marker_list*, %struct.pb_async_time_marker_list** %152, align 8, !tbaa !9
  %289 = getelementptr inbounds %struct.pb_async_time_marker_list, %struct.pb_async_time_marker_list* %288, i64 0, i32 3
  store %struct.pb_async_time_marker_list* null, %struct.pb_async_time_marker_list** %289, align 8, !tbaa !57
  %290 = load %struct.pb_async_time_marker_list*, %struct.pb_async_time_marker_list** %152, align 8, !tbaa !9
  br label %291

291:                                              ; preds = %276, %280
  %292 = phi %struct.pb_async_time_marker_list* [ %290, %280 ], [ %274, %276 ]
  %293 = getelementptr inbounds %struct.pb_async_time_marker_list, %struct.pb_async_time_marker_list* %292, i64 0, i32 0
  store i8* %1, i8** %293, align 8, !tbaa !58
  %294 = load %struct.pb_async_time_marker_list*, %struct.pb_async_time_marker_list** %152, align 8, !tbaa !9
  %295 = getelementptr inbounds %struct.pb_async_time_marker_list, %struct.pb_async_time_marker_list* %294, i64 0, i32 1
  store i32 %2, i32* %295, align 8, !tbaa !53
  %296 = getelementptr inbounds %struct.pb_async_time_marker_list, %struct.pb_async_time_marker_list* %294, i64 0, i32 2
  %297 = bitcast i8** %296 to %struct.ihipEvent_t***
  %298 = load %struct.ihipEvent_t**, %struct.ihipEvent_t*** %297, align 8, !tbaa !56
  %299 = load %struct.ihipEvent_t*, %struct.ihipEvent_t** %298, align 8, !tbaa !9
  %300 = tail call i32 @hipEventRecord(%struct.ihipEvent_t* %299, %struct.ihipStream_t* null)
  %301 = getelementptr inbounds %struct.pb_TimerSet, %struct.pb_TimerSet* %0, i64 0, i32 2
  store i64 %151, i64* %301, align 8, !tbaa !60
  %302 = load i32, i32* %11, align 8, !tbaa !44
  br label %317

303:                                              ; preds = %276
  %304 = load i32, i32* %11, align 8, !tbaa !44
  switch i32 %304, label %305 [
    i32 5, label %317
    i32 2, label %317
  ]

305:                                              ; preds = %303, %310
  %306 = phi %struct.pb_async_time_marker_list* [ %308, %310 ], [ %274, %303 ]
  %307 = getelementptr inbounds %struct.pb_async_time_marker_list, %struct.pb_async_time_marker_list* %306, i64 0, i32 3
  %308 = load %struct.pb_async_time_marker_list*, %struct.pb_async_time_marker_list** %307, align 8, !tbaa !57
  %309 = icmp eq %struct.pb_async_time_marker_list* %308, null
  br i1 %309, label %314, label %310

310:                                              ; preds = %305
  %311 = getelementptr inbounds %struct.pb_async_time_marker_list, %struct.pb_async_time_marker_list* %308, i64 0, i32 1
  %312 = load i32, i32* %311, align 8, !tbaa !53
  %313 = icmp eq i32 %312, 8
  br i1 %313, label %314, label %305, !llvm.loop !59

314:                                              ; preds = %305, %310
  %315 = getelementptr inbounds %struct.pb_async_time_marker_list, %struct.pb_async_time_marker_list* %306, i64 0, i32 1
  store i32 %2, i32* %315, align 8, !tbaa !53
  %316 = getelementptr inbounds %struct.pb_async_time_marker_list, %struct.pb_async_time_marker_list* %306, i64 0, i32 0
  store i8* %1, i8** %316, align 8, !tbaa !58
  br label %317

317:                                              ; preds = %303, %303, %314, %291
  %318 = phi i32 [ %304, %303 ], [ %304, %303 ], [ %304, %314 ], [ %302, %291 ]
  switch i32 %318, label %319 [
    i32 5, label %336
    i32 2, label %336
  ]

319:                                              ; preds = %317
  %320 = getelementptr inbounds %struct.pb_TimerSet, %struct.pb_TimerSet* %0, i64 0, i32 4, i64 4, i32 0
  %321 = load i32, i32* %320, align 8, !tbaa !30
  %322 = icmp eq i32 %321, 0
  br i1 %322, label %326, label %323

323:                                              ; preds = %319
  %324 = load %struct._IO_FILE*, %struct._IO_FILE** @stderr, align 8, !tbaa !9
  %325 = tail call i64 @fwrite(i8* getelementptr inbounds ([43 x i8], [43 x i8]* @.str.3, i64 0, i64 0), i64 42, i64 1, %struct._IO_FILE* %324) #26
  br label %336

326:                                              ; preds = %319
  store i32 1, i32* %320, align 8, !tbaa !30
  %327 = bitcast %struct.timeval* %4 to i8*
  call void @llvm.lifetime.start.p0i8(i64 16, i8* nonnull %327) #25
  %328 = call i32 @gettimeofday(%struct.timeval* nonnull %4, %struct.timezone* null) #25
  %329 = getelementptr inbounds %struct.timeval, %struct.timeval* %4, i64 0, i32 0
  %330 = load i64, i64* %329, align 8, !tbaa !35
  %331 = mul nsw i64 %330, 1000000
  %332 = getelementptr inbounds %struct.timeval, %struct.timeval* %4, i64 0, i32 1
  %333 = load i64, i64* %332, align 8, !tbaa !38
  %334 = add nsw i64 %331, %333
  %335 = getelementptr inbounds %struct.pb_TimerSet, %struct.pb_TimerSet* %0, i64 0, i32 4, i64 4, i32 2
  store i64 %334, i64* %335, align 8, !tbaa !39
  call void @llvm.lifetime.end.p0i8(i64 16, i8* nonnull %327) #25
  br label %336

336:                                              ; preds = %220, %317, %317, %326, %323, %259, %256, %242, %239, %231
  store i32 %2, i32* %11, align 8, !tbaa !44
  ret void
}

; Function Attrs: argmemonly mustprogress nofree nounwind readonly willreturn
declare dso_local i32 @strcmp(i8* nocapture, i8* nocapture) local_unnamed_addr #10

; Function Attrs: mustprogress nofree nounwind uwtable
define dso_local void @pb_PrintTimerSet(%struct.pb_TimerSet* nocapture readonly %0) local_unnamed_addr #8 {
  %2 = alloca %struct.timeval, align 8
  %3 = alloca [6 x i8*], align 16
  %4 = bitcast %struct.timeval* %2 to i8*
  call void @llvm.lifetime.start.p0i8(i64 16, i8* nonnull %4) #25
  %5 = call i32 @gettimeofday(%struct.timeval* nonnull %2, %struct.timezone* null) #25
  %6 = getelementptr inbounds %struct.timeval, %struct.timeval* %2, i64 0, i32 0
  %7 = load i64, i64* %6, align 8, !tbaa !35
  %8 = getelementptr inbounds %struct.timeval, %struct.timeval* %2, i64 0, i32 1
  %9 = load i64, i64* %8, align 8, !tbaa !38
  call void @llvm.lifetime.end.p0i8(i64 16, i8* nonnull %4) #25
  %10 = bitcast [6 x i8*]* %3 to i8*
  call void @llvm.lifetime.start.p0i8(i64 48, i8* nonnull %10) #25
  %11 = getelementptr inbounds [6 x i8*], [6 x i8*]* %3, i64 0, i64 0
  store i8* getelementptr inbounds ([3 x i8], [3 x i8]* @.str.13, i64 0, i64 0), i8** %11, align 16
  %12 = getelementptr inbounds [6 x i8*], [6 x i8*]* %3, i64 0, i64 1
  store i8* getelementptr inbounds ([7 x i8], [7 x i8]* @.str.14, i64 0, i64 0), i8** %12, align 8
  %13 = getelementptr inbounds [6 x i8*], [6 x i8*]* %3, i64 0, i64 2
  store i8* getelementptr inbounds ([5 x i8], [5 x i8]* @.str.15, i64 0, i64 0), i8** %13, align 16
  %14 = getelementptr inbounds [6 x i8*], [6 x i8*]* %3, i64 0, i64 3
  store i8* getelementptr inbounds ([7 x i8], [7 x i8]* @.str.16, i64 0, i64 0), i8** %14, align 8
  %15 = getelementptr inbounds [6 x i8*], [6 x i8*]* %3, i64 0, i64 4
  store i8* getelementptr inbounds ([11 x i8], [11 x i8]* @.str.17, i64 0, i64 0), i8** %15, align 16
  %16 = getelementptr inbounds [6 x i8*], [6 x i8*]* %3, i64 0, i64 5
  store i8* getelementptr inbounds ([8 x i8], [8 x i8]* @.str.18, i64 0, i64 0), i8** %16, align 8
  br label %17

17:                                               ; preds = %1, %88
  %18 = phi i64 [ 1, %1 ], [ %89, %88 ]
  %19 = getelementptr inbounds %struct.pb_TimerSet, %struct.pb_TimerSet* %0, i64 0, i32 4, i64 %18, i32 0
  %20 = load i32, i32* %19, align 8, !tbaa !30
  %21 = icmp eq i32 %20, 0
  br i1 %21, label %25, label %22

22:                                               ; preds = %17
  %23 = load %struct._IO_FILE*, %struct._IO_FILE** @stderr, align 8, !tbaa !9
  %24 = tail call i64 @fwrite(i8* getelementptr inbounds ([49 x i8], [49 x i8]* @.str.11, i64 0, i64 0), i64 48, i64 1, %struct._IO_FILE* %23) #26
  br label %25

25:                                               ; preds = %17, %22
  %26 = getelementptr inbounds %struct.pb_TimerSet, %struct.pb_TimerSet* %0, i64 0, i32 4, i64 %18, i32 1
  %27 = load i64, i64* %26, align 8, !tbaa !34
  %28 = uitofp i64 %27 to double
  %29 = fdiv contract double %28, 1.000000e+06
  %30 = fcmp contract une double %29, 0.000000e+00
  br i1 %30, label %31, label %88

31:                                               ; preds = %25
  %32 = add nsw i64 %18, -1
  %33 = getelementptr inbounds [6 x i8*], [6 x i8*]* %3, i64 0, i64 %32
  %34 = load i8*, i8** %33, align 8, !tbaa !9
  %35 = load i32, i32* %19, align 8, !tbaa !30
  %36 = icmp eq i32 %35, 0
  br i1 %36, label %43, label %37

37:                                               ; preds = %31
  %38 = load %struct._IO_FILE*, %struct._IO_FILE** @stderr, align 8, !tbaa !9
  %39 = tail call i64 @fwrite(i8* getelementptr inbounds ([49 x i8], [49 x i8]* @.str.11, i64 0, i64 0), i64 48, i64 1, %struct._IO_FILE* %38) #26
  %40 = load i64, i64* %26, align 8, !tbaa !34
  %41 = uitofp i64 %40 to double
  %42 = fdiv contract double %41, 1.000000e+06
  br label %43

43:                                               ; preds = %31, %37
  %44 = phi double [ %29, %31 ], [ %42, %37 ]
  %45 = tail call i32 (i8*, ...) @printf(i8* nonnull dereferenceable(1) getelementptr inbounds ([10 x i8], [10 x i8]* @.str.19, i64 0, i64 0), i32 10, i8* %34, double %44)
  %46 = getelementptr inbounds %struct.pb_TimerSet, %struct.pb_TimerSet* %0, i64 0, i32 5, i64 %18
  %47 = load %struct.pb_SubTimerList*, %struct.pb_SubTimerList** %46, align 8, !tbaa !9
  %48 = icmp eq %struct.pb_SubTimerList* %47, null
  br i1 %48, label %88, label %49

49:                                               ; preds = %43
  %50 = getelementptr inbounds %struct.pb_SubTimerList, %struct.pb_SubTimerList* %47, i64 0, i32 1
  %51 = load %struct.pb_SubTimer*, %struct.pb_SubTimer** %50, align 8, !tbaa !9
  %52 = icmp eq %struct.pb_SubTimer* %51, null
  br i1 %52, label %88, label %53

53:                                               ; preds = %49, %53
  %54 = phi %struct.pb_SubTimer* [ %64, %53 ], [ %51, %49 ]
  %55 = phi i32 [ %62, %53 ], [ 0, %49 ]
  %56 = getelementptr inbounds %struct.pb_SubTimer, %struct.pb_SubTimer* %54, i64 0, i32 0
  %57 = load i8*, i8** %56, align 8, !tbaa !46
  %58 = tail call i64 @strlen(i8* noundef nonnull dereferenceable(1) %57) #28
  %59 = sext i32 %55 to i64
  %60 = icmp ugt i64 %58, %59
  %61 = trunc i64 %58 to i32
  %62 = select i1 %60, i32 %61, i32 %55
  %63 = getelementptr inbounds %struct.pb_SubTimer, %struct.pb_SubTimer* %54, i64 0, i32 2
  %64 = load %struct.pb_SubTimer*, %struct.pb_SubTimer** %63, align 8, !tbaa !9
  %65 = icmp eq %struct.pb_SubTimer* %64, null
  br i1 %65, label %66, label %53, !llvm.loop !68

66:                                               ; preds = %53
  %67 = icmp sgt i32 %62, 10
  %68 = select i1 %67, i32 %62, i32 10
  br i1 %52, label %88, label %69

69:                                               ; preds = %66, %79
  %70 = phi %struct.pb_SubTimer* [ %86, %79 ], [ %51, %66 ]
  %71 = getelementptr inbounds %struct.pb_SubTimer, %struct.pb_SubTimer* %70, i64 0, i32 0
  %72 = load i8*, i8** %71, align 8, !tbaa !46
  %73 = getelementptr inbounds %struct.pb_SubTimer, %struct.pb_SubTimer* %70, i64 0, i32 1, i32 0
  %74 = load i32, i32* %73, align 8, !tbaa !30
  %75 = icmp eq i32 %74, 0
  br i1 %75, label %79, label %76

76:                                               ; preds = %69
  %77 = load %struct._IO_FILE*, %struct._IO_FILE** @stderr, align 8, !tbaa !9
  %78 = tail call i64 @fwrite(i8* getelementptr inbounds ([49 x i8], [49 x i8]* @.str.11, i64 0, i64 0), i64 48, i64 1, %struct._IO_FILE* %77) #26
  br label %79

79:                                               ; preds = %69, %76
  %80 = getelementptr inbounds %struct.pb_SubTimer, %struct.pb_SubTimer* %70, i64 0, i32 1, i32 1
  %81 = load i64, i64* %80, align 8, !tbaa !34
  %82 = uitofp i64 %81 to double
  %83 = fdiv contract double %82, 1.000000e+06
  %84 = tail call i32 (i8*, ...) @printf(i8* nonnull dereferenceable(1) getelementptr inbounds ([12 x i8], [12 x i8]* @.str.20, i64 0, i64 0), i32 %68, i8* %72, double %83)
  %85 = getelementptr inbounds %struct.pb_SubTimer, %struct.pb_SubTimer* %70, i64 0, i32 2
  %86 = load %struct.pb_SubTimer*, %struct.pb_SubTimer** %85, align 8, !tbaa !9
  %87 = icmp eq %struct.pb_SubTimer* %86, null
  br i1 %87, label %88, label %69, !llvm.loop !69

88:                                               ; preds = %79, %49, %66, %25, %43
  %89 = add nuw nsw i64 %18, 1
  %90 = icmp eq i64 %89, 7
  br i1 %90, label %91, label %17, !llvm.loop !70

91:                                               ; preds = %88
  %92 = getelementptr inbounds %struct.pb_TimerSet, %struct.pb_TimerSet* %0, i64 0, i32 4, i64 7, i32 0
  %93 = load i32, i32* %92, align 8, !tbaa !30
  %94 = icmp eq i32 %93, 0
  br i1 %94, label %98, label %95

95:                                               ; preds = %91
  %96 = load %struct._IO_FILE*, %struct._IO_FILE** @stderr, align 8, !tbaa !9
  %97 = tail call i64 @fwrite(i8* getelementptr inbounds ([49 x i8], [49 x i8]* @.str.11, i64 0, i64 0), i64 48, i64 1, %struct._IO_FILE* %96) #26
  br label %98

98:                                               ; preds = %91, %95
  %99 = getelementptr inbounds %struct.pb_TimerSet, %struct.pb_TimerSet* %0, i64 0, i32 4, i64 7, i32 1
  %100 = load i64, i64* %99, align 8, !tbaa !34
  %101 = uitofp i64 %100 to double
  %102 = fdiv contract double %101, 1.000000e+06
  %103 = fcmp contract une double %102, 0.000000e+00
  br i1 %103, label %104, label %116

104:                                              ; preds = %98
  %105 = load i32, i32* %92, align 8, !tbaa !30
  %106 = icmp eq i32 %105, 0
  br i1 %106, label %113, label %107

107:                                              ; preds = %104
  %108 = load %struct._IO_FILE*, %struct._IO_FILE** @stderr, align 8, !tbaa !9
  %109 = tail call i64 @fwrite(i8* getelementptr inbounds ([49 x i8], [49 x i8]* @.str.11, i64 0, i64 0), i64 48, i64 1, %struct._IO_FILE* %108) #26
  %110 = load i64, i64* %99, align 8, !tbaa !34
  %111 = uitofp i64 %110 to double
  %112 = fdiv contract double %111, 1.000000e+06
  br label %113

113:                                              ; preds = %104, %107
  %114 = phi double [ %102, %104 ], [ %112, %107 ]
  %115 = tail call i32 (i8*, ...) @printf(i8* nonnull dereferenceable(1) getelementptr inbounds ([24 x i8], [24 x i8]* @.str.21, i64 0, i64 0), double %114)
  br label %116

116:                                              ; preds = %113, %98
  %117 = mul nsw i64 %7, 1000000
  %118 = add nsw i64 %117, %9
  %119 = getelementptr inbounds %struct.pb_TimerSet, %struct.pb_TimerSet* %0, i64 0, i32 3
  %120 = load i64, i64* %119, align 8, !tbaa !41
  %121 = sub i64 %118, %120
  %122 = uitofp i64 %121 to double
  %123 = fdiv contract double %122, 1.000000e+06
  %124 = fptrunc double %123 to float
  %125 = fpext float %124 to double
  %126 = tail call i32 (i8*, ...) @printf(i8* nonnull dereferenceable(1) getelementptr inbounds ([21 x i8], [21 x i8]* @.str.22, i64 0, i64 0), double %125)
  call void @llvm.lifetime.end.p0i8(i64 48, i8* nonnull %10) #25
  ret void
}

; Function Attrs: argmemonly mustprogress nofree nounwind willreturn writeonly
declare void @llvm.memset.p0i8.i64(i8* nocapture writeonly, i8, i64, i1 immarg) #13

; Function Attrs: nofree nounwind
declare dso_local noundef i32 @printf(i8* nocapture noundef readonly, ...) local_unnamed_addr #5

; Function Attrs: mustprogress uwtable
define dso_local void @pb_DestroyTimerSet(%struct.pb_TimerSet* nocapture %0) local_unnamed_addr #11 {
  %2 = getelementptr inbounds %struct.pb_TimerSet, %struct.pb_TimerSet* %0, i64 0, i32 1
  %3 = load %struct.pb_async_time_marker_list*, %struct.pb_async_time_marker_list** %2, align 8, !tbaa !9
  %4 = icmp eq %struct.pb_async_time_marker_list* %3, null
  br i1 %4, label %5, label %9

5:                                                ; preds = %9, %1
  %6 = getelementptr inbounds %struct.pb_TimerSet, %struct.pb_TimerSet* %0, i64 0, i32 5, i64 0
  %7 = load %struct.pb_SubTimerList*, %struct.pb_SubTimerList** %6, align 8, !tbaa !9
  %8 = icmp eq %struct.pb_SubTimerList* %7, null
  br i1 %8, label %49, label %31

9:                                                ; preds = %1, %9
  %10 = phi %struct.pb_async_time_marker_list* [ %29, %9 ], [ %3, %1 ]
  %11 = phi %struct.pb_async_time_marker_list** [ %27, %9 ], [ %2, %1 ]
  %12 = getelementptr inbounds %struct.pb_async_time_marker_list, %struct.pb_async_time_marker_list* %10, i64 0, i32 2
  %13 = bitcast i8** %12 to %struct.ihipEvent_t***
  %14 = load %struct.ihipEvent_t**, %struct.ihipEvent_t*** %13, align 8, !tbaa !56
  %15 = load %struct.ihipEvent_t*, %struct.ihipEvent_t** %14, align 8, !tbaa !9
  %16 = tail call i32 @hipEventSynchronize(%struct.ihipEvent_t* %15)
  %17 = load %struct.pb_async_time_marker_list*, %struct.pb_async_time_marker_list** %11, align 8, !tbaa !9
  %18 = getelementptr inbounds %struct.pb_async_time_marker_list, %struct.pb_async_time_marker_list* %17, i64 0, i32 2
  %19 = bitcast i8** %18 to %struct.ihipEvent_t***
  %20 = load %struct.ihipEvent_t**, %struct.ihipEvent_t*** %19, align 8, !tbaa !56
  %21 = load %struct.ihipEvent_t*, %struct.ihipEvent_t** %20, align 8, !tbaa !9
  %22 = tail call i32 @hipEventDestroy(%struct.ihipEvent_t* %21)
  %23 = load %struct.pb_async_time_marker_list*, %struct.pb_async_time_marker_list** %11, align 8, !tbaa !9
  %24 = getelementptr inbounds %struct.pb_async_time_marker_list, %struct.pb_async_time_marker_list* %23, i64 0, i32 2
  %25 = load i8*, i8** %24, align 8, !tbaa !56
  tail call void @free(i8* %25) #25
  %26 = load %struct.pb_async_time_marker_list*, %struct.pb_async_time_marker_list** %11, align 8, !tbaa !9
  %27 = getelementptr inbounds %struct.pb_async_time_marker_list, %struct.pb_async_time_marker_list* %26, i64 0, i32 3
  %28 = bitcast %struct.pb_async_time_marker_list* %26 to i8*
  tail call void @free(i8* %28) #25
  store %struct.pb_async_time_marker_list* null, %struct.pb_async_time_marker_list** %11, align 8, !tbaa !9
  %29 = load %struct.pb_async_time_marker_list*, %struct.pb_async_time_marker_list** %27, align 8, !tbaa !9
  %30 = icmp eq %struct.pb_async_time_marker_list* %29, null
  br i1 %30, label %5, label %9, !llvm.loop !71

31:                                               ; preds = %5
  %32 = bitcast %struct.pb_SubTimerList* %7 to i8*
  %33 = getelementptr inbounds %struct.pb_SubTimerList, %struct.pb_SubTimerList* %7, i64 0, i32 1
  %34 = load %struct.pb_SubTimer*, %struct.pb_SubTimer** %33, align 8, !tbaa !49
  %35 = icmp eq %struct.pb_SubTimer* %34, null
  br i1 %35, label %47, label %36

36:                                               ; preds = %31, %36
  %37 = phi %struct.pb_SubTimer* [ %41, %36 ], [ %34, %31 ]
  %38 = getelementptr inbounds %struct.pb_SubTimer, %struct.pb_SubTimer* %37, i64 0, i32 0
  %39 = load i8*, i8** %38, align 8, !tbaa !46
  tail call void @free(i8* %39) #25
  %40 = getelementptr inbounds %struct.pb_SubTimer, %struct.pb_SubTimer* %37, i64 0, i32 2
  %41 = load %struct.pb_SubTimer*, %struct.pb_SubTimer** %40, align 8, !tbaa !48
  %42 = bitcast %struct.pb_SubTimer* %37 to i8*
  tail call void @free(i8* %42) #25
  %43 = icmp eq %struct.pb_SubTimer* %41, null
  br i1 %43, label %44, label %36, !llvm.loop !72

44:                                               ; preds = %36
  %45 = bitcast %struct.pb_SubTimerList** %6 to i8**
  %46 = load i8*, i8** %45, align 8, !tbaa !9
  br label %47

47:                                               ; preds = %31, %44
  %48 = phi i8* [ %46, %44 ], [ %32, %31 ]
  tail call void @free(i8* %48) #25
  br label %49

49:                                               ; preds = %5, %47
  %50 = getelementptr inbounds %struct.pb_TimerSet, %struct.pb_TimerSet* %0, i64 0, i32 5, i64 1
  %51 = load %struct.pb_SubTimerList*, %struct.pb_SubTimerList** %50, align 8, !tbaa !9
  %52 = icmp eq %struct.pb_SubTimerList* %51, null
  br i1 %52, label %71, label %53

53:                                               ; preds = %49
  %54 = bitcast %struct.pb_SubTimerList* %51 to i8*
  %55 = getelementptr inbounds %struct.pb_SubTimerList, %struct.pb_SubTimerList* %51, i64 0, i32 1
  %56 = load %struct.pb_SubTimer*, %struct.pb_SubTimer** %55, align 8, !tbaa !49
  %57 = icmp eq %struct.pb_SubTimer* %56, null
  br i1 %57, label %69, label %58

58:                                               ; preds = %53, %58
  %59 = phi %struct.pb_SubTimer* [ %63, %58 ], [ %56, %53 ]
  %60 = getelementptr inbounds %struct.pb_SubTimer, %struct.pb_SubTimer* %59, i64 0, i32 0
  %61 = load i8*, i8** %60, align 8, !tbaa !46
  tail call void @free(i8* %61) #25
  %62 = getelementptr inbounds %struct.pb_SubTimer, %struct.pb_SubTimer* %59, i64 0, i32 2
  %63 = load %struct.pb_SubTimer*, %struct.pb_SubTimer** %62, align 8, !tbaa !48
  %64 = bitcast %struct.pb_SubTimer* %59 to i8*
  tail call void @free(i8* %64) #25
  %65 = icmp eq %struct.pb_SubTimer* %63, null
  br i1 %65, label %66, label %58, !llvm.loop !72

66:                                               ; preds = %58
  %67 = bitcast %struct.pb_SubTimerList** %50 to i8**
  %68 = load i8*, i8** %67, align 8, !tbaa !9
  br label %69

69:                                               ; preds = %53, %66
  %70 = phi i8* [ %68, %66 ], [ %54, %53 ]
  tail call void @free(i8* %70) #25
  br label %71

71:                                               ; preds = %69, %49
  %72 = getelementptr inbounds %struct.pb_TimerSet, %struct.pb_TimerSet* %0, i64 0, i32 5, i64 2
  %73 = load %struct.pb_SubTimerList*, %struct.pb_SubTimerList** %72, align 8, !tbaa !9
  %74 = icmp eq %struct.pb_SubTimerList* %73, null
  br i1 %74, label %93, label %75

75:                                               ; preds = %71
  %76 = bitcast %struct.pb_SubTimerList* %73 to i8*
  %77 = getelementptr inbounds %struct.pb_SubTimerList, %struct.pb_SubTimerList* %73, i64 0, i32 1
  %78 = load %struct.pb_SubTimer*, %struct.pb_SubTimer** %77, align 8, !tbaa !49
  %79 = icmp eq %struct.pb_SubTimer* %78, null
  br i1 %79, label %91, label %80

80:                                               ; preds = %75, %80
  %81 = phi %struct.pb_SubTimer* [ %85, %80 ], [ %78, %75 ]
  %82 = getelementptr inbounds %struct.pb_SubTimer, %struct.pb_SubTimer* %81, i64 0, i32 0
  %83 = load i8*, i8** %82, align 8, !tbaa !46
  tail call void @free(i8* %83) #25
  %84 = getelementptr inbounds %struct.pb_SubTimer, %struct.pb_SubTimer* %81, i64 0, i32 2
  %85 = load %struct.pb_SubTimer*, %struct.pb_SubTimer** %84, align 8, !tbaa !48
  %86 = bitcast %struct.pb_SubTimer* %81 to i8*
  tail call void @free(i8* %86) #25
  %87 = icmp eq %struct.pb_SubTimer* %85, null
  br i1 %87, label %88, label %80, !llvm.loop !72

88:                                               ; preds = %80
  %89 = bitcast %struct.pb_SubTimerList** %72 to i8**
  %90 = load i8*, i8** %89, align 8, !tbaa !9
  br label %91

91:                                               ; preds = %75, %88
  %92 = phi i8* [ %90, %88 ], [ %76, %75 ]
  tail call void @free(i8* %92) #25
  br label %93

93:                                               ; preds = %91, %71
  %94 = getelementptr inbounds %struct.pb_TimerSet, %struct.pb_TimerSet* %0, i64 0, i32 5, i64 3
  %95 = load %struct.pb_SubTimerList*, %struct.pb_SubTimerList** %94, align 8, !tbaa !9
  %96 = icmp eq %struct.pb_SubTimerList* %95, null
  br i1 %96, label %115, label %97

97:                                               ; preds = %93
  %98 = bitcast %struct.pb_SubTimerList* %95 to i8*
  %99 = getelementptr inbounds %struct.pb_SubTimerList, %struct.pb_SubTimerList* %95, i64 0, i32 1
  %100 = load %struct.pb_SubTimer*, %struct.pb_SubTimer** %99, align 8, !tbaa !49
  %101 = icmp eq %struct.pb_SubTimer* %100, null
  br i1 %101, label %113, label %102

102:                                              ; preds = %97, %102
  %103 = phi %struct.pb_SubTimer* [ %107, %102 ], [ %100, %97 ]
  %104 = getelementptr inbounds %struct.pb_SubTimer, %struct.pb_SubTimer* %103, i64 0, i32 0
  %105 = load i8*, i8** %104, align 8, !tbaa !46
  tail call void @free(i8* %105) #25
  %106 = getelementptr inbounds %struct.pb_SubTimer, %struct.pb_SubTimer* %103, i64 0, i32 2
  %107 = load %struct.pb_SubTimer*, %struct.pb_SubTimer** %106, align 8, !tbaa !48
  %108 = bitcast %struct.pb_SubTimer* %103 to i8*
  tail call void @free(i8* %108) #25
  %109 = icmp eq %struct.pb_SubTimer* %107, null
  br i1 %109, label %110, label %102, !llvm.loop !72

110:                                              ; preds = %102
  %111 = bitcast %struct.pb_SubTimerList** %94 to i8**
  %112 = load i8*, i8** %111, align 8, !tbaa !9
  br label %113

113:                                              ; preds = %97, %110
  %114 = phi i8* [ %112, %110 ], [ %98, %97 ]
  tail call void @free(i8* %114) #25
  br label %115

115:                                              ; preds = %113, %93
  %116 = getelementptr inbounds %struct.pb_TimerSet, %struct.pb_TimerSet* %0, i64 0, i32 5, i64 4
  %117 = load %struct.pb_SubTimerList*, %struct.pb_SubTimerList** %116, align 8, !tbaa !9
  %118 = icmp eq %struct.pb_SubTimerList* %117, null
  br i1 %118, label %137, label %119

119:                                              ; preds = %115
  %120 = bitcast %struct.pb_SubTimerList* %117 to i8*
  %121 = getelementptr inbounds %struct.pb_SubTimerList, %struct.pb_SubTimerList* %117, i64 0, i32 1
  %122 = load %struct.pb_SubTimer*, %struct.pb_SubTimer** %121, align 8, !tbaa !49
  %123 = icmp eq %struct.pb_SubTimer* %122, null
  br i1 %123, label %135, label %124

124:                                              ; preds = %119, %124
  %125 = phi %struct.pb_SubTimer* [ %129, %124 ], [ %122, %119 ]
  %126 = getelementptr inbounds %struct.pb_SubTimer, %struct.pb_SubTimer* %125, i64 0, i32 0
  %127 = load i8*, i8** %126, align 8, !tbaa !46
  tail call void @free(i8* %127) #25
  %128 = getelementptr inbounds %struct.pb_SubTimer, %struct.pb_SubTimer* %125, i64 0, i32 2
  %129 = load %struct.pb_SubTimer*, %struct.pb_SubTimer** %128, align 8, !tbaa !48
  %130 = bitcast %struct.pb_SubTimer* %125 to i8*
  tail call void @free(i8* %130) #25
  %131 = icmp eq %struct.pb_SubTimer* %129, null
  br i1 %131, label %132, label %124, !llvm.loop !72

132:                                              ; preds = %124
  %133 = bitcast %struct.pb_SubTimerList** %116 to i8**
  %134 = load i8*, i8** %133, align 8, !tbaa !9
  br label %135

135:                                              ; preds = %119, %132
  %136 = phi i8* [ %134, %132 ], [ %120, %119 ]
  tail call void @free(i8* %136) #25
  br label %137

137:                                              ; preds = %135, %115
  %138 = getelementptr inbounds %struct.pb_TimerSet, %struct.pb_TimerSet* %0, i64 0, i32 5, i64 5
  %139 = load %struct.pb_SubTimerList*, %struct.pb_SubTimerList** %138, align 8, !tbaa !9
  %140 = icmp eq %struct.pb_SubTimerList* %139, null
  br i1 %140, label %159, label %141

141:                                              ; preds = %137
  %142 = bitcast %struct.pb_SubTimerList* %139 to i8*
  %143 = getelementptr inbounds %struct.pb_SubTimerList, %struct.pb_SubTimerList* %139, i64 0, i32 1
  %144 = load %struct.pb_SubTimer*, %struct.pb_SubTimer** %143, align 8, !tbaa !49
  %145 = icmp eq %struct.pb_SubTimer* %144, null
  br i1 %145, label %157, label %146

146:                                              ; preds = %141, %146
  %147 = phi %struct.pb_SubTimer* [ %151, %146 ], [ %144, %141 ]
  %148 = getelementptr inbounds %struct.pb_SubTimer, %struct.pb_SubTimer* %147, i64 0, i32 0
  %149 = load i8*, i8** %148, align 8, !tbaa !46
  tail call void @free(i8* %149) #25
  %150 = getelementptr inbounds %struct.pb_SubTimer, %struct.pb_SubTimer* %147, i64 0, i32 2
  %151 = load %struct.pb_SubTimer*, %struct.pb_SubTimer** %150, align 8, !tbaa !48
  %152 = bitcast %struct.pb_SubTimer* %147 to i8*
  tail call void @free(i8* %152) #25
  %153 = icmp eq %struct.pb_SubTimer* %151, null
  br i1 %153, label %154, label %146, !llvm.loop !72

154:                                              ; preds = %146
  %155 = bitcast %struct.pb_SubTimerList** %138 to i8**
  %156 = load i8*, i8** %155, align 8, !tbaa !9
  br label %157

157:                                              ; preds = %141, %154
  %158 = phi i8* [ %156, %154 ], [ %142, %141 ]
  tail call void @free(i8* %158) #25
  br label %159

159:                                              ; preds = %157, %137
  %160 = getelementptr inbounds %struct.pb_TimerSet, %struct.pb_TimerSet* %0, i64 0, i32 5, i64 6
  %161 = load %struct.pb_SubTimerList*, %struct.pb_SubTimerList** %160, align 8, !tbaa !9
  %162 = icmp eq %struct.pb_SubTimerList* %161, null
  br i1 %162, label %181, label %163

163:                                              ; preds = %159
  %164 = bitcast %struct.pb_SubTimerList* %161 to i8*
  %165 = getelementptr inbounds %struct.pb_SubTimerList, %struct.pb_SubTimerList* %161, i64 0, i32 1
  %166 = load %struct.pb_SubTimer*, %struct.pb_SubTimer** %165, align 8, !tbaa !49
  %167 = icmp eq %struct.pb_SubTimer* %166, null
  br i1 %167, label %179, label %168

168:                                              ; preds = %163, %168
  %169 = phi %struct.pb_SubTimer* [ %173, %168 ], [ %166, %163 ]
  %170 = getelementptr inbounds %struct.pb_SubTimer, %struct.pb_SubTimer* %169, i64 0, i32 0
  %171 = load i8*, i8** %170, align 8, !tbaa !46
  tail call void @free(i8* %171) #25
  %172 = getelementptr inbounds %struct.pb_SubTimer, %struct.pb_SubTimer* %169, i64 0, i32 2
  %173 = load %struct.pb_SubTimer*, %struct.pb_SubTimer** %172, align 8, !tbaa !48
  %174 = bitcast %struct.pb_SubTimer* %169 to i8*
  tail call void @free(i8* %174) #25
  %175 = icmp eq %struct.pb_SubTimer* %173, null
  br i1 %175, label %176, label %168, !llvm.loop !72

176:                                              ; preds = %168
  %177 = bitcast %struct.pb_SubTimerList** %160 to i8**
  %178 = load i8*, i8** %177, align 8, !tbaa !9
  br label %179

179:                                              ; preds = %163, %176
  %180 = phi i8* [ %178, %176 ], [ %164, %163 ]
  tail call void @free(i8* %180) #25
  br label %181

181:                                              ; preds = %179, %159
  %182 = getelementptr inbounds %struct.pb_TimerSet, %struct.pb_TimerSet* %0, i64 0, i32 5, i64 7
  %183 = load %struct.pb_SubTimerList*, %struct.pb_SubTimerList** %182, align 8, !tbaa !9
  %184 = icmp eq %struct.pb_SubTimerList* %183, null
  br i1 %184, label %203, label %185

185:                                              ; preds = %181
  %186 = bitcast %struct.pb_SubTimerList* %183 to i8*
  %187 = getelementptr inbounds %struct.pb_SubTimerList, %struct.pb_SubTimerList* %183, i64 0, i32 1
  %188 = load %struct.pb_SubTimer*, %struct.pb_SubTimer** %187, align 8, !tbaa !49
  %189 = icmp eq %struct.pb_SubTimer* %188, null
  br i1 %189, label %201, label %190

190:                                              ; preds = %185, %190
  %191 = phi %struct.pb_SubTimer* [ %195, %190 ], [ %188, %185 ]
  %192 = getelementptr inbounds %struct.pb_SubTimer, %struct.pb_SubTimer* %191, i64 0, i32 0
  %193 = load i8*, i8** %192, align 8, !tbaa !46
  tail call void @free(i8* %193) #25
  %194 = getelementptr inbounds %struct.pb_SubTimer, %struct.pb_SubTimer* %191, i64 0, i32 2
  %195 = load %struct.pb_SubTimer*, %struct.pb_SubTimer** %194, align 8, !tbaa !48
  %196 = bitcast %struct.pb_SubTimer* %191 to i8*
  tail call void @free(i8* %196) #25
  %197 = icmp eq %struct.pb_SubTimer* %195, null
  br i1 %197, label %198, label %190, !llvm.loop !72

198:                                              ; preds = %190
  %199 = bitcast %struct.pb_SubTimerList** %182 to i8**
  %200 = load i8*, i8** %199, align 8, !tbaa !9
  br label %201

201:                                              ; preds = %185, %198
  %202 = phi i8* [ %200, %198 ], [ %186, %185 ]
  tail call void @free(i8* %202) #25
  br label %203

203:                                              ; preds = %201, %181
  ret void
}

declare dso_local i32 @hipEventDestroy(%struct.ihipEvent_t*) local_unnamed_addr #12

; Function Attrs: mustprogress nofree nosync nounwind uwtable
define dso_local void @sad4_cpu(i16* nocapture writeonly %0, i16* nocapture readonly %1, i16* nocapture readonly %2, i32 %3, i32 %4) local_unnamed_addr #14 {
  %6 = alloca [256 x i16], align 16
  %7 = mul i32 %3, 27400
  %8 = mul i32 %7, %4
  %9 = sext i32 %8 to i64
  %10 = getelementptr inbounds i16, i16* %0, i64 %9
  %11 = bitcast [256 x i16]* %6 to i8*
  %12 = shl nsw i32 %3, 4
  %13 = shl nsw i32 %4, 4
  %14 = getelementptr inbounds [256 x i16], [256 x i16]* %6, i64 0, i64 0
  %15 = getelementptr inbounds [256 x i16], [256 x i16]* %6, i64 0, i64 16
  %16 = bitcast i16* %15 to i8*
  %17 = sext i32 %12 to i64
  %18 = getelementptr inbounds [256 x i16], [256 x i16]* %6, i64 0, i64 32
  %19 = bitcast i16* %18 to i8*
  %20 = shl i32 %3, 5
  %21 = sext i32 %20 to i64
  %22 = getelementptr inbounds [256 x i16], [256 x i16]* %6, i64 0, i64 48
  %23 = bitcast i16* %22 to i8*
  %24 = mul i32 %3, 48
  %25 = sext i32 %24 to i64
  %26 = getelementptr inbounds [256 x i16], [256 x i16]* %6, i64 0, i64 64
  %27 = bitcast i16* %26 to i8*
  %28 = shl i32 %3, 6
  %29 = sext i32 %28 to i64
  %30 = getelementptr inbounds [256 x i16], [256 x i16]* %6, i64 0, i64 80
  %31 = bitcast i16* %30 to i8*
  %32 = mul i32 %3, 80
  %33 = sext i32 %32 to i64
  %34 = getelementptr inbounds [256 x i16], [256 x i16]* %6, i64 0, i64 96
  %35 = bitcast i16* %34 to i8*
  %36 = mul i32 %3, 96
  %37 = sext i32 %36 to i64
  %38 = getelementptr inbounds [256 x i16], [256 x i16]* %6, i64 0, i64 112
  %39 = bitcast i16* %38 to i8*
  %40 = mul i32 %3, 112
  %41 = sext i32 %40 to i64
  %42 = getelementptr inbounds [256 x i16], [256 x i16]* %6, i64 0, i64 128
  %43 = bitcast i16* %42 to i8*
  %44 = shl i32 %3, 7
  %45 = sext i32 %44 to i64
  %46 = getelementptr inbounds [256 x i16], [256 x i16]* %6, i64 0, i64 144
  %47 = bitcast i16* %46 to i8*
  %48 = mul i32 %3, 144
  %49 = sext i32 %48 to i64
  %50 = getelementptr inbounds [256 x i16], [256 x i16]* %6, i64 0, i64 160
  %51 = bitcast i16* %50 to i8*
  %52 = mul i32 %3, 160
  %53 = sext i32 %52 to i64
  %54 = getelementptr inbounds [256 x i16], [256 x i16]* %6, i64 0, i64 176
  %55 = bitcast i16* %54 to i8*
  %56 = mul i32 %3, 176
  %57 = sext i32 %56 to i64
  %58 = getelementptr inbounds [256 x i16], [256 x i16]* %6, i64 0, i64 192
  %59 = bitcast i16* %58 to i8*
  %60 = mul i32 %3, 192
  %61 = sext i32 %60 to i64
  %62 = getelementptr inbounds [256 x i16], [256 x i16]* %6, i64 0, i64 208
  %63 = bitcast i16* %62 to i8*
  %64 = mul i32 %3, 208
  %65 = sext i32 %64 to i64
  %66 = getelementptr inbounds [256 x i16], [256 x i16]* %6, i64 0, i64 224
  %67 = bitcast i16* %66 to i8*
  %68 = mul i32 %3, 224
  %69 = sext i32 %68 to i64
  %70 = getelementptr inbounds [256 x i16], [256 x i16]* %6, i64 0, i64 240
  %71 = bitcast i16* %70 to i8*
  %72 = mul i32 %3, 240
  %73 = sext i32 %72 to i64
  %74 = add nsw i32 %12, -17
  %75 = add nsw i32 %13, -17
  %76 = add nsw i32 %13, -33
  %77 = add nsw i32 %13, -1
  %78 = add nsw i32 %12, -16
  %79 = add nsw i32 %12, -1
  %80 = sext i32 %79 to i64
  %81 = sext i32 %13 to i64
  %82 = sext i32 %74 to i64
  %83 = sext i32 %78 to i64
  %84 = shl nsw i32 %3, 8
  %85 = icmp sgt i32 %4, 0
  %86 = icmp sgt i32 %3, 0
  %87 = select i1 %85, i1 %86, i1 false
  br i1 %87, label %88, label %651

88:                                               ; preds = %5
  %89 = add nsw i32 %12, -33
  %90 = sext i32 %89 to i64
  %91 = zext i32 %3 to i64
  %92 = zext i32 %4 to i64
  %93 = zext i32 %3 to i64
  %94 = add nsw i64 %80, 1
  %95 = getelementptr i16, i16* %2, i64 %94
  %96 = getelementptr i16, i16* %2, i64 1
  %97 = getelementptr i16, i16* %2, i64 1
  br label %98

98:                                               ; preds = %88, %647
  %99 = phi i64 [ 0, %88 ], [ %648, %647 ]
  %100 = phi i32 [ 0, %88 ], [ %649, %647 ]
  %101 = mul nsw i64 %99, %91
  %102 = zext i32 %100 to i64
  %103 = getelementptr inbounds i16, i16* %1, i64 %102
  %104 = trunc i64 %99 to i32
  %105 = shl nsw i32 %104, 4
  %106 = icmp eq i64 %99, 0
  %107 = icmp slt i32 %76, %105
  br label %108

108:                                              ; preds = %98, %644
  %109 = phi i64 [ 0, %98 ], [ %645, %644 ]
  %110 = trunc i64 %109 to i32
  %111 = shl i32 %110, 4
  %112 = add i32 %111, -16
  %113 = trunc i64 %109 to i32
  %114 = shl i32 %113, 4
  %115 = add i32 %114, -16
  %116 = trunc i64 %109 to i32
  %117 = shl i32 %116, 4
  %118 = add i32 %117, -16
  %119 = trunc i64 %109 to i32
  %120 = shl i32 %119, 4
  %121 = add i32 %120, -16
  %122 = add nuw nsw i64 %109, %101
  %123 = mul nsw i64 %122, 17536
  %124 = getelementptr inbounds i16, i16* %10, i64 %123
  %125 = shl nsw i64 %109, 4
  %126 = getelementptr inbounds i16, i16* %103, i64 %125
  call void @llvm.lifetime.start.p0i8(i64 512, i8* nonnull %11) #25
  %127 = bitcast i16* %126 to i8*
  call void @llvm.memcpy.p0i8.p0i8.i64(i8* noundef nonnull align 16 dereferenceable(32) %11, i8* noundef nonnull align 2 dereferenceable(32) %127, i64 32, i1 false) #25, !tbaa !73
  %128 = getelementptr i16, i16* %126, i64 %17
  %129 = bitcast i16* %128 to i8*
  call void @llvm.memcpy.p0i8.p0i8.i64(i8* noundef nonnull align 16 dereferenceable(32) %16, i8* noundef nonnull align 2 dereferenceable(32) %129, i64 32, i1 false) #25, !tbaa !73
  %130 = getelementptr i16, i16* %126, i64 %21
  %131 = bitcast i16* %130 to i8*
  call void @llvm.memcpy.p0i8.p0i8.i64(i8* noundef nonnull align 16 dereferenceable(32) %19, i8* noundef nonnull align 2 dereferenceable(32) %131, i64 32, i1 false) #25, !tbaa !73
  %132 = getelementptr i16, i16* %126, i64 %25
  %133 = bitcast i16* %132 to i8*
  call void @llvm.memcpy.p0i8.p0i8.i64(i8* noundef nonnull align 16 dereferenceable(32) %23, i8* noundef nonnull align 2 dereferenceable(32) %133, i64 32, i1 false) #25, !tbaa !73
  %134 = getelementptr i16, i16* %126, i64 %29
  %135 = bitcast i16* %134 to i8*
  call void @llvm.memcpy.p0i8.p0i8.i64(i8* noundef nonnull align 16 dereferenceable(32) %27, i8* noundef nonnull align 2 dereferenceable(32) %135, i64 32, i1 false) #25, !tbaa !73
  %136 = getelementptr i16, i16* %126, i64 %33
  %137 = bitcast i16* %136 to i8*
  call void @llvm.memcpy.p0i8.p0i8.i64(i8* noundef nonnull align 16 dereferenceable(32) %31, i8* noundef nonnull align 2 dereferenceable(32) %137, i64 32, i1 false) #25, !tbaa !73
  %138 = getelementptr i16, i16* %126, i64 %37
  %139 = bitcast i16* %138 to i8*
  call void @llvm.memcpy.p0i8.p0i8.i64(i8* noundef nonnull align 16 dereferenceable(32) %35, i8* noundef nonnull align 2 dereferenceable(32) %139, i64 32, i1 false) #25, !tbaa !73
  %140 = getelementptr i16, i16* %126, i64 %41
  %141 = bitcast i16* %140 to i8*
  call void @llvm.memcpy.p0i8.p0i8.i64(i8* noundef nonnull align 16 dereferenceable(32) %39, i8* noundef nonnull align 2 dereferenceable(32) %141, i64 32, i1 false) #25, !tbaa !73
  %142 = getelementptr i16, i16* %126, i64 %45
  %143 = bitcast i16* %142 to i8*
  call void @llvm.memcpy.p0i8.p0i8.i64(i8* noundef nonnull align 16 dereferenceable(32) %43, i8* noundef nonnull align 2 dereferenceable(32) %143, i64 32, i1 false) #25, !tbaa !73
  %144 = getelementptr i16, i16* %126, i64 %49
  %145 = bitcast i16* %144 to i8*
  call void @llvm.memcpy.p0i8.p0i8.i64(i8* noundef nonnull align 16 dereferenceable(32) %47, i8* noundef nonnull align 2 dereferenceable(32) %145, i64 32, i1 false) #25, !tbaa !73
  %146 = getelementptr i16, i16* %126, i64 %53
  %147 = bitcast i16* %146 to i8*
  call void @llvm.memcpy.p0i8.p0i8.i64(i8* noundef nonnull align 16 dereferenceable(32) %51, i8* noundef nonnull align 2 dereferenceable(32) %147, i64 32, i1 false) #25, !tbaa !73
  %148 = getelementptr i16, i16* %126, i64 %57
  %149 = bitcast i16* %148 to i8*
  call void @llvm.memcpy.p0i8.p0i8.i64(i8* noundef nonnull align 16 dereferenceable(32) %55, i8* noundef nonnull align 2 dereferenceable(32) %149, i64 32, i1 false) #25, !tbaa !73
  %150 = getelementptr i16, i16* %126, i64 %61
  %151 = bitcast i16* %150 to i8*
  call void @llvm.memcpy.p0i8.p0i8.i64(i8* noundef nonnull align 16 dereferenceable(32) %59, i8* noundef nonnull align 2 dereferenceable(32) %151, i64 32, i1 false) #25, !tbaa !73
  %152 = getelementptr i16, i16* %126, i64 %65
  %153 = bitcast i16* %152 to i8*
  call void @llvm.memcpy.p0i8.p0i8.i64(i8* noundef nonnull align 16 dereferenceable(32) %63, i8* noundef nonnull align 2 dereferenceable(32) %153, i64 32, i1 false) #25, !tbaa !73
  %154 = getelementptr i16, i16* %126, i64 %69
  %155 = bitcast i16* %154 to i8*
  call void @llvm.memcpy.p0i8.p0i8.i64(i8* noundef nonnull align 16 dereferenceable(32) %67, i8* noundef nonnull align 2 dereferenceable(32) %155, i64 32, i1 false) #25, !tbaa !73
  %156 = getelementptr i16, i16* %126, i64 %73
  %157 = bitcast i16* %156 to i8*
  call void @llvm.memcpy.p0i8.p0i8.i64(i8* noundef nonnull align 16 dereferenceable(32) %71, i8* noundef nonnull align 2 dereferenceable(32) %157, i64 32, i1 false) #25, !tbaa !73
  %158 = icmp eq i64 %109, 0
  br i1 %158, label %163, label %159

159:                                              ; preds = %108
  %160 = icmp sgt i64 %125, %90
  %161 = select i1 %160, i1 true, i1 %106
  %162 = select i1 %161, i1 true, i1 %107
  br i1 %162, label %163, label %164

163:                                              ; preds = %159, %108
  br label %164

164:                                              ; preds = %163, %159
  %165 = phi i1 [ false, %163 ], [ true, %159 ]
  br label %166

166:                                              ; preds = %641, %164
  %167 = phi i64 [ %172, %641 ], [ 0, %164 ]
  %168 = phi i32 [ %642, %641 ], [ -16, %164 ]
  %169 = add nsw i32 %168, %105
  %170 = icmp sgt i32 %169, -1
  %171 = icmp sle i32 %169, %75
  %172 = add nuw nsw i64 %167, 33
  br label %173

173:                                              ; preds = %636, %166
  %174 = phi i32 [ %640, %636 ], [ 0, %166 ]
  %175 = phi i64 [ %638, %636 ], [ %167, %166 ]
  %176 = phi i64 [ %637, %636 ], [ -16, %166 ]
  %177 = add i32 %112, %174
  %178 = icmp ugt i32 %177, -16
  %179 = select i1 %178, i32 %177, i32 -16
  %180 = sub nsw i32 0, %179
  %181 = zext i32 %180 to i64
  %182 = add i32 %115, %174
  %183 = icmp ugt i32 %182, -16
  %184 = select i1 %183, i32 %182, i32 -16
  %185 = sub nsw i32 0, %184
  %186 = and i32 %185, -4
  %187 = zext i32 %186 to i64
  %188 = add nsw i64 %187, -4
  %189 = lshr exact i64 %188, 2
  %190 = add nuw nsw i64 %189, 1
  %191 = add i32 %118, %174
  %192 = icmp ugt i32 %191, -16
  %193 = select i1 %192, i32 %191, i32 -16
  %194 = sub nsw i32 0, %193
  %195 = zext i32 %194 to i64
  %196 = add i32 %121, %174
  %197 = icmp ugt i32 %196, -16
  %198 = select i1 %197, i32 %196, i32 -16
  %199 = sub nsw i32 0, %198
  %200 = zext i32 %199 to i64
  %201 = getelementptr [16 x i16], [16 x i16]* @_ZL4line, i64 0, i64 %200
  %202 = add nsw i64 %176, %125
  br i1 %165, label %212, label %203

203:                                              ; preds = %173
  br i1 %170, label %204, label %209

204:                                              ; preds = %203
  %205 = icmp sgt i64 %202, -1
  %206 = select i1 %171, i1 %205, i1 false
  %207 = icmp sle i64 %202, %82
  %208 = select i1 %206, i1 %207, i1 false
  br label %209

209:                                              ; preds = %204, %203
  %210 = phi i1 [ false, %203 ], [ %208, %204 ]
  %211 = xor i1 %210, true
  br label %212

212:                                              ; preds = %209, %173
  %213 = phi i1 [ false, %173 ], [ %211, %209 ]
  %214 = icmp slt i64 %202, 0
  %215 = icmp sgt i64 %202, %83
  %216 = select i1 %214, i1 true, i1 %215
  %217 = trunc i64 %202 to i32
  %218 = and i64 %202, 4294967295
  %219 = icmp ugt i32 %217, -16
  %220 = select i1 %219, i32 %217, i32 -16
  %221 = sub nsw i32 0, %220
  %222 = zext i32 %221 to i64
  %223 = add nuw nsw i64 %175, 1096
  %224 = add nuw nsw i64 %175, 2192
  %225 = add nuw nsw i64 %175, 3288
  %226 = getelementptr inbounds i16, i16* %2, i64 %202
  %227 = icmp ult i32 %194, 4
  %228 = and i64 %195, 28
  %229 = insertelement <4 x i32> <i32 poison, i32 0, i32 0, i32 0>, i32 %217, i64 0
  %230 = and i64 %190, 3
  %231 = icmp ult i64 %188, 12
  %232 = and i64 %190, 9223372036854775804
  %233 = icmp eq i64 %230, 0
  %234 = icmp eq i64 %228, %195
  %235 = and i64 %181, 3
  %236 = icmp eq i64 %235, 0
  br label %237

237:                                              ; preds = %622, %212
  %238 = phi i16* [ %124, %212 ], [ %633, %622 ]
  %239 = phi i16* [ %14, %212 ], [ %623, %622 ]
  %240 = phi i32 [ %169, %212 ], [ %624, %622 ]
  %241 = phi i32 [ 0, %212 ], [ %634, %622 ]
  %242 = sext i32 %240 to i64
  br label %243

243:                                              ; preds = %570, %237
  %244 = phi i64 [ %242, %237 ], [ %572, %570 ]
  %245 = phi i32 [ 0, %237 ], [ %619, %570 ]
  %246 = phi i32 [ 0, %237 ], [ %608, %570 ]
  %247 = phi i32 [ 0, %237 ], [ %596, %570 ]
  %248 = phi i32 [ 0, %237 ], [ %584, %570 ]
  %249 = phi i16* [ %239, %237 ], [ %617, %570 ]
  %250 = phi i32 [ 0, %237 ], [ %620, %570 ]
  br i1 %213, label %254, label %251

251:                                              ; preds = %243
  %252 = mul nsw i64 %244, %17
  %253 = getelementptr inbounds i16, i16* %226, i64 %252
  br label %570

254:                                              ; preds = %243
  %255 = icmp slt i64 %244, 0
  %256 = icmp slt i64 %244, %81
  %257 = trunc i64 %244 to i32
  %258 = select i1 %256, i32 %257, i32 %77
  %259 = select i1 %255, i32 0, i32 %258
  %260 = mul nsw i32 %259, %12
  %261 = sext i32 %260 to i64
  %262 = getelementptr i16, i16* %2, i64 %261
  br i1 %216, label %265, label %263

263:                                              ; preds = %254
  %264 = getelementptr inbounds i16, i16* %262, i64 %218
  br label %570

265:                                              ; preds = %254
  br i1 %214, label %266, label %363

266:                                              ; preds = %265
  br i1 %227, label %326, label %267

267:                                              ; preds = %266
  %268 = getelementptr i16, i16* %97, i64 %261
  %269 = icmp ugt i16* %268, getelementptr inbounds ([16 x i16], [16 x i16]* @_ZL4line, i64 0, i64 0)
  %270 = icmp ult i16* %262, %201
  %271 = and i1 %269, %270
  br i1 %271, label %326, label %272

272:                                              ; preds = %267
  br i1 %231, label %305, label %273

273:                                              ; preds = %272
  %274 = load i16, i16* %262, align 2, !tbaa !73, !alias.scope !75
  %275 = insertelement <4 x i16> poison, i16 %274, i64 0
  %276 = shufflevector <4 x i16> %275, <4 x i16> poison, <4 x i32> zeroinitializer
  %277 = load i16, i16* %262, align 2, !tbaa !73, !alias.scope !75
  %278 = insertelement <4 x i16> poison, i16 %277, i64 0
  %279 = shufflevector <4 x i16> %278, <4 x i16> poison, <4 x i32> zeroinitializer
  %280 = load i16, i16* %262, align 2, !tbaa !73, !alias.scope !75
  %281 = insertelement <4 x i16> poison, i16 %280, i64 0
  %282 = shufflevector <4 x i16> %281, <4 x i16> poison, <4 x i32> zeroinitializer
  %283 = load i16, i16* %262, align 2, !tbaa !73, !alias.scope !75
  %284 = insertelement <4 x i16> poison, i16 %283, i64 0
  %285 = shufflevector <4 x i16> %284, <4 x i16> poison, <4 x i32> zeroinitializer
  br label %286

286:                                              ; preds = %286, %273
  %287 = phi i64 [ 0, %273 ], [ %302, %286 ]
  %288 = phi <4 x i32> [ %229, %273 ], [ %301, %286 ]
  %289 = phi i64 [ 0, %273 ], [ %303, %286 ]
  %290 = getelementptr inbounds [16 x i16], [16 x i16]* @_ZL4line, i64 0, i64 %287
  %291 = bitcast i16* %290 to <4 x i16>*
  store <4 x i16> %276, <4 x i16>* %291, align 16, !tbaa !73, !alias.scope !78, !noalias !75
  %292 = or i64 %287, 4
  %293 = getelementptr inbounds [16 x i16], [16 x i16]* @_ZL4line, i64 0, i64 %292
  %294 = bitcast i16* %293 to <4 x i16>*
  store <4 x i16> %279, <4 x i16>* %294, align 8, !tbaa !73, !alias.scope !78, !noalias !75
  %295 = or i64 %287, 8
  %296 = getelementptr inbounds [16 x i16], [16 x i16]* @_ZL4line, i64 0, i64 %295
  %297 = bitcast i16* %296 to <4 x i16>*
  store <4 x i16> %282, <4 x i16>* %297, align 16, !tbaa !73, !alias.scope !78, !noalias !75
  %298 = or i64 %287, 12
  %299 = getelementptr inbounds [16 x i16], [16 x i16]* @_ZL4line, i64 0, i64 %298
  %300 = bitcast i16* %299 to <4 x i16>*
  store <4 x i16> %285, <4 x i16>* %300, align 8, !tbaa !73, !alias.scope !78, !noalias !75
  %301 = add <4 x i32> %288, <i32 4, i32 4, i32 4, i32 4>
  %302 = add nuw i64 %287, 16
  %303 = add nuw i64 %289, 4
  %304 = icmp eq i64 %303, %232
  br i1 %304, label %305, label %286, !llvm.loop !80

305:                                              ; preds = %286, %272
  %306 = phi <4 x i32> [ undef, %272 ], [ %301, %286 ]
  %307 = phi i64 [ 0, %272 ], [ %302, %286 ]
  %308 = phi <4 x i32> [ %229, %272 ], [ %301, %286 ]
  br i1 %233, label %323, label %309

309:                                              ; preds = %305
  %310 = load i16, i16* %262, align 2, !tbaa !73, !alias.scope !75
  %311 = insertelement <4 x i16> poison, i16 %310, i64 0
  %312 = shufflevector <4 x i16> %311, <4 x i16> poison, <4 x i32> zeroinitializer
  br label %313

313:                                              ; preds = %313, %309
  %314 = phi i64 [ %307, %309 ], [ %320, %313 ]
  %315 = phi <4 x i32> [ %308, %309 ], [ %319, %313 ]
  %316 = phi i64 [ 0, %309 ], [ %321, %313 ]
  %317 = getelementptr inbounds [16 x i16], [16 x i16]* @_ZL4line, i64 0, i64 %314
  %318 = bitcast i16* %317 to <4 x i16>*
  store <4 x i16> %312, <4 x i16>* %318, align 8, !tbaa !73, !alias.scope !78, !noalias !75
  %319 = add <4 x i32> %315, <i32 1, i32 1, i32 1, i32 1>
  %320 = add nuw i64 %314, 4
  %321 = add i64 %316, 1
  %322 = icmp eq i64 %321, %230
  br i1 %322, label %323, label %313, !llvm.loop !81

323:                                              ; preds = %313, %305
  %324 = phi <4 x i32> [ %306, %305 ], [ %319, %313 ]
  %325 = call i32 @llvm.vector.reduce.add.v4i32(<4 x i32> %324)
  br i1 %234, label %363, label %326

326:                                              ; preds = %267, %266, %323
  %327 = phi i64 [ 0, %267 ], [ 0, %266 ], [ %228, %323 ]
  %328 = phi i32 [ %217, %267 ], [ %217, %266 ], [ %325, %323 ]
  %329 = xor i64 %327, -1
  %330 = add nsw i64 %329, %181
  br i1 %236, label %341, label %331

331:                                              ; preds = %326, %331
  %332 = phi i64 [ %338, %331 ], [ %327, %326 ]
  %333 = phi i32 [ %337, %331 ], [ %328, %326 ]
  %334 = phi i64 [ %339, %331 ], [ 0, %326 ]
  %335 = load i16, i16* %262, align 2, !tbaa !73
  %336 = getelementptr inbounds [16 x i16], [16 x i16]* @_ZL4line, i64 0, i64 %332
  store i16 %335, i16* %336, align 2, !tbaa !73
  %337 = add nsw i32 %333, 1
  %338 = add nuw nsw i64 %332, 1
  %339 = add i64 %334, 1
  %340 = icmp eq i64 %339, %235
  br i1 %340, label %341, label %331, !llvm.loop !82

341:                                              ; preds = %331, %326
  %342 = phi i32 [ undef, %326 ], [ %337, %331 ]
  %343 = phi i64 [ %327, %326 ], [ %338, %331 ]
  %344 = phi i32 [ %328, %326 ], [ %337, %331 ]
  %345 = icmp ult i64 %330, 3
  br i1 %345, label %363, label %346

346:                                              ; preds = %341, %346
  %347 = phi i64 [ %361, %346 ], [ %343, %341 ]
  %348 = phi i32 [ %360, %346 ], [ %344, %341 ]
  %349 = load i16, i16* %262, align 2, !tbaa !73
  %350 = getelementptr inbounds [16 x i16], [16 x i16]* @_ZL4line, i64 0, i64 %347
  store i16 %349, i16* %350, align 2, !tbaa !73
  %351 = add nuw nsw i64 %347, 1
  %352 = load i16, i16* %262, align 2, !tbaa !73
  %353 = getelementptr inbounds [16 x i16], [16 x i16]* @_ZL4line, i64 0, i64 %351
  store i16 %352, i16* %353, align 2, !tbaa !73
  %354 = add nuw nsw i64 %347, 2
  %355 = load i16, i16* %262, align 2, !tbaa !73
  %356 = getelementptr inbounds [16 x i16], [16 x i16]* @_ZL4line, i64 0, i64 %354
  store i16 %355, i16* %356, align 2, !tbaa !73
  %357 = add nuw nsw i64 %347, 3
  %358 = load i16, i16* %262, align 2, !tbaa !73
  %359 = getelementptr inbounds [16 x i16], [16 x i16]* @_ZL4line, i64 0, i64 %357
  store i16 %358, i16* %359, align 2, !tbaa !73
  %360 = add nsw i32 %348, 4
  %361 = add nuw nsw i64 %347, 4
  %362 = icmp eq i64 %361, %222
  br i1 %362, label %363, label %346, !llvm.loop !83

363:                                              ; preds = %341, %346, %323, %265
  %364 = phi i32 [ %217, %265 ], [ %325, %323 ], [ %342, %341 ], [ %360, %346 ]
  %365 = phi i32 [ 0, %265 ], [ %221, %323 ], [ %221, %346 ], [ %221, %341 ]
  %366 = icmp slt i32 %364, %12
  %367 = icmp ult i32 %365, 16
  %368 = select i1 %366, i1 %367, i1 false
  br i1 %368, label %369, label %483

369:                                              ; preds = %363
  %370 = zext i32 %365 to i64
  %371 = sext i32 %364 to i64
  %372 = xor i64 %371, -1
  %373 = add nsw i64 %372, %17
  %374 = sub nsw i64 15, %370
  %375 = icmp eq i64 %373, 0
  %376 = icmp ult i64 %374, %373
  %377 = select i1 %376, i64 %374, i64 %373
  %378 = add nsw i64 %377, 1
  %379 = select i1 %375, i64 1, i64 %378
  %380 = icmp ult i64 %379, 8
  br i1 %380, label %466, label %381

381:                                              ; preds = %369
  %382 = getelementptr [16 x i16], [16 x i16]* @_ZL4line, i64 0, i64 %370
  %383 = xor i64 %371, -1
  %384 = add nsw i64 %383, %17
  %385 = sub nsw i64 15, %370
  %386 = icmp eq i64 %384, 0
  %387 = icmp ult i64 %385, %384
  %388 = select i1 %387, i64 %385, i64 %384
  %389 = select i1 %386, i64 0, i64 %388
  %390 = add nsw i64 %389, %370
  %391 = getelementptr i16, i16* getelementptr inbounds ([16 x i16], [16 x i16]* @_ZL4line, i64 0, i64 1), i64 %390
  %392 = add nsw i64 %371, %261
  %393 = getelementptr i16, i16* %2, i64 %392
  %394 = add nsw i64 %389, %371
  %395 = add nsw i64 %394, %261
  %396 = getelementptr i16, i16* %96, i64 %395
  %397 = icmp ult i16* %382, %396
  %398 = icmp ult i16* %393, %391
  %399 = and i1 %397, %398
  br i1 %399, label %466, label %400

400:                                              ; preds = %381
  %401 = and i64 %379, -8
  %402 = add i64 %401, %371
  %403 = add i64 %401, %370
  %404 = add i64 %401, -8
  %405 = lshr exact i64 %404, 3
  %406 = add nuw nsw i64 %405, 1
  %407 = and i64 %406, 3
  %408 = icmp ult i64 %404, 24
  br i1 %408, label %448, label %409

409:                                              ; preds = %400
  %410 = and i64 %406, 4611686018427387900
  br label %411

411:                                              ; preds = %411, %409
  %412 = phi i64 [ 0, %409 ], [ %445, %411 ]
  %413 = phi i64 [ 0, %409 ], [ %446, %411 ]
  %414 = add i64 %412, %371
  %415 = add i64 %412, %370
  %416 = getelementptr inbounds i16, i16* %262, i64 %414
  %417 = bitcast i16* %416 to <8 x i16>*
  %418 = load <8 x i16>, <8 x i16>* %417, align 2, !tbaa !73, !alias.scope !84
  %419 = getelementptr inbounds [16 x i16], [16 x i16]* @_ZL4line, i64 0, i64 %415
  %420 = bitcast i16* %419 to <8 x i16>*
  store <8 x i16> %418, <8 x i16>* %420, align 2, !tbaa !73, !alias.scope !87, !noalias !84
  %421 = or i64 %412, 8
  %422 = add i64 %421, %371
  %423 = add i64 %421, %370
  %424 = getelementptr inbounds i16, i16* %262, i64 %422
  %425 = bitcast i16* %424 to <8 x i16>*
  %426 = load <8 x i16>, <8 x i16>* %425, align 2, !tbaa !73, !alias.scope !84
  %427 = getelementptr inbounds [16 x i16], [16 x i16]* @_ZL4line, i64 0, i64 %423
  %428 = bitcast i16* %427 to <8 x i16>*
  store <8 x i16> %426, <8 x i16>* %428, align 2, !tbaa !73, !alias.scope !87, !noalias !84
  %429 = or i64 %412, 16
  %430 = add i64 %429, %371
  %431 = add i64 %429, %370
  %432 = getelementptr inbounds i16, i16* %262, i64 %430
  %433 = bitcast i16* %432 to <8 x i16>*
  %434 = load <8 x i16>, <8 x i16>* %433, align 2, !tbaa !73, !alias.scope !84
  %435 = getelementptr inbounds [16 x i16], [16 x i16]* @_ZL4line, i64 0, i64 %431
  %436 = bitcast i16* %435 to <8 x i16>*
  store <8 x i16> %434, <8 x i16>* %436, align 2, !tbaa !73, !alias.scope !87, !noalias !84
  %437 = or i64 %412, 24
  %438 = add i64 %437, %371
  %439 = add i64 %437, %370
  %440 = getelementptr inbounds i16, i16* %262, i64 %438
  %441 = bitcast i16* %440 to <8 x i16>*
  %442 = load <8 x i16>, <8 x i16>* %441, align 2, !tbaa !73, !alias.scope !84
  %443 = getelementptr inbounds [16 x i16], [16 x i16]* @_ZL4line, i64 0, i64 %439
  %444 = bitcast i16* %443 to <8 x i16>*
  store <8 x i16> %442, <8 x i16>* %444, align 2, !tbaa !73, !alias.scope !87, !noalias !84
  %445 = add nuw i64 %412, 32
  %446 = add i64 %413, 4
  %447 = icmp eq i64 %446, %410
  br i1 %447, label %448, label %411, !llvm.loop !89

448:                                              ; preds = %411, %400
  %449 = phi i64 [ 0, %400 ], [ %445, %411 ]
  %450 = icmp eq i64 %407, 0
  br i1 %450, label %464, label %451

451:                                              ; preds = %448, %451
  %452 = phi i64 [ %461, %451 ], [ %449, %448 ]
  %453 = phi i64 [ %462, %451 ], [ 0, %448 ]
  %454 = add i64 %452, %371
  %455 = add i64 %452, %370
  %456 = getelementptr inbounds i16, i16* %262, i64 %454
  %457 = bitcast i16* %456 to <8 x i16>*
  %458 = load <8 x i16>, <8 x i16>* %457, align 2, !tbaa !73, !alias.scope !84
  %459 = getelementptr inbounds [16 x i16], [16 x i16]* @_ZL4line, i64 0, i64 %455
  %460 = bitcast i16* %459 to <8 x i16>*
  store <8 x i16> %458, <8 x i16>* %460, align 2, !tbaa !73, !alias.scope !87, !noalias !84
  %461 = add nuw i64 %452, 8
  %462 = add i64 %453, 1
  %463 = icmp eq i64 %462, %407
  br i1 %463, label %464, label %451, !llvm.loop !90

464:                                              ; preds = %451, %448
  %465 = icmp eq i64 %379, %401
  br i1 %465, label %480, label %466

466:                                              ; preds = %381, %369, %464
  %467 = phi i64 [ %371, %381 ], [ %371, %369 ], [ %402, %464 ]
  %468 = phi i64 [ %370, %381 ], [ %370, %369 ], [ %403, %464 ]
  br label %469

469:                                              ; preds = %466, %469
  %470 = phi i64 [ %475, %469 ], [ %467, %466 ]
  %471 = phi i64 [ %476, %469 ], [ %468, %466 ]
  %472 = getelementptr inbounds i16, i16* %262, i64 %470
  %473 = load i16, i16* %472, align 2, !tbaa !73
  %474 = getelementptr inbounds [16 x i16], [16 x i16]* @_ZL4line, i64 0, i64 %471
  store i16 %473, i16* %474, align 2, !tbaa !73
  %475 = add nsw i64 %470, 1
  %476 = add nuw nsw i64 %471, 1
  %477 = icmp slt i64 %475, %17
  %478 = icmp ult i64 %471, 15
  %479 = select i1 %477, i1 %478, i1 false
  br i1 %479, label %469, label %480, !llvm.loop !91

480:                                              ; preds = %469, %464
  %481 = phi i64 [ %403, %464 ], [ %476, %469 ]
  %482 = trunc i64 %481 to i32
  br label %483

483:                                              ; preds = %480, %363
  %484 = phi i32 [ %365, %363 ], [ %482, %480 ]
  %485 = getelementptr i16, i16* %262, i64 %80
  %486 = icmp ult i32 %484, 16
  br i1 %486, label %487, label %570

487:                                              ; preds = %483
  %488 = zext i32 %484 to i64
  %489 = sub nsw i64 16, %488
  %490 = icmp ult i64 %489, 8
  br i1 %490, label %538, label %491

491:                                              ; preds = %487
  %492 = getelementptr [16 x i16], [16 x i16]* @_ZL4line, i64 0, i64 %488
  %493 = getelementptr i16, i16* %95, i64 %261
  %494 = icmp ult i16* %492, %493
  %495 = icmp ult i16* %485, getelementptr inbounds ([16 x i16], [16 x i16]* @_ZL4line, i64 1, i64 0)
  %496 = and i1 %494, %495
  br i1 %496, label %538, label %497

497:                                              ; preds = %491
  %498 = and i64 %489, -8
  %499 = add nsw i64 %498, %488
  %500 = add nsw i64 %498, -8
  %501 = lshr exact i64 %500, 3
  %502 = add nuw nsw i64 %501, 1
  %503 = and i64 %502, 1
  %504 = icmp eq i64 %500, 0
  br i1 %504, label %526, label %505

505:                                              ; preds = %497
  %506 = and i64 %502, 4611686018427387902
  %507 = load i16, i16* %485, align 2, !tbaa !73, !alias.scope !92
  %508 = insertelement <8 x i16> poison, i16 %507, i64 0
  %509 = shufflevector <8 x i16> %508, <8 x i16> poison, <8 x i32> zeroinitializer
  %510 = load i16, i16* %485, align 2, !tbaa !73, !alias.scope !92
  %511 = insertelement <8 x i16> poison, i16 %510, i64 0
  %512 = shufflevector <8 x i16> %511, <8 x i16> poison, <8 x i32> zeroinitializer
  br label %513

513:                                              ; preds = %513, %505
  %514 = phi i64 [ 0, %505 ], [ %523, %513 ]
  %515 = phi i64 [ 0, %505 ], [ %524, %513 ]
  %516 = add i64 %514, %488
  %517 = getelementptr inbounds [16 x i16], [16 x i16]* @_ZL4line, i64 0, i64 %516
  %518 = bitcast i16* %517 to <8 x i16>*
  store <8 x i16> %509, <8 x i16>* %518, align 2, !tbaa !73, !alias.scope !95, !noalias !92
  %519 = or i64 %514, 8
  %520 = add i64 %519, %488
  %521 = getelementptr inbounds [16 x i16], [16 x i16]* @_ZL4line, i64 0, i64 %520
  %522 = bitcast i16* %521 to <8 x i16>*
  store <8 x i16> %512, <8 x i16>* %522, align 2, !tbaa !73, !alias.scope !95, !noalias !92
  %523 = add nuw i64 %514, 16
  %524 = add i64 %515, 2
  %525 = icmp eq i64 %524, %506
  br i1 %525, label %526, label %513, !llvm.loop !97

526:                                              ; preds = %513, %497
  %527 = phi i64 [ 0, %497 ], [ %523, %513 ]
  %528 = icmp eq i64 %503, 0
  br i1 %528, label %536, label %529

529:                                              ; preds = %526
  %530 = add i64 %527, %488
  %531 = load i16, i16* %485, align 2, !tbaa !73, !alias.scope !92
  %532 = insertelement <8 x i16> poison, i16 %531, i64 0
  %533 = shufflevector <8 x i16> %532, <8 x i16> poison, <8 x i32> zeroinitializer
  %534 = getelementptr inbounds [16 x i16], [16 x i16]* @_ZL4line, i64 0, i64 %530
  %535 = bitcast i16* %534 to <8 x i16>*
  store <8 x i16> %533, <8 x i16>* %535, align 2, !tbaa !73, !alias.scope !95, !noalias !92
  br label %536

536:                                              ; preds = %526, %529
  %537 = icmp eq i64 %489, %498
  br i1 %537, label %570, label %538

538:                                              ; preds = %491, %487, %536
  %539 = phi i64 [ %488, %491 ], [ %488, %487 ], [ %499, %536 ]
  %540 = sub nsw i64 0, %539
  %541 = and i64 %540, 3
  %542 = icmp eq i64 %541, 0
  br i1 %542, label %551, label %543

543:                                              ; preds = %538, %543
  %544 = phi i64 [ %548, %543 ], [ %539, %538 ]
  %545 = phi i64 [ %549, %543 ], [ 0, %538 ]
  %546 = load i16, i16* %485, align 2, !tbaa !73
  %547 = getelementptr inbounds [16 x i16], [16 x i16]* @_ZL4line, i64 0, i64 %544
  store i16 %546, i16* %547, align 2, !tbaa !73
  %548 = add nuw nsw i64 %544, 1
  %549 = add i64 %545, 1
  %550 = icmp eq i64 %549, %541
  br i1 %550, label %551, label %543, !llvm.loop !98

551:                                              ; preds = %543, %538
  %552 = phi i64 [ %539, %538 ], [ %548, %543 ]
  %553 = add nsw i64 %539, -13
  %554 = icmp ult i64 %553, 3
  br i1 %554, label %570, label %555

555:                                              ; preds = %551, %555
  %556 = phi i64 [ %568, %555 ], [ %552, %551 ]
  %557 = load i16, i16* %485, align 2, !tbaa !73
  %558 = getelementptr inbounds [16 x i16], [16 x i16]* @_ZL4line, i64 0, i64 %556
  store i16 %557, i16* %558, align 2, !tbaa !73
  %559 = add nuw nsw i64 %556, 1
  %560 = load i16, i16* %485, align 2, !tbaa !73
  %561 = getelementptr inbounds [16 x i16], [16 x i16]* @_ZL4line, i64 0, i64 %559
  store i16 %560, i16* %561, align 2, !tbaa !73
  %562 = add nuw nsw i64 %556, 2
  %563 = load i16, i16* %485, align 2, !tbaa !73
  %564 = getelementptr inbounds [16 x i16], [16 x i16]* @_ZL4line, i64 0, i64 %562
  store i16 %563, i16* %564, align 2, !tbaa !73
  %565 = add nuw nsw i64 %556, 3
  %566 = load i16, i16* %485, align 2, !tbaa !73
  %567 = getelementptr inbounds [16 x i16], [16 x i16]* @_ZL4line, i64 0, i64 %565
  store i16 %566, i16* %567, align 2, !tbaa !73
  %568 = add nuw nsw i64 %556, 4
  %569 = icmp eq i64 %568, 16
  br i1 %569, label %570, label %555, !llvm.loop !99

570:                                              ; preds = %551, %555, %536, %483, %263, %251
  %571 = phi i16* [ %253, %251 ], [ %264, %263 ], [ getelementptr inbounds ([16 x i16], [16 x i16]* @_ZL4line, i64 0, i64 0), %483 ], [ getelementptr inbounds ([16 x i16], [16 x i16]* @_ZL4line, i64 0, i64 0), %536 ], [ getelementptr inbounds ([16 x i16], [16 x i16]* @_ZL4line, i64 0, i64 0), %555 ], [ getelementptr inbounds ([16 x i16], [16 x i16]* @_ZL4line, i64 0, i64 0), %551 ]
  %572 = add nsw i64 %244, 1
  %573 = bitcast i16* %571 to <4 x i16>*
  %574 = load <4 x i16>, <4 x i16>* %573, align 2, !tbaa !73
  %575 = sext <4 x i16> %574 to <4 x i32>
  %576 = bitcast i16* %249 to <4 x i16>*
  %577 = load <4 x i16>, <4 x i16>* %576, align 2, !tbaa !73
  %578 = zext <4 x i16> %577 to <4 x i32>
  %579 = sub nsw <4 x i32> %575, %578
  %580 = call <4 x i32> @llvm.abs.v4i32(<4 x i32> %579, i1 true)
  %581 = getelementptr inbounds i16, i16* %571, i64 4
  %582 = getelementptr inbounds i16, i16* %249, i64 4
  %583 = call i32 @llvm.vector.reduce.add.v4i32(<4 x i32> %580)
  %584 = add nsw i32 %583, %248
  %585 = bitcast i16* %581 to <4 x i16>*
  %586 = load <4 x i16>, <4 x i16>* %585, align 2, !tbaa !73
  %587 = sext <4 x i16> %586 to <4 x i32>
  %588 = bitcast i16* %582 to <4 x i16>*
  %589 = load <4 x i16>, <4 x i16>* %588, align 2, !tbaa !73
  %590 = zext <4 x i16> %589 to <4 x i32>
  %591 = sub nsw <4 x i32> %587, %590
  %592 = call <4 x i32> @llvm.abs.v4i32(<4 x i32> %591, i1 true)
  %593 = getelementptr inbounds i16, i16* %571, i64 8
  %594 = getelementptr inbounds i16, i16* %249, i64 8
  %595 = call i32 @llvm.vector.reduce.add.v4i32(<4 x i32> %592)
  %596 = add nsw i32 %595, %247
  %597 = bitcast i16* %593 to <4 x i16>*
  %598 = load <4 x i16>, <4 x i16>* %597, align 2, !tbaa !73
  %599 = sext <4 x i16> %598 to <4 x i32>
  %600 = bitcast i16* %594 to <4 x i16>*
  %601 = load <4 x i16>, <4 x i16>* %600, align 2, !tbaa !73
  %602 = zext <4 x i16> %601 to <4 x i32>
  %603 = sub nsw <4 x i32> %599, %602
  %604 = call <4 x i32> @llvm.abs.v4i32(<4 x i32> %603, i1 true)
  %605 = getelementptr inbounds i16, i16* %571, i64 12
  %606 = getelementptr inbounds i16, i16* %249, i64 12
  %607 = call i32 @llvm.vector.reduce.add.v4i32(<4 x i32> %604)
  %608 = add nsw i32 %607, %246
  %609 = bitcast i16* %605 to <4 x i16>*
  %610 = load <4 x i16>, <4 x i16>* %609, align 2, !tbaa !73
  %611 = sext <4 x i16> %610 to <4 x i32>
  %612 = bitcast i16* %606 to <4 x i16>*
  %613 = load <4 x i16>, <4 x i16>* %612, align 2, !tbaa !73
  %614 = zext <4 x i16> %613 to <4 x i32>
  %615 = sub nsw <4 x i32> %611, %614
  %616 = call <4 x i32> @llvm.abs.v4i32(<4 x i32> %615, i1 true)
  %617 = getelementptr inbounds i16, i16* %249, i64 16
  %618 = call i32 @llvm.vector.reduce.add.v4i32(<4 x i32> %616)
  %619 = add nsw i32 %618, %245
  %620 = add nuw nsw i32 %250, 1
  %621 = icmp eq i32 %620, 4
  br i1 %621, label %622, label %243, !llvm.loop !100

622:                                              ; preds = %570
  %623 = getelementptr i16, i16* %239, i64 64
  %624 = trunc i64 %572 to i32
  %625 = trunc i32 %584 to i16
  %626 = getelementptr inbounds i16, i16* %238, i64 %175
  store i16 %625, i16* %626, align 2, !tbaa !73
  %627 = trunc i32 %596 to i16
  %628 = getelementptr inbounds i16, i16* %238, i64 %223
  store i16 %627, i16* %628, align 2, !tbaa !73
  %629 = trunc i32 %608 to i16
  %630 = getelementptr inbounds i16, i16* %238, i64 %224
  store i16 %629, i16* %630, align 2, !tbaa !73
  %631 = trunc i32 %619 to i16
  %632 = getelementptr inbounds i16, i16* %238, i64 %225
  store i16 %631, i16* %632, align 2, !tbaa !73
  %633 = getelementptr inbounds i16, i16* %238, i64 4384
  %634 = add nuw nsw i32 %241, 1
  %635 = icmp eq i32 %634, 4
  br i1 %635, label %636, label %237, !llvm.loop !101

636:                                              ; preds = %622
  %637 = add nsw i64 %176, 1
  %638 = add nuw nsw i64 %175, 1
  %639 = icmp eq i64 %638, %172
  %640 = add i32 %174, 1
  br i1 %639, label %641, label %173, !llvm.loop !102

641:                                              ; preds = %636
  %642 = add nsw i32 %168, 1
  %643 = icmp eq i32 %642, 17
  br i1 %643, label %644, label %166, !llvm.loop !103

644:                                              ; preds = %641
  call void @llvm.lifetime.end.p0i8(i64 512, i8* nonnull %11) #25
  %645 = add nuw nsw i64 %109, 1
  %646 = icmp eq i64 %645, %93
  br i1 %646, label %647, label %108, !llvm.loop !104

647:                                              ; preds = %644
  %648 = add nuw nsw i64 %99, 1
  %649 = add i32 %100, %84
  %650 = icmp eq i64 %648, %92
  br i1 %650, label %651, label %98, !llvm.loop !105

651:                                              ; preds = %647, %5
  ret void
}

; Function Attrs: mustprogress nofree norecurse nosync nounwind uwtable
define dso_local i16* @create_padded_row(i16* readonly %0, i32 %1, i32 %2, i32 %3, i32 %4) local_unnamed_addr #15 {
  %6 = icmp slt i32 %1, 0
  %7 = icmp slt i32 %1, %3
  %8 = add nsw i32 %3, -1
  %9 = select i1 %7, i32 %1, i32 %8
  %10 = select i1 %6, i32 0, i32 %9
  %11 = mul nsw i32 %10, %4
  %12 = sext i32 %11 to i64
  %13 = getelementptr i16, i16* %0, i64 %12
  %14 = icmp slt i32 %2, 0
  %15 = add nsw i32 %4, -16
  %16 = icmp slt i32 %15, %2
  %17 = select i1 %14, i1 true, i1 %16
  br i1 %17, label %18, label %118

18:                                               ; preds = %5
  br i1 %14, label %19, label %121

19:                                               ; preds = %18
  %20 = icmp ugt i32 %2, -16
  %21 = select i1 %20, i32 %2, i32 -16
  %22 = sub nsw i32 0, %21
  %23 = zext i32 %22 to i64
  %24 = icmp ult i32 %22, 4
  br i1 %24, label %96, label %25

25:                                               ; preds = %19
  %26 = getelementptr [16 x i16], [16 x i16]* @_ZL4line, i64 0, i64 %23
  %27 = add nsw i64 %12, 1
  %28 = getelementptr i16, i16* %0, i64 %27
  %29 = icmp ugt i16* %28, getelementptr inbounds ([16 x i16], [16 x i16]* @_ZL4line, i64 0, i64 0)
  %30 = icmp ult i16* %13, %26
  %31 = and i1 %29, %30
  br i1 %31, label %96, label %32

32:                                               ; preds = %25
  %33 = and i64 %23, 28
  %34 = insertelement <4 x i32> <i32 poison, i32 0, i32 0, i32 0>, i32 %2, i64 0
  %35 = add nsw i64 %33, -4
  %36 = lshr exact i64 %35, 2
  %37 = add nuw nsw i64 %36, 1
  %38 = and i64 %37, 3
  %39 = icmp ult i64 %35, 12
  br i1 %39, label %73, label %40

40:                                               ; preds = %32
  %41 = and i64 %37, 9223372036854775804
  %42 = load i16, i16* %13, align 2, !tbaa !73, !alias.scope !106
  %43 = insertelement <4 x i16> poison, i16 %42, i64 0
  %44 = shufflevector <4 x i16> %43, <4 x i16> poison, <4 x i32> zeroinitializer
  %45 = load i16, i16* %13, align 2, !tbaa !73, !alias.scope !106
  %46 = insertelement <4 x i16> poison, i16 %45, i64 0
  %47 = shufflevector <4 x i16> %46, <4 x i16> poison, <4 x i32> zeroinitializer
  %48 = load i16, i16* %13, align 2, !tbaa !73, !alias.scope !106
  %49 = insertelement <4 x i16> poison, i16 %48, i64 0
  %50 = shufflevector <4 x i16> %49, <4 x i16> poison, <4 x i32> zeroinitializer
  %51 = load i16, i16* %13, align 2, !tbaa !73, !alias.scope !106
  %52 = insertelement <4 x i16> poison, i16 %51, i64 0
  %53 = shufflevector <4 x i16> %52, <4 x i16> poison, <4 x i32> zeroinitializer
  br label %54

54:                                               ; preds = %54, %40
  %55 = phi i64 [ 0, %40 ], [ %70, %54 ]
  %56 = phi <4 x i32> [ %34, %40 ], [ %69, %54 ]
  %57 = phi i64 [ 0, %40 ], [ %71, %54 ]
  %58 = getelementptr inbounds [16 x i16], [16 x i16]* @_ZL4line, i64 0, i64 %55
  %59 = bitcast i16* %58 to <4 x i16>*
  store <4 x i16> %44, <4 x i16>* %59, align 16, !tbaa !73, !alias.scope !109, !noalias !106
  %60 = or i64 %55, 4
  %61 = getelementptr inbounds [16 x i16], [16 x i16]* @_ZL4line, i64 0, i64 %60
  %62 = bitcast i16* %61 to <4 x i16>*
  store <4 x i16> %47, <4 x i16>* %62, align 8, !tbaa !73, !alias.scope !109, !noalias !106
  %63 = or i64 %55, 8
  %64 = getelementptr inbounds [16 x i16], [16 x i16]* @_ZL4line, i64 0, i64 %63
  %65 = bitcast i16* %64 to <4 x i16>*
  store <4 x i16> %50, <4 x i16>* %65, align 16, !tbaa !73, !alias.scope !109, !noalias !106
  %66 = or i64 %55, 12
  %67 = getelementptr inbounds [16 x i16], [16 x i16]* @_ZL4line, i64 0, i64 %66
  %68 = bitcast i16* %67 to <4 x i16>*
  store <4 x i16> %53, <4 x i16>* %68, align 8, !tbaa !73, !alias.scope !109, !noalias !106
  %69 = add <4 x i32> %56, <i32 4, i32 4, i32 4, i32 4>
  %70 = add nuw i64 %55, 16
  %71 = add nuw i64 %57, 4
  %72 = icmp eq i64 %71, %41
  br i1 %72, label %73, label %54, !llvm.loop !111

73:                                               ; preds = %54, %32
  %74 = phi <4 x i32> [ undef, %32 ], [ %69, %54 ]
  %75 = phi i64 [ 0, %32 ], [ %70, %54 ]
  %76 = phi <4 x i32> [ %34, %32 ], [ %69, %54 ]
  %77 = icmp eq i64 %38, 0
  br i1 %77, label %92, label %78

78:                                               ; preds = %73
  %79 = load i16, i16* %13, align 2, !tbaa !73, !alias.scope !106
  %80 = insertelement <4 x i16> poison, i16 %79, i64 0
  %81 = shufflevector <4 x i16> %80, <4 x i16> poison, <4 x i32> zeroinitializer
  br label %82

82:                                               ; preds = %82, %78
  %83 = phi i64 [ %75, %78 ], [ %89, %82 ]
  %84 = phi <4 x i32> [ %76, %78 ], [ %88, %82 ]
  %85 = phi i64 [ 0, %78 ], [ %90, %82 ]
  %86 = getelementptr inbounds [16 x i16], [16 x i16]* @_ZL4line, i64 0, i64 %83
  %87 = bitcast i16* %86 to <4 x i16>*
  store <4 x i16> %81, <4 x i16>* %87, align 8, !tbaa !73, !alias.scope !109, !noalias !106
  %88 = add <4 x i32> %84, <i32 1, i32 1, i32 1, i32 1>
  %89 = add nuw i64 %83, 4
  %90 = add i64 %85, 1
  %91 = icmp eq i64 %90, %38
  br i1 %91, label %92, label %82, !llvm.loop !112

92:                                               ; preds = %82, %73
  %93 = phi <4 x i32> [ %74, %73 ], [ %88, %82 ]
  %94 = call i32 @llvm.vector.reduce.add.v4i32(<4 x i32> %93)
  %95 = icmp eq i64 %33, %23
  br i1 %95, label %121, label %96

96:                                               ; preds = %25, %19, %92
  %97 = phi i64 [ 0, %25 ], [ 0, %19 ], [ %33, %92 ]
  %98 = phi i32 [ %2, %25 ], [ %2, %19 ], [ %94, %92 ]
  %99 = xor i64 %97, -1
  %100 = add nsw i64 %99, %23
  %101 = and i64 %23, 3
  %102 = icmp eq i64 %101, 0
  br i1 %102, label %113, label %103

103:                                              ; preds = %96, %103
  %104 = phi i64 [ %110, %103 ], [ %97, %96 ]
  %105 = phi i32 [ %109, %103 ], [ %98, %96 ]
  %106 = phi i64 [ %111, %103 ], [ 0, %96 ]
  %107 = load i16, i16* %13, align 2, !tbaa !73
  %108 = getelementptr inbounds [16 x i16], [16 x i16]* @_ZL4line, i64 0, i64 %104
  store i16 %107, i16* %108, align 2, !tbaa !73
  %109 = add nsw i32 %105, 1
  %110 = add nuw nsw i64 %104, 1
  %111 = add i64 %106, 1
  %112 = icmp eq i64 %111, %101
  br i1 %112, label %113, label %103, !llvm.loop !113

113:                                              ; preds = %103, %96
  %114 = phi i32 [ undef, %96 ], [ %109, %103 ]
  %115 = phi i64 [ %97, %96 ], [ %110, %103 ]
  %116 = phi i32 [ %98, %96 ], [ %109, %103 ]
  %117 = icmp ult i64 %100, 3
  br i1 %117, label %121, label %230

118:                                              ; preds = %5
  %119 = zext i32 %2 to i64
  %120 = getelementptr inbounds i16, i16* %13, i64 %119
  br label %352

121:                                              ; preds = %113, %230, %92, %18
  %122 = phi i32 [ %2, %18 ], [ %94, %92 ], [ %114, %113 ], [ %244, %230 ]
  %123 = phi i32 [ 0, %18 ], [ %22, %92 ], [ %22, %230 ], [ %22, %113 ]
  %124 = icmp slt i32 %122, %4
  %125 = icmp ult i32 %123, 16
  %126 = select i1 %124, i1 %125, i1 false
  br i1 %126, label %127, label %250

127:                                              ; preds = %121
  %128 = zext i32 %123 to i64
  %129 = sext i32 %122 to i64
  %130 = sext i32 %4 to i64
  %131 = xor i64 %129, -1
  %132 = add nsw i64 %131, %130
  %133 = sub nsw i64 15, %128
  %134 = icmp eq i64 %132, 0
  %135 = icmp ult i64 %133, %132
  %136 = select i1 %135, i64 %133, i64 %132
  %137 = add nsw i64 %136, 1
  %138 = select i1 %134, i64 1, i64 %137
  %139 = icmp ult i64 %138, 8
  br i1 %139, label %227, label %140

140:                                              ; preds = %127
  %141 = getelementptr [16 x i16], [16 x i16]* @_ZL4line, i64 0, i64 %128
  %142 = xor i64 %129, -1
  %143 = add nsw i64 %142, %130
  %144 = sub nsw i64 15, %128
  %145 = icmp eq i64 %143, 0
  %146 = icmp ult i64 %144, %143
  %147 = select i1 %146, i64 %144, i64 %143
  %148 = select i1 %145, i64 0, i64 %147
  %149 = add nsw i64 %148, %128
  %150 = add nsw i64 %149, 1
  %151 = getelementptr [16 x i16], [16 x i16]* @_ZL4line, i64 0, i64 %150
  %152 = add nsw i64 %129, %12
  %153 = getelementptr i16, i16* %0, i64 %152
  %154 = add nsw i64 %148, %129
  %155 = add nsw i64 %154, %12
  %156 = add i64 %155, 1
  %157 = getelementptr i16, i16* %0, i64 %156
  %158 = icmp ult i16* %141, %157
  %159 = icmp ult i16* %153, %151
  %160 = and i1 %158, %159
  br i1 %160, label %227, label %161

161:                                              ; preds = %140
  %162 = and i64 %138, -8
  %163 = add i64 %162, %129
  %164 = add i64 %162, %128
  %165 = add i64 %162, -8
  %166 = lshr exact i64 %165, 3
  %167 = add nuw nsw i64 %166, 1
  %168 = and i64 %167, 3
  %169 = icmp ult i64 %165, 24
  br i1 %169, label %209, label %170

170:                                              ; preds = %161
  %171 = and i64 %167, 4611686018427387900
  br label %172

172:                                              ; preds = %172, %170
  %173 = phi i64 [ 0, %170 ], [ %206, %172 ]
  %174 = phi i64 [ 0, %170 ], [ %207, %172 ]
  %175 = add i64 %173, %129
  %176 = add i64 %173, %128
  %177 = getelementptr inbounds i16, i16* %13, i64 %175
  %178 = bitcast i16* %177 to <8 x i16>*
  %179 = load <8 x i16>, <8 x i16>* %178, align 2, !tbaa !73, !alias.scope !114
  %180 = getelementptr inbounds [16 x i16], [16 x i16]* @_ZL4line, i64 0, i64 %176
  %181 = bitcast i16* %180 to <8 x i16>*
  store <8 x i16> %179, <8 x i16>* %181, align 2, !tbaa !73, !alias.scope !117, !noalias !114
  %182 = or i64 %173, 8
  %183 = add i64 %182, %129
  %184 = add i64 %182, %128
  %185 = getelementptr inbounds i16, i16* %13, i64 %183
  %186 = bitcast i16* %185 to <8 x i16>*
  %187 = load <8 x i16>, <8 x i16>* %186, align 2, !tbaa !73, !alias.scope !114
  %188 = getelementptr inbounds [16 x i16], [16 x i16]* @_ZL4line, i64 0, i64 %184
  %189 = bitcast i16* %188 to <8 x i16>*
  store <8 x i16> %187, <8 x i16>* %189, align 2, !tbaa !73, !alias.scope !117, !noalias !114
  %190 = or i64 %173, 16
  %191 = add i64 %190, %129
  %192 = add i64 %190, %128
  %193 = getelementptr inbounds i16, i16* %13, i64 %191
  %194 = bitcast i16* %193 to <8 x i16>*
  %195 = load <8 x i16>, <8 x i16>* %194, align 2, !tbaa !73, !alias.scope !114
  %196 = getelementptr inbounds [16 x i16], [16 x i16]* @_ZL4line, i64 0, i64 %192
  %197 = bitcast i16* %196 to <8 x i16>*
  store <8 x i16> %195, <8 x i16>* %197, align 2, !tbaa !73, !alias.scope !117, !noalias !114
  %198 = or i64 %173, 24
  %199 = add i64 %198, %129
  %200 = add i64 %198, %128
  %201 = getelementptr inbounds i16, i16* %13, i64 %199
  %202 = bitcast i16* %201 to <8 x i16>*
  %203 = load <8 x i16>, <8 x i16>* %202, align 2, !tbaa !73, !alias.scope !114
  %204 = getelementptr inbounds [16 x i16], [16 x i16]* @_ZL4line, i64 0, i64 %200
  %205 = bitcast i16* %204 to <8 x i16>*
  store <8 x i16> %203, <8 x i16>* %205, align 2, !tbaa !73, !alias.scope !117, !noalias !114
  %206 = add nuw i64 %173, 32
  %207 = add i64 %174, 4
  %208 = icmp eq i64 %207, %171
  br i1 %208, label %209, label %172, !llvm.loop !119

209:                                              ; preds = %172, %161
  %210 = phi i64 [ 0, %161 ], [ %206, %172 ]
  %211 = icmp eq i64 %168, 0
  br i1 %211, label %225, label %212

212:                                              ; preds = %209, %212
  %213 = phi i64 [ %222, %212 ], [ %210, %209 ]
  %214 = phi i64 [ %223, %212 ], [ 0, %209 ]
  %215 = add i64 %213, %129
  %216 = add i64 %213, %128
  %217 = getelementptr inbounds i16, i16* %13, i64 %215
  %218 = bitcast i16* %217 to <8 x i16>*
  %219 = load <8 x i16>, <8 x i16>* %218, align 2, !tbaa !73, !alias.scope !114
  %220 = getelementptr inbounds [16 x i16], [16 x i16]* @_ZL4line, i64 0, i64 %216
  %221 = bitcast i16* %220 to <8 x i16>*
  store <8 x i16> %219, <8 x i16>* %221, align 2, !tbaa !73, !alias.scope !117, !noalias !114
  %222 = add nuw i64 %213, 8
  %223 = add i64 %214, 1
  %224 = icmp eq i64 %223, %168
  br i1 %224, label %225, label %212, !llvm.loop !120

225:                                              ; preds = %212, %209
  %226 = icmp eq i64 %138, %162
  br i1 %226, label %247, label %227

227:                                              ; preds = %140, %127, %225
  %228 = phi i64 [ %129, %140 ], [ %129, %127 ], [ %163, %225 ]
  %229 = phi i64 [ %128, %140 ], [ %128, %127 ], [ %164, %225 ]
  br label %326

230:                                              ; preds = %113, %230
  %231 = phi i64 [ %245, %230 ], [ %115, %113 ]
  %232 = phi i32 [ %244, %230 ], [ %116, %113 ]
  %233 = load i16, i16* %13, align 2, !tbaa !73
  %234 = getelementptr inbounds [16 x i16], [16 x i16]* @_ZL4line, i64 0, i64 %231
  store i16 %233, i16* %234, align 2, !tbaa !73
  %235 = add nuw nsw i64 %231, 1
  %236 = load i16, i16* %13, align 2, !tbaa !73
  %237 = getelementptr inbounds [16 x i16], [16 x i16]* @_ZL4line, i64 0, i64 %235
  store i16 %236, i16* %237, align 2, !tbaa !73
  %238 = add nuw nsw i64 %231, 2
  %239 = load i16, i16* %13, align 2, !tbaa !73
  %240 = getelementptr inbounds [16 x i16], [16 x i16]* @_ZL4line, i64 0, i64 %238
  store i16 %239, i16* %240, align 2, !tbaa !73
  %241 = add nuw nsw i64 %231, 3
  %242 = load i16, i16* %13, align 2, !tbaa !73
  %243 = getelementptr inbounds [16 x i16], [16 x i16]* @_ZL4line, i64 0, i64 %241
  store i16 %242, i16* %243, align 2, !tbaa !73
  %244 = add nsw i32 %232, 4
  %245 = add nuw nsw i64 %231, 4
  %246 = icmp eq i64 %245, %23
  br i1 %246, label %121, label %230, !llvm.loop !121

247:                                              ; preds = %326, %225
  %248 = phi i64 [ %164, %225 ], [ %333, %326 ]
  %249 = trunc i64 %248 to i32
  br label %250

250:                                              ; preds = %247, %121
  %251 = phi i32 [ %123, %121 ], [ %249, %247 ]
  %252 = add nsw i32 %4, -1
  %253 = sext i32 %252 to i64
  %254 = getelementptr i16, i16* %13, i64 %253
  %255 = icmp ult i32 %251, 16
  br i1 %255, label %256, label %352

256:                                              ; preds = %250
  %257 = zext i32 %251 to i64
  %258 = sub nsw i64 16, %257
  %259 = icmp ult i64 %258, 8
  br i1 %259, label %309, label %260

260:                                              ; preds = %256
  %261 = getelementptr [16 x i16], [16 x i16]* @_ZL4line, i64 0, i64 %257
  %262 = add nsw i64 %12, %253
  %263 = add nsw i64 %262, 1
  %264 = getelementptr i16, i16* %0, i64 %263
  %265 = icmp ult i16* %261, %264
  %266 = icmp ult i16* %254, getelementptr inbounds ([16 x i16], [16 x i16]* @_ZL4line, i64 1, i64 0)
  %267 = and i1 %265, %266
  br i1 %267, label %309, label %268

268:                                              ; preds = %260
  %269 = and i64 %258, -8
  %270 = add nsw i64 %269, %257
  %271 = add nsw i64 %269, -8
  %272 = lshr exact i64 %271, 3
  %273 = add nuw nsw i64 %272, 1
  %274 = and i64 %273, 1
  %275 = icmp eq i64 %271, 0
  br i1 %275, label %297, label %276

276:                                              ; preds = %268
  %277 = and i64 %273, 4611686018427387902
  %278 = load i16, i16* %254, align 2, !tbaa !73, !alias.scope !122
  %279 = insertelement <8 x i16> poison, i16 %278, i64 0
  %280 = shufflevector <8 x i16> %279, <8 x i16> poison, <8 x i32> zeroinitializer
  %281 = load i16, i16* %254, align 2, !tbaa !73, !alias.scope !122
  %282 = insertelement <8 x i16> poison, i16 %281, i64 0
  %283 = shufflevector <8 x i16> %282, <8 x i16> poison, <8 x i32> zeroinitializer
  br label %284

284:                                              ; preds = %284, %276
  %285 = phi i64 [ 0, %276 ], [ %294, %284 ]
  %286 = phi i64 [ 0, %276 ], [ %295, %284 ]
  %287 = add i64 %285, %257
  %288 = getelementptr inbounds [16 x i16], [16 x i16]* @_ZL4line, i64 0, i64 %287
  %289 = bitcast i16* %288 to <8 x i16>*
  store <8 x i16> %280, <8 x i16>* %289, align 2, !tbaa !73, !alias.scope !125, !noalias !122
  %290 = or i64 %285, 8
  %291 = add i64 %290, %257
  %292 = getelementptr inbounds [16 x i16], [16 x i16]* @_ZL4line, i64 0, i64 %291
  %293 = bitcast i16* %292 to <8 x i16>*
  store <8 x i16> %283, <8 x i16>* %293, align 2, !tbaa !73, !alias.scope !125, !noalias !122
  %294 = add nuw i64 %285, 16
  %295 = add i64 %286, 2
  %296 = icmp eq i64 %295, %277
  br i1 %296, label %297, label %284, !llvm.loop !127

297:                                              ; preds = %284, %268
  %298 = phi i64 [ 0, %268 ], [ %294, %284 ]
  %299 = icmp eq i64 %274, 0
  br i1 %299, label %307, label %300

300:                                              ; preds = %297
  %301 = add i64 %298, %257
  %302 = load i16, i16* %254, align 2, !tbaa !73, !alias.scope !122
  %303 = insertelement <8 x i16> poison, i16 %302, i64 0
  %304 = shufflevector <8 x i16> %303, <8 x i16> poison, <8 x i32> zeroinitializer
  %305 = getelementptr inbounds [16 x i16], [16 x i16]* @_ZL4line, i64 0, i64 %301
  %306 = bitcast i16* %305 to <8 x i16>*
  store <8 x i16> %304, <8 x i16>* %306, align 2, !tbaa !73, !alias.scope !125, !noalias !122
  br label %307

307:                                              ; preds = %297, %300
  %308 = icmp eq i64 %258, %269
  br i1 %308, label %352, label %309

309:                                              ; preds = %260, %256, %307
  %310 = phi i64 [ %257, %260 ], [ %257, %256 ], [ %270, %307 ]
  %311 = sub nsw i64 0, %310
  %312 = and i64 %311, 3
  %313 = icmp eq i64 %312, 0
  br i1 %313, label %322, label %314

314:                                              ; preds = %309, %314
  %315 = phi i64 [ %319, %314 ], [ %310, %309 ]
  %316 = phi i64 [ %320, %314 ], [ 0, %309 ]
  %317 = load i16, i16* %254, align 2, !tbaa !73
  %318 = getelementptr inbounds [16 x i16], [16 x i16]* @_ZL4line, i64 0, i64 %315
  store i16 %317, i16* %318, align 2, !tbaa !73
  %319 = add nuw nsw i64 %315, 1
  %320 = add i64 %316, 1
  %321 = icmp eq i64 %320, %312
  br i1 %321, label %322, label %314, !llvm.loop !128

322:                                              ; preds = %314, %309
  %323 = phi i64 [ %310, %309 ], [ %319, %314 ]
  %324 = add nsw i64 %310, -13
  %325 = icmp ult i64 %324, 3
  br i1 %325, label %352, label %337

326:                                              ; preds = %227, %326
  %327 = phi i64 [ %332, %326 ], [ %228, %227 ]
  %328 = phi i64 [ %333, %326 ], [ %229, %227 ]
  %329 = getelementptr inbounds i16, i16* %13, i64 %327
  %330 = load i16, i16* %329, align 2, !tbaa !73
  %331 = getelementptr inbounds [16 x i16], [16 x i16]* @_ZL4line, i64 0, i64 %328
  store i16 %330, i16* %331, align 2, !tbaa !73
  %332 = add nsw i64 %327, 1
  %333 = add nuw nsw i64 %328, 1
  %334 = icmp slt i64 %332, %130
  %335 = icmp ult i64 %328, 15
  %336 = select i1 %334, i1 %335, i1 false
  br i1 %336, label %326, label %247, !llvm.loop !129

337:                                              ; preds = %322, %337
  %338 = phi i64 [ %350, %337 ], [ %323, %322 ]
  %339 = load i16, i16* %254, align 2, !tbaa !73
  %340 = getelementptr inbounds [16 x i16], [16 x i16]* @_ZL4line, i64 0, i64 %338
  store i16 %339, i16* %340, align 2, !tbaa !73
  %341 = add nuw nsw i64 %338, 1
  %342 = load i16, i16* %254, align 2, !tbaa !73
  %343 = getelementptr inbounds [16 x i16], [16 x i16]* @_ZL4line, i64 0, i64 %341
  store i16 %342, i16* %343, align 2, !tbaa !73
  %344 = add nuw nsw i64 %338, 2
  %345 = load i16, i16* %254, align 2, !tbaa !73
  %346 = getelementptr inbounds [16 x i16], [16 x i16]* @_ZL4line, i64 0, i64 %344
  store i16 %345, i16* %346, align 2, !tbaa !73
  %347 = add nuw nsw i64 %338, 3
  %348 = load i16, i16* %254, align 2, !tbaa !73
  %349 = getelementptr inbounds [16 x i16], [16 x i16]* @_ZL4line, i64 0, i64 %347
  store i16 %348, i16* %349, align 2, !tbaa !73
  %350 = add nuw nsw i64 %338, 4
  %351 = icmp eq i64 %350, 16
  br i1 %351, label %352, label %337, !llvm.loop !130

352:                                              ; preds = %322, %337, %307, %250, %118
  %353 = phi i16* [ %120, %118 ], [ getelementptr inbounds ([16 x i16], [16 x i16]* @_ZL4line, i64 0, i64 0), %250 ], [ getelementptr inbounds ([16 x i16], [16 x i16]* @_ZL4line, i64 0, i64 0), %307 ], [ getelementptr inbounds ([16 x i16], [16 x i16]* @_ZL4line, i64 0, i64 0), %337 ], [ getelementptr inbounds ([16 x i16], [16 x i16]* @_ZL4line, i64 0, i64 0), %322 ]
  ret i16* %353
}

; Function Attrs: mustprogress nofree norecurse nosync nounwind uwtable
define dso_local void @larger_sads(i16* nocapture %0, i32 %1) local_unnamed_addr #15 {
  %3 = mul nsw i32 %1, 27400
  %4 = sext i32 %3 to i64
  %5 = getelementptr inbounds i16, i16* %0, i64 %4
  %6 = mul nsw i32 %1, 18632
  %7 = sext i32 %6 to i64
  %8 = getelementptr inbounds i16, i16* %0, i64 %7
  %9 = mul nsw i32 %1, 9864
  %10 = sext i32 %9 to i64
  %11 = getelementptr inbounds i16, i16* %0, i64 %10
  %12 = mul nsw i32 %1, 5480
  %13 = sext i32 %12 to i64
  %14 = getelementptr inbounds i16, i16* %0, i64 %13
  %15 = mul nsw i32 %1, 3288
  %16 = sext i32 %15 to i64
  %17 = getelementptr inbounds i16, i16* %0, i64 %16
  %18 = mul nsw i32 %1, 1096
  %19 = sext i32 %18 to i64
  %20 = getelementptr inbounds i16, i16* %0, i64 %19
  %21 = icmp sgt i32 %1, 0
  br i1 %21, label %22, label %3780

22:                                               ; preds = %2
  %23 = zext i32 %1 to i64
  %24 = getelementptr i16, i16* %0, i64 1090
  %25 = getelementptr i16, i16* %0, i64 %19
  %26 = add nsw i64 %19, 1090
  %27 = getelementptr i16, i16* %0, i64 %26
  %28 = add nsw i64 %19, 1096
  %29 = getelementptr i16, i16* %0, i64 %28
  %30 = add nsw i64 %19, 2186
  %31 = getelementptr i16, i16* %0, i64 %30
  %32 = add nsw i64 %19, 1096
  %33 = getelementptr i16, i16* %0, i64 %32
  %34 = add nsw i64 %19, 2186
  %35 = getelementptr i16, i16* %0, i64 %34
  %36 = add nsw i64 %13, 2192
  %37 = getelementptr i16, i16* %0, i64 %36
  %38 = add nsw i64 %13, 3282
  %39 = getelementptr i16, i16* %0, i64 %38
  %40 = add nsw i64 %13, 3288
  %41 = getelementptr i16, i16* %0, i64 %40
  %42 = add nsw i64 %13, 4378
  %43 = getelementptr i16, i16* %0, i64 %42
  %44 = getelementptr i16, i16* %0, i64 %19
  %45 = add nsw i64 %19, 1090
  %46 = getelementptr i16, i16* %0, i64 %45
  %47 = getelementptr i16, i16* %0, i64 %13
  %48 = add nsw i64 %13, 1090
  %49 = getelementptr i16, i16* %0, i64 %48
  %50 = add nsw i64 %13, 1096
  %51 = getelementptr i16, i16* %0, i64 %50
  %52 = add nsw i64 %13, 2186
  %53 = getelementptr i16, i16* %0, i64 %52
  %54 = add nsw i64 %16, 1096
  %55 = getelementptr i16, i16* %0, i64 %54
  %56 = add nsw i64 %16, 2186
  %57 = getelementptr i16, i16* %0, i64 %56
  %58 = add nsw i64 %13, 1096
  %59 = getelementptr i16, i16* %0, i64 %58
  %60 = add nsw i64 %13, 2186
  %61 = getelementptr i16, i16* %0, i64 %60
  %62 = add nsw i64 %13, 3288
  %63 = getelementptr i16, i16* %0, i64 %62
  %64 = add nsw i64 %13, 4378
  %65 = getelementptr i16, i16* %0, i64 %64
  %66 = getelementptr i16, i16* %0, i64 %16
  %67 = add nsw i64 %16, 1090
  %68 = getelementptr i16, i16* %0, i64 %67
  %69 = getelementptr i16, i16* %0, i64 %13
  %70 = add nsw i64 %13, 1090
  %71 = getelementptr i16, i16* %0, i64 %70
  %72 = add nsw i64 %13, 2192
  %73 = getelementptr i16, i16* %0, i64 %72
  %74 = add nsw i64 %13, 3282
  %75 = getelementptr i16, i16* %0, i64 %74
  %76 = add nsw i64 %13, 3288
  %77 = getelementptr i16, i16* %0, i64 %76
  %78 = add nsw i64 %13, 4378
  %79 = getelementptr i16, i16* %0, i64 %78
  %80 = add nsw i64 %10, 5480
  %81 = getelementptr i16, i16* %0, i64 %80
  %82 = add nsw i64 %10, 6570
  %83 = getelementptr i16, i16* %0, i64 %82
  %84 = add nsw i64 %10, 7672
  %85 = getelementptr i16, i16* %0, i64 %84
  %86 = add nsw i64 %10, 8762
  %87 = getelementptr i16, i16* %0, i64 %86
  %88 = add nsw i64 %13, 2192
  %89 = getelementptr i16, i16* %0, i64 %88
  %90 = add nsw i64 %13, 3282
  %91 = getelementptr i16, i16* %0, i64 %90
  %92 = add nsw i64 %10, 4384
  %93 = getelementptr i16, i16* %0, i64 %92
  %94 = add nsw i64 %10, 5474
  %95 = getelementptr i16, i16* %0, i64 %94
  %96 = add nsw i64 %10, 6576
  %97 = getelementptr i16, i16* %0, i64 %96
  %98 = add nsw i64 %10, 7666
  %99 = getelementptr i16, i16* %0, i64 %98
  %100 = add nsw i64 %13, 1096
  %101 = getelementptr i16, i16* %0, i64 %100
  %102 = add nsw i64 %13, 2186
  %103 = getelementptr i16, i16* %0, i64 %102
  %104 = add nsw i64 %10, 1096
  %105 = getelementptr i16, i16* %0, i64 %104
  %106 = add nsw i64 %10, 2186
  %107 = getelementptr i16, i16* %0, i64 %106
  %108 = add nsw i64 %10, 3288
  %109 = getelementptr i16, i16* %0, i64 %108
  %110 = add nsw i64 %10, 4378
  %111 = getelementptr i16, i16* %0, i64 %110
  %112 = getelementptr i16, i16* %0, i64 %13
  %113 = add nsw i64 %13, 1090
  %114 = getelementptr i16, i16* %0, i64 %113
  %115 = getelementptr i16, i16* %0, i64 %10
  %116 = add nsw i64 %10, 1090
  %117 = getelementptr i16, i16* %0, i64 %116
  %118 = add nsw i64 %10, 2192
  %119 = getelementptr i16, i16* %0, i64 %118
  %120 = add nsw i64 %10, 3282
  %121 = getelementptr i16, i16* %0, i64 %120
  %122 = add nsw i64 %10, 7672
  %123 = getelementptr i16, i16* %0, i64 %122
  %124 = add nsw i64 %10, 8762
  %125 = getelementptr i16, i16* %0, i64 %124
  %126 = add nsw i64 %4, 15344
  %127 = getelementptr i16, i16* %0, i64 %126
  %128 = add nsw i64 %4, 16434
  %129 = getelementptr i16, i16* %0, i64 %128
  %130 = add nsw i64 %4, 16440
  %131 = getelementptr i16, i16* %0, i64 %130
  %132 = add nsw i64 %4, 17530
  %133 = getelementptr i16, i16* %0, i64 %132
  %134 = add nsw i64 %10, 6576
  %135 = getelementptr i16, i16* %0, i64 %134
  %136 = add nsw i64 %10, 7666
  %137 = getelementptr i16, i16* %0, i64 %136
  %138 = add nsw i64 %4, 13152
  %139 = getelementptr i16, i16* %0, i64 %138
  %140 = add nsw i64 %4, 14242
  %141 = getelementptr i16, i16* %0, i64 %140
  %142 = add nsw i64 %4, 14248
  %143 = getelementptr i16, i16* %0, i64 %142
  %144 = add nsw i64 %4, 15338
  %145 = getelementptr i16, i16* %0, i64 %144
  %146 = add nsw i64 %10, 5480
  %147 = getelementptr i16, i16* %0, i64 %146
  %148 = add nsw i64 %10, 6570
  %149 = getelementptr i16, i16* %0, i64 %148
  %150 = add nsw i64 %4, 10960
  %151 = getelementptr i16, i16* %0, i64 %150
  %152 = add nsw i64 %4, 12050
  %153 = getelementptr i16, i16* %0, i64 %152
  %154 = add nsw i64 %4, 12056
  %155 = getelementptr i16, i16* %0, i64 %154
  %156 = add nsw i64 %4, 13146
  %157 = getelementptr i16, i16* %0, i64 %156
  %158 = add nsw i64 %10, 4384
  %159 = getelementptr i16, i16* %0, i64 %158
  %160 = add nsw i64 %10, 5474
  %161 = getelementptr i16, i16* %0, i64 %160
  %162 = add nsw i64 %4, 8768
  %163 = getelementptr i16, i16* %0, i64 %162
  %164 = add nsw i64 %4, 9858
  %165 = getelementptr i16, i16* %0, i64 %164
  %166 = add nsw i64 %4, 9864
  %167 = getelementptr i16, i16* %0, i64 %166
  %168 = add nsw i64 %4, 10954
  %169 = getelementptr i16, i16* %0, i64 %168
  %170 = add nsw i64 %10, 3288
  %171 = getelementptr i16, i16* %0, i64 %170
  %172 = add nsw i64 %10, 4378
  %173 = getelementptr i16, i16* %0, i64 %172
  %174 = add nsw i64 %4, 6576
  %175 = getelementptr i16, i16* %0, i64 %174
  %176 = add nsw i64 %4, 7666
  %177 = getelementptr i16, i16* %0, i64 %176
  %178 = add nsw i64 %4, 7672
  %179 = getelementptr i16, i16* %0, i64 %178
  %180 = add nsw i64 %4, 8762
  %181 = getelementptr i16, i16* %0, i64 %180
  %182 = add nsw i64 %10, 2192
  %183 = getelementptr i16, i16* %0, i64 %182
  %184 = add nsw i64 %10, 3282
  %185 = getelementptr i16, i16* %0, i64 %184
  %186 = add nsw i64 %4, 4384
  %187 = getelementptr i16, i16* %0, i64 %186
  %188 = add nsw i64 %4, 5474
  %189 = getelementptr i16, i16* %0, i64 %188
  %190 = add nsw i64 %4, 5480
  %191 = getelementptr i16, i16* %0, i64 %190
  %192 = add nsw i64 %4, 6570
  %193 = getelementptr i16, i16* %0, i64 %192
  %194 = add nsw i64 %10, 1096
  %195 = getelementptr i16, i16* %0, i64 %194
  %196 = add nsw i64 %10, 2186
  %197 = getelementptr i16, i16* %0, i64 %196
  %198 = add nsw i64 %4, 2192
  %199 = getelementptr i16, i16* %0, i64 %198
  %200 = add nsw i64 %4, 3282
  %201 = getelementptr i16, i16* %0, i64 %200
  %202 = add nsw i64 %4, 3288
  %203 = getelementptr i16, i16* %0, i64 %202
  %204 = add nsw i64 %4, 4378
  %205 = getelementptr i16, i16* %0, i64 %204
  %206 = getelementptr i16, i16* %0, i64 %10
  %207 = add nsw i64 %10, 1090
  %208 = getelementptr i16, i16* %0, i64 %207
  %209 = getelementptr i16, i16* %0, i64 %4
  %210 = add nsw i64 %4, 1090
  %211 = getelementptr i16, i16* %0, i64 %210
  %212 = add nsw i64 %4, 1096
  %213 = getelementptr i16, i16* %0, i64 %212
  %214 = add nsw i64 %4, 2186
  %215 = getelementptr i16, i16* %0, i64 %214
  %216 = add nsw i64 %7, 7672
  %217 = getelementptr i16, i16* %0, i64 %216
  %218 = add nsw i64 %7, 8762
  %219 = getelementptr i16, i16* %0, i64 %218
  %220 = add nsw i64 %4, 12056
  %221 = getelementptr i16, i16* %0, i64 %220
  %222 = add nsw i64 %4, 13146
  %223 = getelementptr i16, i16* %0, i64 %222
  %224 = add nsw i64 %4, 16440
  %225 = getelementptr i16, i16* %0, i64 %224
  %226 = add nsw i64 %4, 17530
  %227 = getelementptr i16, i16* %0, i64 %226
  %228 = add nsw i64 %7, 6576
  %229 = getelementptr i16, i16* %0, i64 %228
  %230 = add nsw i64 %7, 7666
  %231 = getelementptr i16, i16* %0, i64 %230
  %232 = add nsw i64 %4, 10960
  %233 = getelementptr i16, i16* %0, i64 %232
  %234 = add nsw i64 %4, 12050
  %235 = getelementptr i16, i16* %0, i64 %234
  %236 = add nsw i64 %4, 15344
  %237 = getelementptr i16, i16* %0, i64 %236
  %238 = add nsw i64 %4, 16434
  %239 = getelementptr i16, i16* %0, i64 %238
  %240 = add nsw i64 %7, 5480
  %241 = getelementptr i16, i16* %0, i64 %240
  %242 = add nsw i64 %7, 6570
  %243 = getelementptr i16, i16* %0, i64 %242
  %244 = add nsw i64 %4, 9864
  %245 = getelementptr i16, i16* %0, i64 %244
  %246 = add nsw i64 %4, 10954
  %247 = getelementptr i16, i16* %0, i64 %246
  %248 = add nsw i64 %4, 14248
  %249 = getelementptr i16, i16* %0, i64 %248
  %250 = add nsw i64 %4, 15338
  %251 = getelementptr i16, i16* %0, i64 %250
  %252 = add nsw i64 %7, 4384
  %253 = getelementptr i16, i16* %0, i64 %252
  %254 = add nsw i64 %7, 5474
  %255 = getelementptr i16, i16* %0, i64 %254
  %256 = add nsw i64 %4, 8768
  %257 = getelementptr i16, i16* %0, i64 %256
  %258 = add nsw i64 %4, 9858
  %259 = getelementptr i16, i16* %0, i64 %258
  %260 = add nsw i64 %4, 13152
  %261 = getelementptr i16, i16* %0, i64 %260
  %262 = add nsw i64 %4, 14242
  %263 = getelementptr i16, i16* %0, i64 %262
  %264 = add nsw i64 %7, 3288
  %265 = getelementptr i16, i16* %0, i64 %264
  %266 = add nsw i64 %7, 4378
  %267 = getelementptr i16, i16* %0, i64 %266
  %268 = add nsw i64 %4, 3288
  %269 = getelementptr i16, i16* %0, i64 %268
  %270 = add nsw i64 %4, 4378
  %271 = getelementptr i16, i16* %0, i64 %270
  %272 = add nsw i64 %4, 7672
  %273 = getelementptr i16, i16* %0, i64 %272
  %274 = add nsw i64 %4, 8762
  %275 = getelementptr i16, i16* %0, i64 %274
  %276 = add nsw i64 %7, 2192
  %277 = getelementptr i16, i16* %0, i64 %276
  %278 = add nsw i64 %7, 3282
  %279 = getelementptr i16, i16* %0, i64 %278
  %280 = add nsw i64 %4, 2192
  %281 = getelementptr i16, i16* %0, i64 %280
  %282 = add nsw i64 %4, 3282
  %283 = getelementptr i16, i16* %0, i64 %282
  %284 = add nsw i64 %4, 6576
  %285 = getelementptr i16, i16* %0, i64 %284
  %286 = add nsw i64 %4, 7666
  %287 = getelementptr i16, i16* %0, i64 %286
  %288 = add nsw i64 %7, 1096
  %289 = getelementptr i16, i16* %0, i64 %288
  %290 = add nsw i64 %7, 2186
  %291 = getelementptr i16, i16* %0, i64 %290
  %292 = add nsw i64 %4, 1096
  %293 = getelementptr i16, i16* %0, i64 %292
  %294 = add nsw i64 %4, 2186
  %295 = getelementptr i16, i16* %0, i64 %294
  %296 = add nsw i64 %4, 5480
  %297 = getelementptr i16, i16* %0, i64 %296
  %298 = add nsw i64 %4, 6570
  %299 = getelementptr i16, i16* %0, i64 %298
  %300 = getelementptr i16, i16* %0, i64 %7
  %301 = add nsw i64 %7, 1090
  %302 = getelementptr i16, i16* %0, i64 %301
  %303 = getelementptr i16, i16* %0, i64 %4
  %304 = add nsw i64 %4, 1090
  %305 = getelementptr i16, i16* %0, i64 %304
  %306 = add nsw i64 %4, 4384
  %307 = getelementptr i16, i16* %0, i64 %306
  %308 = add nsw i64 %4, 5474
  %309 = getelementptr i16, i16* %0, i64 %308
  br label %310

310:                                              ; preds = %22, %3777
  %311 = phi i64 [ 0, %22 ], [ %3778, %3777 ]
  %312 = mul i64 %311, 8768
  %313 = and i64 %312, 4294967232
  %314 = getelementptr i16, i16* %300, i64 %313
  %315 = getelementptr i16, i16* %302, i64 %313
  %316 = mul i64 %311, 17536
  %317 = and i64 %316, 4294967168
  %318 = mul i64 %311, 8768
  %319 = and i64 %318, 4294967232
  %320 = getelementptr i16, i16* %289, i64 %319
  %321 = getelementptr i16, i16* %291, i64 %319
  %322 = mul i64 %311, 17536
  %323 = and i64 %322, 4294967168
  %324 = getelementptr i16, i16* %293, i64 %323
  %325 = getelementptr i16, i16* %295, i64 %323
  %326 = getelementptr i16, i16* %297, i64 %323
  %327 = getelementptr i16, i16* %299, i64 %323
  %328 = mul i64 %311, 8768
  %329 = and i64 %328, 4294967232
  %330 = getelementptr i16, i16* %277, i64 %329
  %331 = getelementptr i16, i16* %279, i64 %329
  %332 = mul i64 %311, 17536
  %333 = and i64 %332, 4294967168
  %334 = getelementptr i16, i16* %281, i64 %333
  %335 = getelementptr i16, i16* %283, i64 %333
  %336 = getelementptr i16, i16* %285, i64 %333
  %337 = getelementptr i16, i16* %287, i64 %333
  %338 = mul i64 %311, 8768
  %339 = and i64 %338, 4294967232
  %340 = getelementptr i16, i16* %265, i64 %339
  %341 = getelementptr i16, i16* %267, i64 %339
  %342 = mul i64 %311, 17536
  %343 = and i64 %342, 4294967168
  %344 = getelementptr i16, i16* %269, i64 %343
  %345 = getelementptr i16, i16* %271, i64 %343
  %346 = getelementptr i16, i16* %273, i64 %343
  %347 = getelementptr i16, i16* %275, i64 %343
  %348 = mul i64 %311, 8768
  %349 = and i64 %348, 4294967232
  %350 = getelementptr i16, i16* %253, i64 %349
  %351 = getelementptr i16, i16* %255, i64 %349
  %352 = mul i64 %311, 17536
  %353 = and i64 %352, 4294967168
  %354 = getelementptr i16, i16* %257, i64 %353
  %355 = getelementptr i16, i16* %259, i64 %353
  %356 = getelementptr i16, i16* %261, i64 %353
  %357 = getelementptr i16, i16* %263, i64 %353
  %358 = mul i64 %311, 8768
  %359 = and i64 %358, 4294967232
  %360 = getelementptr i16, i16* %241, i64 %359
  %361 = getelementptr i16, i16* %243, i64 %359
  %362 = mul i64 %311, 17536
  %363 = and i64 %362, 4294967168
  %364 = getelementptr i16, i16* %245, i64 %363
  %365 = getelementptr i16, i16* %247, i64 %363
  %366 = getelementptr i16, i16* %249, i64 %363
  %367 = getelementptr i16, i16* %251, i64 %363
  %368 = mul i64 %311, 8768
  %369 = and i64 %368, 4294967232
  %370 = getelementptr i16, i16* %229, i64 %369
  %371 = getelementptr i16, i16* %231, i64 %369
  %372 = mul i64 %311, 17536
  %373 = and i64 %372, 4294967168
  %374 = getelementptr i16, i16* %233, i64 %373
  %375 = getelementptr i16, i16* %235, i64 %373
  %376 = getelementptr i16, i16* %237, i64 %373
  %377 = getelementptr i16, i16* %239, i64 %373
  %378 = mul i64 %311, 8768
  %379 = and i64 %378, 4294967232
  %380 = getelementptr i16, i16* %217, i64 %379
  %381 = getelementptr i16, i16* %219, i64 %379
  %382 = mul i64 %311, 17536
  %383 = and i64 %382, 4294967168
  %384 = getelementptr i16, i16* %221, i64 %383
  %385 = getelementptr i16, i16* %223, i64 %383
  %386 = getelementptr i16, i16* %225, i64 %383
  %387 = getelementptr i16, i16* %227, i64 %383
  %388 = mul i64 %311, 8768
  %389 = and i64 %388, 4294967232
  %390 = getelementptr i16, i16* %206, i64 %389
  %391 = getelementptr i16, i16* %208, i64 %389
  %392 = mul i64 %311, 17536
  %393 = and i64 %392, 4294967168
  %394 = getelementptr i16, i16* %209, i64 %393
  %395 = getelementptr i16, i16* %211, i64 %393
  %396 = getelementptr i16, i16* %213, i64 %393
  %397 = getelementptr i16, i16* %215, i64 %393
  %398 = mul i64 %311, 8768
  %399 = and i64 %398, 4294967232
  %400 = getelementptr i16, i16* %195, i64 %399
  %401 = getelementptr i16, i16* %197, i64 %399
  %402 = mul i64 %311, 17536
  %403 = and i64 %402, 4294967168
  %404 = getelementptr i16, i16* %199, i64 %403
  %405 = getelementptr i16, i16* %201, i64 %403
  %406 = getelementptr i16, i16* %203, i64 %403
  %407 = getelementptr i16, i16* %205, i64 %403
  %408 = mul i64 %311, 8768
  %409 = and i64 %408, 4294967232
  %410 = getelementptr i16, i16* %183, i64 %409
  %411 = getelementptr i16, i16* %185, i64 %409
  %412 = mul i64 %311, 17536
  %413 = and i64 %412, 4294967168
  %414 = getelementptr i16, i16* %187, i64 %413
  %415 = getelementptr i16, i16* %189, i64 %413
  %416 = getelementptr i16, i16* %191, i64 %413
  %417 = getelementptr i16, i16* %193, i64 %413
  %418 = mul i64 %311, 8768
  %419 = and i64 %418, 4294967232
  %420 = getelementptr i16, i16* %171, i64 %419
  %421 = getelementptr i16, i16* %173, i64 %419
  %422 = mul i64 %311, 17536
  %423 = and i64 %422, 4294967168
  %424 = getelementptr i16, i16* %175, i64 %423
  %425 = getelementptr i16, i16* %177, i64 %423
  %426 = getelementptr i16, i16* %179, i64 %423
  %427 = getelementptr i16, i16* %181, i64 %423
  %428 = mul i64 %311, 8768
  %429 = and i64 %428, 4294967232
  %430 = getelementptr i16, i16* %159, i64 %429
  %431 = getelementptr i16, i16* %161, i64 %429
  %432 = mul i64 %311, 17536
  %433 = and i64 %432, 4294967168
  %434 = getelementptr i16, i16* %163, i64 %433
  %435 = getelementptr i16, i16* %165, i64 %433
  %436 = getelementptr i16, i16* %167, i64 %433
  %437 = getelementptr i16, i16* %169, i64 %433
  %438 = mul i64 %311, 8768
  %439 = and i64 %438, 4294967232
  %440 = getelementptr i16, i16* %147, i64 %439
  %441 = getelementptr i16, i16* %149, i64 %439
  %442 = mul i64 %311, 17536
  %443 = and i64 %442, 4294967168
  %444 = getelementptr i16, i16* %151, i64 %443
  %445 = getelementptr i16, i16* %153, i64 %443
  %446 = getelementptr i16, i16* %155, i64 %443
  %447 = getelementptr i16, i16* %157, i64 %443
  %448 = mul i64 %311, 8768
  %449 = and i64 %448, 4294967232
  %450 = getelementptr i16, i16* %135, i64 %449
  %451 = getelementptr i16, i16* %137, i64 %449
  %452 = mul i64 %311, 17536
  %453 = and i64 %452, 4294967168
  %454 = getelementptr i16, i16* %139, i64 %453
  %455 = getelementptr i16, i16* %141, i64 %453
  %456 = getelementptr i16, i16* %143, i64 %453
  %457 = getelementptr i16, i16* %145, i64 %453
  %458 = mul i64 %311, 8768
  %459 = and i64 %458, 4294967232
  %460 = getelementptr i16, i16* %123, i64 %459
  %461 = getelementptr i16, i16* %125, i64 %459
  %462 = mul i64 %311, 17536
  %463 = and i64 %462, 4294967168
  %464 = getelementptr i16, i16* %127, i64 %463
  %465 = getelementptr i16, i16* %129, i64 %463
  %466 = getelementptr i16, i16* %131, i64 %463
  %467 = getelementptr i16, i16* %133, i64 %463
  %468 = mul i64 %311, 4384
  %469 = and i64 %468, 4294967264
  %470 = getelementptr i16, i16* %112, i64 %469
  %471 = getelementptr i16, i16* %114, i64 %469
  %472 = mul i64 %311, 8768
  %473 = and i64 %472, 4294967232
  %474 = getelementptr i16, i16* %115, i64 %473
  %475 = getelementptr i16, i16* %117, i64 %473
  %476 = getelementptr i16, i16* %119, i64 %473
  %477 = getelementptr i16, i16* %121, i64 %473
  %478 = mul i64 %311, 4384
  %479 = and i64 %478, 4294967264
  %480 = getelementptr i16, i16* %101, i64 %479
  %481 = getelementptr i16, i16* %103, i64 %479
  %482 = mul i64 %311, 8768
  %483 = and i64 %482, 4294967232
  %484 = getelementptr i16, i16* %105, i64 %483
  %485 = getelementptr i16, i16* %107, i64 %483
  %486 = getelementptr i16, i16* %109, i64 %483
  %487 = getelementptr i16, i16* %111, i64 %483
  %488 = mul i64 %311, 4384
  %489 = and i64 %488, 4294967264
  %490 = getelementptr i16, i16* %89, i64 %489
  %491 = getelementptr i16, i16* %91, i64 %489
  %492 = mul i64 %311, 8768
  %493 = and i64 %492, 4294967232
  %494 = getelementptr i16, i16* %93, i64 %493
  %495 = getelementptr i16, i16* %95, i64 %493
  %496 = getelementptr i16, i16* %97, i64 %493
  %497 = getelementptr i16, i16* %99, i64 %493
  %498 = mul i64 %311, 4384
  %499 = and i64 %498, 4294967264
  %500 = getelementptr i16, i16* %77, i64 %499
  %501 = getelementptr i16, i16* %79, i64 %499
  %502 = mul i64 %311, 8768
  %503 = and i64 %502, 4294967232
  %504 = getelementptr i16, i16* %81, i64 %503
  %505 = getelementptr i16, i16* %83, i64 %503
  %506 = getelementptr i16, i16* %85, i64 %503
  %507 = getelementptr i16, i16* %87, i64 %503
  %508 = mul i64 %311, 2192
  %509 = and i64 %508, 4294967280
  %510 = getelementptr i16, i16* %66, i64 %509
  %511 = getelementptr i16, i16* %68, i64 %509
  %512 = mul i64 %311, 4384
  %513 = and i64 %512, 4294967264
  %514 = getelementptr i16, i16* %69, i64 %513
  %515 = getelementptr i16, i16* %71, i64 %513
  %516 = getelementptr i16, i16* %73, i64 %513
  %517 = getelementptr i16, i16* %75, i64 %513
  %518 = mul i64 %311, 2192
  %519 = and i64 %518, 4294967280
  %520 = getelementptr i16, i16* %55, i64 %519
  %521 = getelementptr i16, i16* %57, i64 %519
  %522 = mul i64 %311, 4384
  %523 = and i64 %522, 4294967264
  %524 = getelementptr i16, i16* %59, i64 %523
  %525 = getelementptr i16, i16* %61, i64 %523
  %526 = getelementptr i16, i16* %63, i64 %523
  %527 = getelementptr i16, i16* %65, i64 %523
  %528 = mul i64 %311, 2192
  %529 = and i64 %528, 4294967280
  %530 = getelementptr i16, i16* %44, i64 %529
  %531 = getelementptr i16, i16* %46, i64 %529
  %532 = mul i64 %311, 4384
  %533 = and i64 %532, 4294967264
  %534 = getelementptr i16, i16* %47, i64 %533
  %535 = getelementptr i16, i16* %49, i64 %533
  %536 = getelementptr i16, i16* %51, i64 %533
  %537 = getelementptr i16, i16* %53, i64 %533
  %538 = mul i64 %311, 2192
  %539 = and i64 %538, 4294967280
  %540 = getelementptr i16, i16* %33, i64 %539
  %541 = getelementptr i16, i16* %35, i64 %539
  %542 = mul i64 %311, 4384
  %543 = and i64 %542, 4294967264
  %544 = getelementptr i16, i16* %37, i64 %543
  %545 = getelementptr i16, i16* %39, i64 %543
  %546 = getelementptr i16, i16* %41, i64 %543
  %547 = getelementptr i16, i16* %43, i64 %543
  %548 = mul i64 %311, 1096
  %549 = and i64 %548, 4294967288
  %550 = getelementptr i16, i16* %0, i64 %549
  %551 = getelementptr i16, i16* %24, i64 %549
  %552 = mul i64 %311, 2192
  %553 = and i64 %552, 4294967280
  %554 = getelementptr i16, i16* %25, i64 %553
  %555 = getelementptr i16, i16* %27, i64 %553
  %556 = getelementptr i16, i16* %29, i64 %553
  %557 = getelementptr i16, i16* %31, i64 %553
  %558 = mul i64 %311, 17536
  %559 = and i64 %558, 4294967168
  %560 = getelementptr inbounds i16, i16* %5, i64 %559
  %561 = mul i64 %311, 8768
  %562 = and i64 %561, 4294967232
  %563 = getelementptr inbounds i16, i16* %8, i64 %562
  %564 = getelementptr inbounds i16, i16* %560, i64 4384
  %565 = getelementptr i16, i16* %309, i64 %317
  %566 = getelementptr i16, i16* %307, i64 %317
  %567 = getelementptr i16, i16* %305, i64 %317
  %568 = getelementptr i16, i16* %303, i64 %317
  %569 = icmp ult i16* %314, %567
  %570 = icmp ult i16* %568, %315
  %571 = and i1 %569, %570
  %572 = icmp ult i16* %314, %565
  %573 = icmp ult i16* %566, %315
  %574 = and i1 %572, %573
  %575 = or i1 %571, %574
  br i1 %575, label %627, label %576

576:                                              ; preds = %310
  %577 = getelementptr i16, i16* %563, i64 1088
  %578 = getelementptr i16, i16* %564, i64 1088
  %579 = getelementptr i16, i16* %560, i64 1088
  br label %580

580:                                              ; preds = %580, %576
  %581 = phi i64 [ 0, %576 ], [ %625, %580 ]
  %582 = shl nuw i64 %581, 1
  %583 = getelementptr i16, i16* %563, i64 %582
  %584 = shl nuw i64 %581, 1
  %585 = getelementptr i16, i16* %564, i64 %584
  %586 = shl nuw i64 %581, 1
  %587 = getelementptr i16, i16* %560, i64 %586
  %588 = bitcast i16* %587 to <4 x i32>*
  %589 = load <4 x i32>, <4 x i32>* %588, align 4, !tbaa !10, !alias.scope !131
  %590 = getelementptr i16, i16* %587, i64 8
  %591 = bitcast i16* %590 to <4 x i32>*
  %592 = load <4 x i32>, <4 x i32>* %591, align 4, !tbaa !10, !alias.scope !131
  %593 = bitcast i16* %585 to <4 x i32>*
  %594 = load <4 x i32>, <4 x i32>* %593, align 4, !tbaa !10, !alias.scope !134
  %595 = getelementptr i16, i16* %585, i64 8
  %596 = bitcast i16* %595 to <4 x i32>*
  %597 = load <4 x i32>, <4 x i32>* %596, align 4, !tbaa !10, !alias.scope !134
  %598 = add <4 x i32> %594, %589
  %599 = add <4 x i32> %597, %592
  %600 = bitcast i16* %583 to <4 x i32>*
  store <4 x i32> %598, <4 x i32>* %600, align 4, !tbaa !10, !alias.scope !136, !noalias !138
  %601 = getelementptr i16, i16* %583, i64 8
  %602 = bitcast i16* %601 to <4 x i32>*
  store <4 x i32> %599, <4 x i32>* %602, align 4, !tbaa !10, !alias.scope !136, !noalias !138
  %603 = or i64 %581, 8
  %604 = shl nuw i64 %603, 1
  %605 = getelementptr i16, i16* %563, i64 %604
  %606 = shl nuw i64 %603, 1
  %607 = getelementptr i16, i16* %564, i64 %606
  %608 = shl nuw i64 %603, 1
  %609 = getelementptr i16, i16* %560, i64 %608
  %610 = bitcast i16* %609 to <4 x i32>*
  %611 = load <4 x i32>, <4 x i32>* %610, align 4, !tbaa !10, !alias.scope !131
  %612 = getelementptr i16, i16* %609, i64 8
  %613 = bitcast i16* %612 to <4 x i32>*
  %614 = load <4 x i32>, <4 x i32>* %613, align 4, !tbaa !10, !alias.scope !131
  %615 = bitcast i16* %607 to <4 x i32>*
  %616 = load <4 x i32>, <4 x i32>* %615, align 4, !tbaa !10, !alias.scope !134
  %617 = getelementptr i16, i16* %607, i64 8
  %618 = bitcast i16* %617 to <4 x i32>*
  %619 = load <4 x i32>, <4 x i32>* %618, align 4, !tbaa !10, !alias.scope !134
  %620 = add <4 x i32> %616, %611
  %621 = add <4 x i32> %619, %614
  %622 = bitcast i16* %605 to <4 x i32>*
  store <4 x i32> %620, <4 x i32>* %622, align 4, !tbaa !10, !alias.scope !136, !noalias !138
  %623 = getelementptr i16, i16* %605, i64 8
  %624 = bitcast i16* %623 to <4 x i32>*
  store <4 x i32> %621, <4 x i32>* %624, align 4, !tbaa !10, !alias.scope !136, !noalias !138
  %625 = add nuw nsw i64 %581, 16
  %626 = icmp eq i64 %625, 544
  br i1 %626, label %627, label %580, !llvm.loop !139

627:                                              ; preds = %310, %580
  %628 = phi i32 [ 0, %310 ], [ 544, %580 ]
  %629 = phi i16* [ %563, %310 ], [ %577, %580 ]
  %630 = phi i16* [ %564, %310 ], [ %578, %580 ]
  %631 = phi i16* [ %560, %310 ], [ %579, %580 ]
  br label %632

632:                                              ; preds = %632, %627
  %633 = phi i32 [ %644, %632 ], [ %628, %627 ]
  %634 = phi i16* [ %645, %632 ], [ %629, %627 ]
  %635 = phi i16* [ %647, %632 ], [ %630, %627 ]
  %636 = phi i16* [ %646, %632 ], [ %631, %627 ]
  %637 = phi i32 [ %648, %632 ], [ 0, %627 ]
  %638 = bitcast i16* %636 to i32*
  %639 = load i32, i32* %638, align 4, !tbaa !10
  %640 = bitcast i16* %635 to i32*
  %641 = load i32, i32* %640, align 4, !tbaa !10
  %642 = add i32 %641, %639
  %643 = bitcast i16* %634 to i32*
  store i32 %642, i32* %643, align 4, !tbaa !10
  %644 = add nuw nsw i32 %633, 1
  %645 = getelementptr inbounds i16, i16* %634, i64 2
  %646 = getelementptr inbounds i16, i16* %636, i64 2
  %647 = getelementptr inbounds i16, i16* %635, i64 2
  %648 = add i32 %637, 1
  %649 = icmp eq i32 %637, 0
  br i1 %649, label %650, label %632, !llvm.loop !140

650:                                              ; preds = %632
  br i1 %575, label %651, label %694

651:                                              ; preds = %650, %651
  %652 = phi i32 [ %689, %651 ], [ %644, %650 ]
  %653 = phi i16* [ %690, %651 ], [ %645, %650 ]
  %654 = phi i16* [ %692, %651 ], [ %647, %650 ]
  %655 = phi i16* [ %691, %651 ], [ %646, %650 ]
  %656 = bitcast i16* %655 to i32*
  %657 = load i32, i32* %656, align 4, !tbaa !10
  %658 = bitcast i16* %654 to i32*
  %659 = load i32, i32* %658, align 4, !tbaa !10
  %660 = add i32 %659, %657
  %661 = bitcast i16* %653 to i32*
  store i32 %660, i32* %661, align 4, !tbaa !10
  %662 = getelementptr inbounds i16, i16* %653, i64 2
  %663 = getelementptr inbounds i16, i16* %655, i64 2
  %664 = getelementptr inbounds i16, i16* %654, i64 2
  %665 = bitcast i16* %663 to i32*
  %666 = load i32, i32* %665, align 4, !tbaa !10
  %667 = bitcast i16* %664 to i32*
  %668 = load i32, i32* %667, align 4, !tbaa !10
  %669 = add i32 %668, %666
  %670 = bitcast i16* %662 to i32*
  store i32 %669, i32* %670, align 4, !tbaa !10
  %671 = getelementptr inbounds i16, i16* %653, i64 4
  %672 = getelementptr inbounds i16, i16* %655, i64 4
  %673 = getelementptr inbounds i16, i16* %654, i64 4
  %674 = bitcast i16* %672 to i32*
  %675 = load i32, i32* %674, align 4, !tbaa !10
  %676 = bitcast i16* %673 to i32*
  %677 = load i32, i32* %676, align 4, !tbaa !10
  %678 = add i32 %677, %675
  %679 = bitcast i16* %671 to i32*
  store i32 %678, i32* %679, align 4, !tbaa !10
  %680 = getelementptr inbounds i16, i16* %653, i64 6
  %681 = getelementptr inbounds i16, i16* %655, i64 6
  %682 = getelementptr inbounds i16, i16* %654, i64 6
  %683 = bitcast i16* %681 to i32*
  %684 = load i32, i32* %683, align 4, !tbaa !10
  %685 = bitcast i16* %682 to i32*
  %686 = load i32, i32* %685, align 4, !tbaa !10
  %687 = add i32 %686, %684
  %688 = bitcast i16* %680 to i32*
  store i32 %687, i32* %688, align 4, !tbaa !10
  %689 = add nuw nsw i32 %652, 4
  %690 = getelementptr inbounds i16, i16* %653, i64 8
  %691 = getelementptr inbounds i16, i16* %655, i64 8
  %692 = getelementptr inbounds i16, i16* %654, i64 8
  %693 = icmp eq i32 %689, 545
  br i1 %693, label %694, label %651, !llvm.loop !141

694:                                              ; preds = %651, %650
  %695 = getelementptr inbounds i16, i16* %560, i64 1096
  %696 = getelementptr inbounds i16, i16* %695, i64 4384
  %697 = getelementptr inbounds i16, i16* %563, i64 1096
  %698 = icmp ult i16* %320, %325
  %699 = icmp ult i16* %324, %321
  %700 = and i1 %698, %699
  %701 = icmp ult i16* %320, %327
  %702 = icmp ult i16* %326, %321
  %703 = and i1 %701, %702
  %704 = or i1 %700, %703
  br i1 %704, label %756, label %705

705:                                              ; preds = %694
  %706 = getelementptr i16, i16* %697, i64 1088
  %707 = getelementptr i16, i16* %696, i64 1088
  %708 = getelementptr i16, i16* %695, i64 1088
  br label %709

709:                                              ; preds = %709, %705
  %710 = phi i64 [ 0, %705 ], [ %754, %709 ]
  %711 = shl nuw i64 %710, 1
  %712 = getelementptr i16, i16* %697, i64 %711
  %713 = shl nuw i64 %710, 1
  %714 = getelementptr i16, i16* %696, i64 %713
  %715 = shl nuw i64 %710, 1
  %716 = getelementptr i16, i16* %695, i64 %715
  %717 = bitcast i16* %716 to <4 x i32>*
  %718 = load <4 x i32>, <4 x i32>* %717, align 4, !tbaa !10, !alias.scope !142
  %719 = getelementptr i16, i16* %716, i64 8
  %720 = bitcast i16* %719 to <4 x i32>*
  %721 = load <4 x i32>, <4 x i32>* %720, align 4, !tbaa !10, !alias.scope !142
  %722 = bitcast i16* %714 to <4 x i32>*
  %723 = load <4 x i32>, <4 x i32>* %722, align 4, !tbaa !10, !alias.scope !145
  %724 = getelementptr i16, i16* %714, i64 8
  %725 = bitcast i16* %724 to <4 x i32>*
  %726 = load <4 x i32>, <4 x i32>* %725, align 4, !tbaa !10, !alias.scope !145
  %727 = add <4 x i32> %723, %718
  %728 = add <4 x i32> %726, %721
  %729 = bitcast i16* %712 to <4 x i32>*
  store <4 x i32> %727, <4 x i32>* %729, align 4, !tbaa !10, !alias.scope !147, !noalias !149
  %730 = getelementptr i16, i16* %712, i64 8
  %731 = bitcast i16* %730 to <4 x i32>*
  store <4 x i32> %728, <4 x i32>* %731, align 4, !tbaa !10, !alias.scope !147, !noalias !149
  %732 = or i64 %710, 8
  %733 = shl nuw i64 %732, 1
  %734 = getelementptr i16, i16* %697, i64 %733
  %735 = shl nuw i64 %732, 1
  %736 = getelementptr i16, i16* %696, i64 %735
  %737 = shl nuw i64 %732, 1
  %738 = getelementptr i16, i16* %695, i64 %737
  %739 = bitcast i16* %738 to <4 x i32>*
  %740 = load <4 x i32>, <4 x i32>* %739, align 4, !tbaa !10, !alias.scope !142
  %741 = getelementptr i16, i16* %738, i64 8
  %742 = bitcast i16* %741 to <4 x i32>*
  %743 = load <4 x i32>, <4 x i32>* %742, align 4, !tbaa !10, !alias.scope !142
  %744 = bitcast i16* %736 to <4 x i32>*
  %745 = load <4 x i32>, <4 x i32>* %744, align 4, !tbaa !10, !alias.scope !145
  %746 = getelementptr i16, i16* %736, i64 8
  %747 = bitcast i16* %746 to <4 x i32>*
  %748 = load <4 x i32>, <4 x i32>* %747, align 4, !tbaa !10, !alias.scope !145
  %749 = add <4 x i32> %745, %740
  %750 = add <4 x i32> %748, %743
  %751 = bitcast i16* %734 to <4 x i32>*
  store <4 x i32> %749, <4 x i32>* %751, align 4, !tbaa !10, !alias.scope !147, !noalias !149
  %752 = getelementptr i16, i16* %734, i64 8
  %753 = bitcast i16* %752 to <4 x i32>*
  store <4 x i32> %750, <4 x i32>* %753, align 4, !tbaa !10, !alias.scope !147, !noalias !149
  %754 = add nuw nsw i64 %710, 16
  %755 = icmp eq i64 %754, 544
  br i1 %755, label %756, label %709, !llvm.loop !150

756:                                              ; preds = %694, %709
  %757 = phi i32 [ 0, %694 ], [ 544, %709 ]
  %758 = phi i16* [ %697, %694 ], [ %706, %709 ]
  %759 = phi i16* [ %696, %694 ], [ %707, %709 ]
  %760 = phi i16* [ %695, %694 ], [ %708, %709 ]
  br label %761

761:                                              ; preds = %761, %756
  %762 = phi i32 [ %773, %761 ], [ %757, %756 ]
  %763 = phi i16* [ %774, %761 ], [ %758, %756 ]
  %764 = phi i16* [ %776, %761 ], [ %759, %756 ]
  %765 = phi i16* [ %775, %761 ], [ %760, %756 ]
  %766 = phi i32 [ %777, %761 ], [ 0, %756 ]
  %767 = bitcast i16* %765 to i32*
  %768 = load i32, i32* %767, align 4, !tbaa !10
  %769 = bitcast i16* %764 to i32*
  %770 = load i32, i32* %769, align 4, !tbaa !10
  %771 = add i32 %770, %768
  %772 = bitcast i16* %763 to i32*
  store i32 %771, i32* %772, align 4, !tbaa !10
  %773 = add nuw nsw i32 %762, 1
  %774 = getelementptr inbounds i16, i16* %763, i64 2
  %775 = getelementptr inbounds i16, i16* %765, i64 2
  %776 = getelementptr inbounds i16, i16* %764, i64 2
  %777 = add i32 %766, 1
  %778 = icmp eq i32 %766, 0
  br i1 %778, label %779, label %761, !llvm.loop !151

779:                                              ; preds = %761
  br i1 %704, label %780, label %823

780:                                              ; preds = %779, %780
  %781 = phi i32 [ %818, %780 ], [ %773, %779 ]
  %782 = phi i16* [ %819, %780 ], [ %774, %779 ]
  %783 = phi i16* [ %821, %780 ], [ %776, %779 ]
  %784 = phi i16* [ %820, %780 ], [ %775, %779 ]
  %785 = bitcast i16* %784 to i32*
  %786 = load i32, i32* %785, align 4, !tbaa !10
  %787 = bitcast i16* %783 to i32*
  %788 = load i32, i32* %787, align 4, !tbaa !10
  %789 = add i32 %788, %786
  %790 = bitcast i16* %782 to i32*
  store i32 %789, i32* %790, align 4, !tbaa !10
  %791 = getelementptr inbounds i16, i16* %782, i64 2
  %792 = getelementptr inbounds i16, i16* %784, i64 2
  %793 = getelementptr inbounds i16, i16* %783, i64 2
  %794 = bitcast i16* %792 to i32*
  %795 = load i32, i32* %794, align 4, !tbaa !10
  %796 = bitcast i16* %793 to i32*
  %797 = load i32, i32* %796, align 4, !tbaa !10
  %798 = add i32 %797, %795
  %799 = bitcast i16* %791 to i32*
  store i32 %798, i32* %799, align 4, !tbaa !10
  %800 = getelementptr inbounds i16, i16* %782, i64 4
  %801 = getelementptr inbounds i16, i16* %784, i64 4
  %802 = getelementptr inbounds i16, i16* %783, i64 4
  %803 = bitcast i16* %801 to i32*
  %804 = load i32, i32* %803, align 4, !tbaa !10
  %805 = bitcast i16* %802 to i32*
  %806 = load i32, i32* %805, align 4, !tbaa !10
  %807 = add i32 %806, %804
  %808 = bitcast i16* %800 to i32*
  store i32 %807, i32* %808, align 4, !tbaa !10
  %809 = getelementptr inbounds i16, i16* %782, i64 6
  %810 = getelementptr inbounds i16, i16* %784, i64 6
  %811 = getelementptr inbounds i16, i16* %783, i64 6
  %812 = bitcast i16* %810 to i32*
  %813 = load i32, i32* %812, align 4, !tbaa !10
  %814 = bitcast i16* %811 to i32*
  %815 = load i32, i32* %814, align 4, !tbaa !10
  %816 = add i32 %815, %813
  %817 = bitcast i16* %809 to i32*
  store i32 %816, i32* %817, align 4, !tbaa !10
  %818 = add nuw nsw i32 %781, 4
  %819 = getelementptr inbounds i16, i16* %782, i64 8
  %820 = getelementptr inbounds i16, i16* %784, i64 8
  %821 = getelementptr inbounds i16, i16* %783, i64 8
  %822 = icmp eq i32 %818, 545
  br i1 %822, label %823, label %780, !llvm.loop !152

823:                                              ; preds = %780, %779
  %824 = getelementptr inbounds i16, i16* %560, i64 2192
  %825 = getelementptr inbounds i16, i16* %824, i64 4384
  %826 = getelementptr inbounds i16, i16* %563, i64 2192
  %827 = icmp ult i16* %330, %335
  %828 = icmp ult i16* %334, %331
  %829 = and i1 %827, %828
  %830 = icmp ult i16* %330, %337
  %831 = icmp ult i16* %336, %331
  %832 = and i1 %830, %831
  %833 = or i1 %829, %832
  br i1 %833, label %885, label %834

834:                                              ; preds = %823
  %835 = getelementptr i16, i16* %826, i64 1088
  %836 = getelementptr i16, i16* %825, i64 1088
  %837 = getelementptr i16, i16* %824, i64 1088
  br label %838

838:                                              ; preds = %838, %834
  %839 = phi i64 [ 0, %834 ], [ %883, %838 ]
  %840 = shl nuw i64 %839, 1
  %841 = getelementptr i16, i16* %826, i64 %840
  %842 = shl nuw i64 %839, 1
  %843 = getelementptr i16, i16* %825, i64 %842
  %844 = shl nuw i64 %839, 1
  %845 = getelementptr i16, i16* %824, i64 %844
  %846 = bitcast i16* %845 to <4 x i32>*
  %847 = load <4 x i32>, <4 x i32>* %846, align 4, !tbaa !10, !alias.scope !153
  %848 = getelementptr i16, i16* %845, i64 8
  %849 = bitcast i16* %848 to <4 x i32>*
  %850 = load <4 x i32>, <4 x i32>* %849, align 4, !tbaa !10, !alias.scope !153
  %851 = bitcast i16* %843 to <4 x i32>*
  %852 = load <4 x i32>, <4 x i32>* %851, align 4, !tbaa !10, !alias.scope !156
  %853 = getelementptr i16, i16* %843, i64 8
  %854 = bitcast i16* %853 to <4 x i32>*
  %855 = load <4 x i32>, <4 x i32>* %854, align 4, !tbaa !10, !alias.scope !156
  %856 = add <4 x i32> %852, %847
  %857 = add <4 x i32> %855, %850
  %858 = bitcast i16* %841 to <4 x i32>*
  store <4 x i32> %856, <4 x i32>* %858, align 4, !tbaa !10, !alias.scope !158, !noalias !160
  %859 = getelementptr i16, i16* %841, i64 8
  %860 = bitcast i16* %859 to <4 x i32>*
  store <4 x i32> %857, <4 x i32>* %860, align 4, !tbaa !10, !alias.scope !158, !noalias !160
  %861 = or i64 %839, 8
  %862 = shl nuw i64 %861, 1
  %863 = getelementptr i16, i16* %826, i64 %862
  %864 = shl nuw i64 %861, 1
  %865 = getelementptr i16, i16* %825, i64 %864
  %866 = shl nuw i64 %861, 1
  %867 = getelementptr i16, i16* %824, i64 %866
  %868 = bitcast i16* %867 to <4 x i32>*
  %869 = load <4 x i32>, <4 x i32>* %868, align 4, !tbaa !10, !alias.scope !153
  %870 = getelementptr i16, i16* %867, i64 8
  %871 = bitcast i16* %870 to <4 x i32>*
  %872 = load <4 x i32>, <4 x i32>* %871, align 4, !tbaa !10, !alias.scope !153
  %873 = bitcast i16* %865 to <4 x i32>*
  %874 = load <4 x i32>, <4 x i32>* %873, align 4, !tbaa !10, !alias.scope !156
  %875 = getelementptr i16, i16* %865, i64 8
  %876 = bitcast i16* %875 to <4 x i32>*
  %877 = load <4 x i32>, <4 x i32>* %876, align 4, !tbaa !10, !alias.scope !156
  %878 = add <4 x i32> %874, %869
  %879 = add <4 x i32> %877, %872
  %880 = bitcast i16* %863 to <4 x i32>*
  store <4 x i32> %878, <4 x i32>* %880, align 4, !tbaa !10, !alias.scope !158, !noalias !160
  %881 = getelementptr i16, i16* %863, i64 8
  %882 = bitcast i16* %881 to <4 x i32>*
  store <4 x i32> %879, <4 x i32>* %882, align 4, !tbaa !10, !alias.scope !158, !noalias !160
  %883 = add nuw nsw i64 %839, 16
  %884 = icmp eq i64 %883, 544
  br i1 %884, label %885, label %838, !llvm.loop !161

885:                                              ; preds = %823, %838
  %886 = phi i32 [ 0, %823 ], [ 544, %838 ]
  %887 = phi i16* [ %826, %823 ], [ %835, %838 ]
  %888 = phi i16* [ %825, %823 ], [ %836, %838 ]
  %889 = phi i16* [ %824, %823 ], [ %837, %838 ]
  br label %890

890:                                              ; preds = %890, %885
  %891 = phi i32 [ %902, %890 ], [ %886, %885 ]
  %892 = phi i16* [ %903, %890 ], [ %887, %885 ]
  %893 = phi i16* [ %905, %890 ], [ %888, %885 ]
  %894 = phi i16* [ %904, %890 ], [ %889, %885 ]
  %895 = phi i32 [ %906, %890 ], [ 0, %885 ]
  %896 = bitcast i16* %894 to i32*
  %897 = load i32, i32* %896, align 4, !tbaa !10
  %898 = bitcast i16* %893 to i32*
  %899 = load i32, i32* %898, align 4, !tbaa !10
  %900 = add i32 %899, %897
  %901 = bitcast i16* %892 to i32*
  store i32 %900, i32* %901, align 4, !tbaa !10
  %902 = add nuw nsw i32 %891, 1
  %903 = getelementptr inbounds i16, i16* %892, i64 2
  %904 = getelementptr inbounds i16, i16* %894, i64 2
  %905 = getelementptr inbounds i16, i16* %893, i64 2
  %906 = add i32 %895, 1
  %907 = icmp eq i32 %895, 0
  br i1 %907, label %908, label %890, !llvm.loop !162

908:                                              ; preds = %890
  br i1 %833, label %909, label %952

909:                                              ; preds = %908, %909
  %910 = phi i32 [ %947, %909 ], [ %902, %908 ]
  %911 = phi i16* [ %948, %909 ], [ %903, %908 ]
  %912 = phi i16* [ %950, %909 ], [ %905, %908 ]
  %913 = phi i16* [ %949, %909 ], [ %904, %908 ]
  %914 = bitcast i16* %913 to i32*
  %915 = load i32, i32* %914, align 4, !tbaa !10
  %916 = bitcast i16* %912 to i32*
  %917 = load i32, i32* %916, align 4, !tbaa !10
  %918 = add i32 %917, %915
  %919 = bitcast i16* %911 to i32*
  store i32 %918, i32* %919, align 4, !tbaa !10
  %920 = getelementptr inbounds i16, i16* %911, i64 2
  %921 = getelementptr inbounds i16, i16* %913, i64 2
  %922 = getelementptr inbounds i16, i16* %912, i64 2
  %923 = bitcast i16* %921 to i32*
  %924 = load i32, i32* %923, align 4, !tbaa !10
  %925 = bitcast i16* %922 to i32*
  %926 = load i32, i32* %925, align 4, !tbaa !10
  %927 = add i32 %926, %924
  %928 = bitcast i16* %920 to i32*
  store i32 %927, i32* %928, align 4, !tbaa !10
  %929 = getelementptr inbounds i16, i16* %911, i64 4
  %930 = getelementptr inbounds i16, i16* %913, i64 4
  %931 = getelementptr inbounds i16, i16* %912, i64 4
  %932 = bitcast i16* %930 to i32*
  %933 = load i32, i32* %932, align 4, !tbaa !10
  %934 = bitcast i16* %931 to i32*
  %935 = load i32, i32* %934, align 4, !tbaa !10
  %936 = add i32 %935, %933
  %937 = bitcast i16* %929 to i32*
  store i32 %936, i32* %937, align 4, !tbaa !10
  %938 = getelementptr inbounds i16, i16* %911, i64 6
  %939 = getelementptr inbounds i16, i16* %913, i64 6
  %940 = getelementptr inbounds i16, i16* %912, i64 6
  %941 = bitcast i16* %939 to i32*
  %942 = load i32, i32* %941, align 4, !tbaa !10
  %943 = bitcast i16* %940 to i32*
  %944 = load i32, i32* %943, align 4, !tbaa !10
  %945 = add i32 %944, %942
  %946 = bitcast i16* %938 to i32*
  store i32 %945, i32* %946, align 4, !tbaa !10
  %947 = add nuw nsw i32 %910, 4
  %948 = getelementptr inbounds i16, i16* %911, i64 8
  %949 = getelementptr inbounds i16, i16* %913, i64 8
  %950 = getelementptr inbounds i16, i16* %912, i64 8
  %951 = icmp eq i32 %947, 545
  br i1 %951, label %952, label %909, !llvm.loop !163

952:                                              ; preds = %909, %908
  %953 = getelementptr inbounds i16, i16* %560, i64 3288
  %954 = getelementptr inbounds i16, i16* %953, i64 4384
  %955 = getelementptr inbounds i16, i16* %563, i64 3288
  %956 = icmp ult i16* %340, %345
  %957 = icmp ult i16* %344, %341
  %958 = and i1 %956, %957
  %959 = icmp ult i16* %340, %347
  %960 = icmp ult i16* %346, %341
  %961 = and i1 %959, %960
  %962 = or i1 %958, %961
  br i1 %962, label %1014, label %963

963:                                              ; preds = %952
  %964 = getelementptr i16, i16* %955, i64 1088
  %965 = getelementptr i16, i16* %954, i64 1088
  %966 = getelementptr i16, i16* %953, i64 1088
  br label %967

967:                                              ; preds = %967, %963
  %968 = phi i64 [ 0, %963 ], [ %1012, %967 ]
  %969 = shl nuw i64 %968, 1
  %970 = getelementptr i16, i16* %955, i64 %969
  %971 = shl nuw i64 %968, 1
  %972 = getelementptr i16, i16* %954, i64 %971
  %973 = shl nuw i64 %968, 1
  %974 = getelementptr i16, i16* %953, i64 %973
  %975 = bitcast i16* %974 to <4 x i32>*
  %976 = load <4 x i32>, <4 x i32>* %975, align 4, !tbaa !10, !alias.scope !164
  %977 = getelementptr i16, i16* %974, i64 8
  %978 = bitcast i16* %977 to <4 x i32>*
  %979 = load <4 x i32>, <4 x i32>* %978, align 4, !tbaa !10, !alias.scope !164
  %980 = bitcast i16* %972 to <4 x i32>*
  %981 = load <4 x i32>, <4 x i32>* %980, align 4, !tbaa !10, !alias.scope !167
  %982 = getelementptr i16, i16* %972, i64 8
  %983 = bitcast i16* %982 to <4 x i32>*
  %984 = load <4 x i32>, <4 x i32>* %983, align 4, !tbaa !10, !alias.scope !167
  %985 = add <4 x i32> %981, %976
  %986 = add <4 x i32> %984, %979
  %987 = bitcast i16* %970 to <4 x i32>*
  store <4 x i32> %985, <4 x i32>* %987, align 4, !tbaa !10, !alias.scope !169, !noalias !171
  %988 = getelementptr i16, i16* %970, i64 8
  %989 = bitcast i16* %988 to <4 x i32>*
  store <4 x i32> %986, <4 x i32>* %989, align 4, !tbaa !10, !alias.scope !169, !noalias !171
  %990 = or i64 %968, 8
  %991 = shl nuw i64 %990, 1
  %992 = getelementptr i16, i16* %955, i64 %991
  %993 = shl nuw i64 %990, 1
  %994 = getelementptr i16, i16* %954, i64 %993
  %995 = shl nuw i64 %990, 1
  %996 = getelementptr i16, i16* %953, i64 %995
  %997 = bitcast i16* %996 to <4 x i32>*
  %998 = load <4 x i32>, <4 x i32>* %997, align 4, !tbaa !10, !alias.scope !164
  %999 = getelementptr i16, i16* %996, i64 8
  %1000 = bitcast i16* %999 to <4 x i32>*
  %1001 = load <4 x i32>, <4 x i32>* %1000, align 4, !tbaa !10, !alias.scope !164
  %1002 = bitcast i16* %994 to <4 x i32>*
  %1003 = load <4 x i32>, <4 x i32>* %1002, align 4, !tbaa !10, !alias.scope !167
  %1004 = getelementptr i16, i16* %994, i64 8
  %1005 = bitcast i16* %1004 to <4 x i32>*
  %1006 = load <4 x i32>, <4 x i32>* %1005, align 4, !tbaa !10, !alias.scope !167
  %1007 = add <4 x i32> %1003, %998
  %1008 = add <4 x i32> %1006, %1001
  %1009 = bitcast i16* %992 to <4 x i32>*
  store <4 x i32> %1007, <4 x i32>* %1009, align 4, !tbaa !10, !alias.scope !169, !noalias !171
  %1010 = getelementptr i16, i16* %992, i64 8
  %1011 = bitcast i16* %1010 to <4 x i32>*
  store <4 x i32> %1008, <4 x i32>* %1011, align 4, !tbaa !10, !alias.scope !169, !noalias !171
  %1012 = add nuw nsw i64 %968, 16
  %1013 = icmp eq i64 %1012, 544
  br i1 %1013, label %1014, label %967, !llvm.loop !172

1014:                                             ; preds = %952, %967
  %1015 = phi i32 [ 0, %952 ], [ 544, %967 ]
  %1016 = phi i16* [ %955, %952 ], [ %964, %967 ]
  %1017 = phi i16* [ %954, %952 ], [ %965, %967 ]
  %1018 = phi i16* [ %953, %952 ], [ %966, %967 ]
  br label %1019

1019:                                             ; preds = %1019, %1014
  %1020 = phi i32 [ %1031, %1019 ], [ %1015, %1014 ]
  %1021 = phi i16* [ %1032, %1019 ], [ %1016, %1014 ]
  %1022 = phi i16* [ %1034, %1019 ], [ %1017, %1014 ]
  %1023 = phi i16* [ %1033, %1019 ], [ %1018, %1014 ]
  %1024 = phi i32 [ %1035, %1019 ], [ 0, %1014 ]
  %1025 = bitcast i16* %1023 to i32*
  %1026 = load i32, i32* %1025, align 4, !tbaa !10
  %1027 = bitcast i16* %1022 to i32*
  %1028 = load i32, i32* %1027, align 4, !tbaa !10
  %1029 = add i32 %1028, %1026
  %1030 = bitcast i16* %1021 to i32*
  store i32 %1029, i32* %1030, align 4, !tbaa !10
  %1031 = add nuw nsw i32 %1020, 1
  %1032 = getelementptr inbounds i16, i16* %1021, i64 2
  %1033 = getelementptr inbounds i16, i16* %1023, i64 2
  %1034 = getelementptr inbounds i16, i16* %1022, i64 2
  %1035 = add i32 %1024, 1
  %1036 = icmp eq i32 %1024, 0
  br i1 %1036, label %1037, label %1019, !llvm.loop !173

1037:                                             ; preds = %1019
  br i1 %962, label %1038, label %1081

1038:                                             ; preds = %1037, %1038
  %1039 = phi i32 [ %1076, %1038 ], [ %1031, %1037 ]
  %1040 = phi i16* [ %1077, %1038 ], [ %1032, %1037 ]
  %1041 = phi i16* [ %1079, %1038 ], [ %1034, %1037 ]
  %1042 = phi i16* [ %1078, %1038 ], [ %1033, %1037 ]
  %1043 = bitcast i16* %1042 to i32*
  %1044 = load i32, i32* %1043, align 4, !tbaa !10
  %1045 = bitcast i16* %1041 to i32*
  %1046 = load i32, i32* %1045, align 4, !tbaa !10
  %1047 = add i32 %1046, %1044
  %1048 = bitcast i16* %1040 to i32*
  store i32 %1047, i32* %1048, align 4, !tbaa !10
  %1049 = getelementptr inbounds i16, i16* %1040, i64 2
  %1050 = getelementptr inbounds i16, i16* %1042, i64 2
  %1051 = getelementptr inbounds i16, i16* %1041, i64 2
  %1052 = bitcast i16* %1050 to i32*
  %1053 = load i32, i32* %1052, align 4, !tbaa !10
  %1054 = bitcast i16* %1051 to i32*
  %1055 = load i32, i32* %1054, align 4, !tbaa !10
  %1056 = add i32 %1055, %1053
  %1057 = bitcast i16* %1049 to i32*
  store i32 %1056, i32* %1057, align 4, !tbaa !10
  %1058 = getelementptr inbounds i16, i16* %1040, i64 4
  %1059 = getelementptr inbounds i16, i16* %1042, i64 4
  %1060 = getelementptr inbounds i16, i16* %1041, i64 4
  %1061 = bitcast i16* %1059 to i32*
  %1062 = load i32, i32* %1061, align 4, !tbaa !10
  %1063 = bitcast i16* %1060 to i32*
  %1064 = load i32, i32* %1063, align 4, !tbaa !10
  %1065 = add i32 %1064, %1062
  %1066 = bitcast i16* %1058 to i32*
  store i32 %1065, i32* %1066, align 4, !tbaa !10
  %1067 = getelementptr inbounds i16, i16* %1040, i64 6
  %1068 = getelementptr inbounds i16, i16* %1042, i64 6
  %1069 = getelementptr inbounds i16, i16* %1041, i64 6
  %1070 = bitcast i16* %1068 to i32*
  %1071 = load i32, i32* %1070, align 4, !tbaa !10
  %1072 = bitcast i16* %1069 to i32*
  %1073 = load i32, i32* %1072, align 4, !tbaa !10
  %1074 = add i32 %1073, %1071
  %1075 = bitcast i16* %1067 to i32*
  store i32 %1074, i32* %1075, align 4, !tbaa !10
  %1076 = add nuw nsw i32 %1039, 4
  %1077 = getelementptr inbounds i16, i16* %1040, i64 8
  %1078 = getelementptr inbounds i16, i16* %1042, i64 8
  %1079 = getelementptr inbounds i16, i16* %1041, i64 8
  %1080 = icmp eq i32 %1076, 545
  br i1 %1080, label %1081, label %1038, !llvm.loop !174

1081:                                             ; preds = %1038, %1037
  %1082 = getelementptr inbounds i16, i16* %560, i64 8768
  %1083 = getelementptr inbounds i16, i16* %1082, i64 4384
  %1084 = getelementptr inbounds i16, i16* %563, i64 4384
  %1085 = icmp ult i16* %350, %355
  %1086 = icmp ult i16* %354, %351
  %1087 = and i1 %1085, %1086
  %1088 = icmp ult i16* %350, %357
  %1089 = icmp ult i16* %356, %351
  %1090 = and i1 %1088, %1089
  %1091 = or i1 %1087, %1090
  br i1 %1091, label %1143, label %1092

1092:                                             ; preds = %1081
  %1093 = getelementptr i16, i16* %1084, i64 1088
  %1094 = getelementptr i16, i16* %1083, i64 1088
  %1095 = getelementptr i16, i16* %1082, i64 1088
  br label %1096

1096:                                             ; preds = %1096, %1092
  %1097 = phi i64 [ 0, %1092 ], [ %1141, %1096 ]
  %1098 = shl nuw i64 %1097, 1
  %1099 = getelementptr i16, i16* %1084, i64 %1098
  %1100 = shl nuw i64 %1097, 1
  %1101 = getelementptr i16, i16* %1083, i64 %1100
  %1102 = shl nuw i64 %1097, 1
  %1103 = getelementptr i16, i16* %1082, i64 %1102
  %1104 = bitcast i16* %1103 to <4 x i32>*
  %1105 = load <4 x i32>, <4 x i32>* %1104, align 4, !tbaa !10, !alias.scope !175
  %1106 = getelementptr i16, i16* %1103, i64 8
  %1107 = bitcast i16* %1106 to <4 x i32>*
  %1108 = load <4 x i32>, <4 x i32>* %1107, align 4, !tbaa !10, !alias.scope !175
  %1109 = bitcast i16* %1101 to <4 x i32>*
  %1110 = load <4 x i32>, <4 x i32>* %1109, align 4, !tbaa !10, !alias.scope !178
  %1111 = getelementptr i16, i16* %1101, i64 8
  %1112 = bitcast i16* %1111 to <4 x i32>*
  %1113 = load <4 x i32>, <4 x i32>* %1112, align 4, !tbaa !10, !alias.scope !178
  %1114 = add <4 x i32> %1110, %1105
  %1115 = add <4 x i32> %1113, %1108
  %1116 = bitcast i16* %1099 to <4 x i32>*
  store <4 x i32> %1114, <4 x i32>* %1116, align 4, !tbaa !10, !alias.scope !180, !noalias !182
  %1117 = getelementptr i16, i16* %1099, i64 8
  %1118 = bitcast i16* %1117 to <4 x i32>*
  store <4 x i32> %1115, <4 x i32>* %1118, align 4, !tbaa !10, !alias.scope !180, !noalias !182
  %1119 = or i64 %1097, 8
  %1120 = shl nuw i64 %1119, 1
  %1121 = getelementptr i16, i16* %1084, i64 %1120
  %1122 = shl nuw i64 %1119, 1
  %1123 = getelementptr i16, i16* %1083, i64 %1122
  %1124 = shl nuw i64 %1119, 1
  %1125 = getelementptr i16, i16* %1082, i64 %1124
  %1126 = bitcast i16* %1125 to <4 x i32>*
  %1127 = load <4 x i32>, <4 x i32>* %1126, align 4, !tbaa !10, !alias.scope !175
  %1128 = getelementptr i16, i16* %1125, i64 8
  %1129 = bitcast i16* %1128 to <4 x i32>*
  %1130 = load <4 x i32>, <4 x i32>* %1129, align 4, !tbaa !10, !alias.scope !175
  %1131 = bitcast i16* %1123 to <4 x i32>*
  %1132 = load <4 x i32>, <4 x i32>* %1131, align 4, !tbaa !10, !alias.scope !178
  %1133 = getelementptr i16, i16* %1123, i64 8
  %1134 = bitcast i16* %1133 to <4 x i32>*
  %1135 = load <4 x i32>, <4 x i32>* %1134, align 4, !tbaa !10, !alias.scope !178
  %1136 = add <4 x i32> %1132, %1127
  %1137 = add <4 x i32> %1135, %1130
  %1138 = bitcast i16* %1121 to <4 x i32>*
  store <4 x i32> %1136, <4 x i32>* %1138, align 4, !tbaa !10, !alias.scope !180, !noalias !182
  %1139 = getelementptr i16, i16* %1121, i64 8
  %1140 = bitcast i16* %1139 to <4 x i32>*
  store <4 x i32> %1137, <4 x i32>* %1140, align 4, !tbaa !10, !alias.scope !180, !noalias !182
  %1141 = add nuw nsw i64 %1097, 16
  %1142 = icmp eq i64 %1141, 544
  br i1 %1142, label %1143, label %1096, !llvm.loop !183

1143:                                             ; preds = %1081, %1096
  %1144 = phi i32 [ 0, %1081 ], [ 544, %1096 ]
  %1145 = phi i16* [ %1084, %1081 ], [ %1093, %1096 ]
  %1146 = phi i16* [ %1083, %1081 ], [ %1094, %1096 ]
  %1147 = phi i16* [ %1082, %1081 ], [ %1095, %1096 ]
  br label %1148

1148:                                             ; preds = %1148, %1143
  %1149 = phi i32 [ %1160, %1148 ], [ %1144, %1143 ]
  %1150 = phi i16* [ %1161, %1148 ], [ %1145, %1143 ]
  %1151 = phi i16* [ %1163, %1148 ], [ %1146, %1143 ]
  %1152 = phi i16* [ %1162, %1148 ], [ %1147, %1143 ]
  %1153 = phi i32 [ %1164, %1148 ], [ 0, %1143 ]
  %1154 = bitcast i16* %1152 to i32*
  %1155 = load i32, i32* %1154, align 4, !tbaa !10
  %1156 = bitcast i16* %1151 to i32*
  %1157 = load i32, i32* %1156, align 4, !tbaa !10
  %1158 = add i32 %1157, %1155
  %1159 = bitcast i16* %1150 to i32*
  store i32 %1158, i32* %1159, align 4, !tbaa !10
  %1160 = add nuw nsw i32 %1149, 1
  %1161 = getelementptr inbounds i16, i16* %1150, i64 2
  %1162 = getelementptr inbounds i16, i16* %1152, i64 2
  %1163 = getelementptr inbounds i16, i16* %1151, i64 2
  %1164 = add i32 %1153, 1
  %1165 = icmp eq i32 %1153, 0
  br i1 %1165, label %1166, label %1148, !llvm.loop !184

1166:                                             ; preds = %1148
  br i1 %1091, label %1167, label %1210

1167:                                             ; preds = %1166, %1167
  %1168 = phi i32 [ %1205, %1167 ], [ %1160, %1166 ]
  %1169 = phi i16* [ %1206, %1167 ], [ %1161, %1166 ]
  %1170 = phi i16* [ %1208, %1167 ], [ %1163, %1166 ]
  %1171 = phi i16* [ %1207, %1167 ], [ %1162, %1166 ]
  %1172 = bitcast i16* %1171 to i32*
  %1173 = load i32, i32* %1172, align 4, !tbaa !10
  %1174 = bitcast i16* %1170 to i32*
  %1175 = load i32, i32* %1174, align 4, !tbaa !10
  %1176 = add i32 %1175, %1173
  %1177 = bitcast i16* %1169 to i32*
  store i32 %1176, i32* %1177, align 4, !tbaa !10
  %1178 = getelementptr inbounds i16, i16* %1169, i64 2
  %1179 = getelementptr inbounds i16, i16* %1171, i64 2
  %1180 = getelementptr inbounds i16, i16* %1170, i64 2
  %1181 = bitcast i16* %1179 to i32*
  %1182 = load i32, i32* %1181, align 4, !tbaa !10
  %1183 = bitcast i16* %1180 to i32*
  %1184 = load i32, i32* %1183, align 4, !tbaa !10
  %1185 = add i32 %1184, %1182
  %1186 = bitcast i16* %1178 to i32*
  store i32 %1185, i32* %1186, align 4, !tbaa !10
  %1187 = getelementptr inbounds i16, i16* %1169, i64 4
  %1188 = getelementptr inbounds i16, i16* %1171, i64 4
  %1189 = getelementptr inbounds i16, i16* %1170, i64 4
  %1190 = bitcast i16* %1188 to i32*
  %1191 = load i32, i32* %1190, align 4, !tbaa !10
  %1192 = bitcast i16* %1189 to i32*
  %1193 = load i32, i32* %1192, align 4, !tbaa !10
  %1194 = add i32 %1193, %1191
  %1195 = bitcast i16* %1187 to i32*
  store i32 %1194, i32* %1195, align 4, !tbaa !10
  %1196 = getelementptr inbounds i16, i16* %1169, i64 6
  %1197 = getelementptr inbounds i16, i16* %1171, i64 6
  %1198 = getelementptr inbounds i16, i16* %1170, i64 6
  %1199 = bitcast i16* %1197 to i32*
  %1200 = load i32, i32* %1199, align 4, !tbaa !10
  %1201 = bitcast i16* %1198 to i32*
  %1202 = load i32, i32* %1201, align 4, !tbaa !10
  %1203 = add i32 %1202, %1200
  %1204 = bitcast i16* %1196 to i32*
