; ModuleID = 'matrixmultiplication/matrixmulplication.cpp'
source_filename = "matrixmultiplication/matrixmulplication.cpp"
target datalayout = "e-m:e-p270:32:32-p271:32:32-p272:64:64-i64:64-f80:128-n8:16:32:64-S128"
target triple = "x86_64-unknown-linux-gnu"

%"class.std::ios_base::Init" = type { i8 }
%struct.HIP_vector_type = type { %struct.HIP_vector_base }
%struct.HIP_vector_base = type { %union.anon }
%union.anon = type { <4 x float> }
%"class.std::basic_ostream" = type { i32 (...)**, %"class.std::basic_ios" }
%"class.std::basic_ios" = type { %"class.std::ios_base", %"class.std::basic_ostream"*, i8, i8, %"class.std::basic_streambuf"*, %"class.std::ctype"*, %"class.std::num_put"*, %"class.std::num_get"* }
%"class.std::ios_base" = type { i32 (...)**, i64, i64, i32, i32, i32, %"struct.std::ios_base::_Callback_list"*, %"struct.std::ios_base::_Words", [8 x %"struct.std::ios_base::_Words"], i32, %"struct.std::ios_base::_Words"*, %"class.std::locale" }
%"struct.std::ios_base::_Callback_list" = type { %"struct.std::ios_base::_Callback_list"*, void (i32, %"class.std::ios_base"*, i32)*, i32, i32 }
%"struct.std::ios_base::_Words" = type { i8*, i64 }
%"class.std::locale" = type { %"class.std::locale::_Impl"* }
%"class.std::locale::_Impl" = type { i32, %"class.std::locale::facet"**, i64, %"class.std::locale::facet"**, i8** }
%"class.std::locale::facet" = type <{ i32 (...)**, i32, [4 x i8] }>
%"class.std::basic_streambuf" = type { i32 (...)**, i8*, i8*, i8*, i8*, i8*, i8*, %"class.std::locale" }
%"class.std::ctype" = type <{ %"class.std::locale::facet.base", [4 x i8], %struct.__locale_struct*, i8, [7 x i8], i32*, i32*, i16*, i8, [256 x i8], [256 x i8], i8, [6 x i8] }>
%"class.std::locale::facet.base" = type <{ i32 (...)**, i32 }>
%struct.__locale_struct = type { [13 x %struct.__locale_data*], i16*, i32*, i32*, [13 x i8*] }
%struct.__locale_data = type opaque
%"class.std::num_put" = type { %"class.std::locale::facet.base", [4 x i8] }
%"class.std::num_get" = type { %"class.std::locale::facet.base", [4 x i8] }
%struct.dim3 = type { i32, i32, i32 }
%struct.ihipStream_t = type opaque
%class.MatrixMultiplication = type { i32, double, double, double, float*, i32, i32, float*, i32, i32, float*, float*, i32, float*, float*, float*, i8, i32, i32, i32, [2 x i64], [2 x i64], i64, i64, i32, i8, %"class.appsdk::SDKTimer"*, %"class.appsdk::HIPCommandArgs"* }
%"class.appsdk::SDKTimer" = type { %"class.std::vector", double }
%"class.std::vector" = type { %"struct.std::_Vector_base" }
%"struct.std::_Vector_base" = type { %"struct.std::_Vector_base<appsdk::SDKTimer::Timer *, std::allocator<appsdk::SDKTimer::Timer *>>::_Vector_impl" }
%"struct.std::_Vector_base<appsdk::SDKTimer::Timer *, std::allocator<appsdk::SDKTimer::Timer *>>::_Vector_impl" = type { %"struct.appsdk::SDKTimer::Timer"**, %"struct.appsdk::SDKTimer::Timer"**, %"struct.appsdk::SDKTimer::Timer"** }
%"struct.appsdk::SDKTimer::Timer" = type { %"class.std::basic_string", i64, i64, i64 }
%"class.std::basic_string" = type { %"struct.std::basic_string<char>::_Alloc_hider" }
%"struct.std::basic_string<char>::_Alloc_hider" = type { i8* }
%"class.appsdk::HIPCommandArgs" = type <{ %"class.appsdk::SDKCmdArgsParser", i32, i8, [3 x i8] }>
%"class.appsdk::SDKCmdArgsParser" = type { i32 (...)**, i32, i32, i32, i8**, %"struct.appsdk::Option"*, i8, %"class.std::basic_string", %"struct.appsdk::sdkVersionStr", i8, i8, i8, %"class.std::basic_string" }
%"struct.appsdk::Option" = type { %"class.std::basic_string", %"class.std::basic_string", %"class.std::basic_string", %"class.std::basic_string", i32, i8* }
%"struct.appsdk::sdkVersionStr" = type { i32, i32, i32, i32, i32 }
%"class.std::allocator.0" = type { i8 }
%"struct.std::basic_string<char>::_Rep" = type { %"struct.std::basic_string<char>::_Rep_base" }
%"struct.std::basic_string<char>::_Rep_base" = type { i64, i64, i32 }
%struct.timeval = type { i64, i64 }
%struct.timezone = type { i32, i32 }
%"class.std::basic_ostringstream" = type { %"class.std::basic_ostream.base", %"class.std::basic_stringbuf", %"class.std::basic_ios" }
%"class.std::basic_ostream.base" = type { i32 (...)** }
%"class.std::basic_stringbuf" = type { %"class.std::basic_streambuf", i32, %"class.std::basic_string" }

$_ZN6appsdk10fillRandomIfEEiPT_iiS1_S1_j = comdat any

$_ZN6appsdk10printArrayIfEEvSsPKT_ii = comdat any

$_ZN6appsdk14HIPCommandArgs10initializeEv = comdat any

$_ZN6appsdk16SDKCmdArgsParser9AddOptionEPNS_6OptionE = comdat any

$_ZN6appsdk6OptionD2Ev = comdat any

$_ZN6appsdk8SDKTimer11createTimerEv = comdat any

$_ZN6appsdk8SDKTimer10startTimerEi = comdat any

$_ZN6appsdk8SDKTimer9stopTimerEi = comdat any

$_ZN6appsdk8SDKTimer9readTimerEi = comdat any

$_ZN6appsdk14HIPCommandArgs16parseCommandLineEiPPc = comdat any

$_ZN6appsdk16SDKCmdArgsParserD2Ev = comdat any

$_ZN6appsdk14HIPCommandArgsD0Ev = comdat any

$_ZN6appsdk16SDKCmdArgsParser5usageEv = comdat any

$_ZN6appsdk16SDKCmdArgsParser5matchEPPci = comdat any

$_ZN6appsdk16SDKCmdArgsParser4helpEv = comdat any

$_ZTVN6appsdk14HIPCommandArgsE = comdat any

$_ZTSN6appsdk14HIPCommandArgsE = comdat any

$_ZTSN6appsdk16SDKCmdArgsParserE = comdat any

$_ZTIN6appsdk16SDKCmdArgsParserE = comdat any

$_ZTIN6appsdk14HIPCommandArgsE = comdat any

$_ZTVN6appsdk16SDKCmdArgsParserE = comdat any

$__hip_gpubin_handle = comdat any

@_ZStL8__ioinit = internal global %"class.std::ios_base::Init" zeroinitializer, align 1
@__dso_handle = external hidden global i8
@_Z9mmmKernelP15HIP_vector_typeIfLj4EES1_S1_jj = dso_local constant void (%struct.HIP_vector_type*, %struct.HIP_vector_type*, %struct.HIP_vector_type*, i32, i32)* @_Z24__device_stub__mmmKernelP15HIP_vector_typeIfLj4EES1_S1_jj, align 8
@.str = private unnamed_addr constant [41 x i8] c"Failed to allocate host memory. (input0)\00", align 1
@_ZSt4cout = external dso_local global %"class.std::basic_ostream", align 8
@.str.2 = private unnamed_addr constant [12 x i8] c"Location : \00", align 1
@.str.3 = private unnamed_addr constant [44 x i8] c"matrixmultiplication/matrixmulplication.cpp\00", align 1
@.str.4 = private unnamed_addr constant [2 x i8] c":\00", align 1
@.str.5 = private unnamed_addr constant [41 x i8] c"Failed to allocate host memory. (input1)\00", align 1
@.str.6 = private unnamed_addr constant [41 x i8] c"Failed to allocate host memory. (output)\00", align 1
@.str.7 = private unnamed_addr constant [53 x i8] c"Failed to allocate host memory. (verificationOutput)\00", align 1
@.str.8 = private unnamed_addr constant [7 x i8] c"Input0\00", align 1
@.str.9 = private unnamed_addr constant [7 x i8] c"Input1\00", align 1
@.str.11 = private unnamed_addr constant [2 x i8] c"x\00", align 1
@.str.12 = private unnamed_addr constant [8 x i8] c"height0\00", align 1
@.str.13 = private unnamed_addr constant [19 x i8] c"height of matrix A\00", align 1
@.str.14 = private unnamed_addr constant [2 x i8] c"y\00", align 1
@.str.15 = private unnamed_addr constant [7 x i8] c"width0\00", align 1
@.str.16 = private unnamed_addr constant [41 x i8] c"width of matrix A and Height of matrix B\00", align 1
@.str.17 = private unnamed_addr constant [2 x i8] c"z\00", align 1
@.str.18 = private unnamed_addr constant [7 x i8] c"width1\00", align 1
@.str.19 = private unnamed_addr constant [18 x i8] c"width of matrix B\00", align 1
@.str.20 = private unnamed_addr constant [2 x i8] c"b\00", align 1
@.str.21 = private unnamed_addr constant [10 x i8] c"blockSize\00", align 1
@.str.22 = private unnamed_addr constant [53 x i8] c"Use local memory of dimensions blockSize x blockSize\00", align 1
@.str.23 = private unnamed_addr constant [2 x i8] c"i\00", align 1
@.str.24 = private unnamed_addr constant [11 x i8] c"iterations\00", align 1
@.str.25 = private unnamed_addr constant [42 x i8] c"Number of iterations for kernel execution\00", align 1
@.str.26 = private unnamed_addr constant [1 x i8] zeroinitializer, align 1
@.str.27 = private unnamed_addr constant [11 x i8] c"eAppGflops\00", align 1
@.str.28 = private unnamed_addr constant [53 x i8] c"Prints GFLOPS calculated from transfer + kernel time\00", align 1
@.str.29 = private unnamed_addr constant [38 x i8] c"Error: Matrix dimensions can not be 0\00", align 1
@.str.30 = private unnamed_addr constant [22 x i8] c"Executing kernel for \00", align 1
@.str.31 = private unnamed_addr constant [12 x i8] c" iterations\00", align 1
@.str.32 = private unnamed_addr constant [44 x i8] c"-------------------------------------------\00", align 1
@.str.33 = private unnamed_addr constant [7 x i8] c"Output\00", align 1
@.str.34 = private unnamed_addr constant [9 x i8] c"Passed!\0A\00", align 1
@.str.35 = private unnamed_addr constant [8 x i8] c"Failed\0A\00", align 1
@.str.36 = private unnamed_addr constant [8 x i8] c"MatrixA\00", align 1
@.str.37 = private unnamed_addr constant [8 x i8] c"MatrixB\00", align 1
@.str.38 = private unnamed_addr constant [10 x i8] c"Time(sec)\00", align 1
@.str.39 = private unnamed_addr constant [27 x i8] c"[Transfer+kernel]Time(sec)\00", align 1
@.str.40 = private unnamed_addr constant [19 x i8] c"GFlops achieved : \00", align 1
@.str.41 = private unnamed_addr constant [16 x i8] c"kernelTime(sec)\00", align 1
@.str.42 = private unnamed_addr constant [8 x i8] c"Error: \00", align 1
@.str.45 = private unnamed_addr constant [2 x i8] c"q\00", align 1
@.str.46 = private unnamed_addr constant [6 x i8] c"quiet\00", align 1
@.str.47 = private unnamed_addr constant [38 x i8] c"Quiet mode. Suppress all text output.\00", align 1
@.str.48 = private unnamed_addr constant [2 x i8] c"e\00", align 1
@.str.49 = private unnamed_addr constant [7 x i8] c"verify\00", align 1
@.str.50 = private unnamed_addr constant [49 x i8] c"Verify results against reference implementation.\00", align 1
@.str.51 = private unnamed_addr constant [2 x i8] c"t\00", align 1
@.str.52 = private unnamed_addr constant [7 x i8] c"timing\00", align 1
@.str.53 = private unnamed_addr constant [14 x i8] c"Print timing.\00", align 1
@.str.54 = private unnamed_addr constant [2 x i8] c"v\00", align 1
@.str.55 = private unnamed_addr constant [8 x i8] c"version\00", align 1
@.str.56 = private unnamed_addr constant [28 x i8] c"AMD APP SDK version string.\00", align 1
@.str.57 = private unnamed_addr constant [2 x i8] c"d\00", align 1
@.str.58 = private unnamed_addr constant [9 x i8] c"deviceId\00", align 1
@.str.59 = private unnamed_addr constant [74 x i8] c"Select deviceId to be used[0 to N-1 where N is number devices available].\00", align 1
@.str.60 = private unnamed_addr constant [37 x i8] c"Error. Cannot add option, NULL input\00", align 1
@.str.64 = private unnamed_addr constant [36 x i8] c"Cannot reset timer. Invalid handle.\00", align 1
@.str.65 = private unnamed_addr constant [35 x i8] c"Cannot read timer. Invalid handle.\00", align 1
@.str.66 = private unnamed_addr constant [2 x i8] c"|\00", align 1
@.str.67 = private unnamed_addr constant [2 x i8] c" \00", align 1
@.str.68 = private unnamed_addr constant [2 x i8] c"-\00", align 1
@.str.69 = private unnamed_addr constant [30 x i8] c"HIP-Examples-Application-v1.0\00", align 1
@_ZTVN6appsdk14HIPCommandArgsE = linkonce_odr dso_local unnamed_addr constant { [5 x i8*] } { [5 x i8*] [i8* null, i8* bitcast ({ i8*, i8*, i8* }* @_ZTIN6appsdk14HIPCommandArgsE to i8*), i8* bitcast (i32 (%"class.appsdk::HIPCommandArgs"*, i32, i8**)* @_ZN6appsdk14HIPCommandArgs16parseCommandLineEiPPc to i8*), i8* bitcast (void (%"class.appsdk::SDKCmdArgsParser"*)* @_ZN6appsdk16SDKCmdArgsParserD2Ev to i8*), i8* bitcast (void (%"class.appsdk::HIPCommandArgs"*)* @_ZN6appsdk14HIPCommandArgsD0Ev to i8*)] }, comdat, align 8
@_ZTVN10__cxxabiv120__si_class_type_infoE = external dso_local global i8*
@_ZTSN6appsdk14HIPCommandArgsE = linkonce_odr dso_local constant [26 x i8] c"N6appsdk14HIPCommandArgsE\00", comdat, align 1
@_ZTVN10__cxxabiv117__class_type_infoE = external dso_local global i8*
@_ZTSN6appsdk16SDKCmdArgsParserE = linkonce_odr dso_local constant [28 x i8] c"N6appsdk16SDKCmdArgsParserE\00", comdat, align 1
@_ZTIN6appsdk16SDKCmdArgsParserE = linkonce_odr dso_local constant { i8*, i8* } { i8* bitcast (i8** getelementptr inbounds (i8*, i8** @_ZTVN10__cxxabiv117__class_type_infoE, i64 2) to i8*), i8* getelementptr inbounds ([28 x i8], [28 x i8]* @_ZTSN6appsdk16SDKCmdArgsParserE, i32 0, i32 0) }, comdat, align 8
@_ZTIN6appsdk14HIPCommandArgsE = linkonce_odr dso_local constant { i8*, i8*, i8* } { i8* bitcast (i8** getelementptr inbounds (i8*, i8** @_ZTVN10__cxxabiv120__si_class_type_infoE, i64 2) to i8*), i8* getelementptr inbounds ([26 x i8], [26 x i8]* @_ZTSN6appsdk14HIPCommandArgsE, i32 0, i32 0), i8* bitcast ({ i8*, i8* }* @_ZTIN6appsdk16SDKCmdArgsParserE to i8*) }, comdat, align 8
@_ZTVN6appsdk16SDKCmdArgsParserE = linkonce_odr dso_local unnamed_addr constant { [3 x i8*] } { [3 x i8*] [i8* null, i8* bitcast ({ i8*, i8* }* @_ZTIN6appsdk16SDKCmdArgsParserE to i8*), i8* bitcast (void ()* @__cxa_pure_virtual to i8*)] }, comdat, align 8
@.str.70 = private unnamed_addr constant [2 x i8] c"h\00", align 1
@.str.71 = private unnamed_addr constant [15 x i8] c"SDK version : \00", align 1
@.str.72 = private unnamed_addr constant [3 x i8] c"%f\00", align 1
@.str.73 = private unnamed_addr constant [30 x i8] c"Error. Missing argument for \22\00", align 1
@.str.74 = private unnamed_addr constant [3 x i8] c"\22\0A\00", align 1
@.str.75 = private unnamed_addr constant [4 x i8] c"%lf\00", align 1
@.str.76 = private unnamed_addr constant [3 x i8] c"%d\00", align 1
@_ZNSs4_Rep20_S_empty_rep_storageE = external dso_local global [0 x i64], align 8
@.str.77 = private unnamed_addr constant [7 x i8] c"Usage\0A\00", align 1
@.str.78 = private unnamed_addr constant [5 x i8] c"-h, \00", align 1
@.str.79 = private unnamed_addr constant [7 x i8] c"--help\00", align 1
@.str.80 = private unnamed_addr constant [26 x i8] c"Display this information\0A\00", align 1
@.str.81 = private unnamed_addr constant [3 x i8] c", \00", align 1
@.str.82 = private unnamed_addr constant [5 x i8] c"    \00", align 1
@.str.83 = private unnamed_addr constant [3 x i8] c"--\00", align 1
@.str.84 = private unnamed_addr constant [2 x i8] c"\0A\00", align 1
@.str.87 = private unnamed_addr constant [33 x i8] c"Cannot fill array. NULL pointer.\00", align 1
@_ZTTSt19basic_ostringstreamIcSt11char_traitsIcESaIcEE = external unnamed_addr constant [4 x i8*], align 8
@_ZTVSt15basic_stringbufIcSt11char_traitsIcESaIcEE = external dso_local unnamed_addr constant { [16 x i8*] }, align 8
@_ZTVSt15basic_streambufIcSt11char_traitsIcEE = external dso_local unnamed_addr constant { [16 x i8*] }, align 8
@0 = private unnamed_addr constant [46 x i8] c"_Z9mmmKernelP15HIP_vector_typeIfLj4EES1_S1_jj\00", align 1
@__hip_fatbin = external constant i8, section ".hip_fatbin"
@__hip_fatbin_wrapper = internal constant { i32, i32, i8*, i8* } { i32 1212764230, i32 1, i8* @__hip_fatbin, i8* null }, section ".hipFatBinSegment", align 8
@__hip_gpubin_handle = linkonce hidden local_unnamed_addr global i8** null, comdat, align 8
@llvm.global_ctors = appending global [2 x { i32, void ()*, i8* }] [{ i32, void ()*, i8* } { i32 65535, void ()* @_GLOBAL__sub_I_matrixmulplication.cpp, i8* null }, { i32, void ()*, i8* } { i32 65535, void ()* bitcast (void (i8*)* @__hip_module_ctor to void ()*), i8* null }]

declare dso_local void @_ZNSt8ios_base4InitC1Ev(%"class.std::ios_base::Init"* nonnull align 1 dereferenceable(1)) unnamed_addr #0

; Function Attrs: nounwind
declare dso_local void @_ZNSt8ios_base4InitD1Ev(%"class.std::ios_base::Init"* nonnull align 1 dereferenceable(1)) unnamed_addr #1

; Function Attrs: nofree nounwind
declare dso_local i32 @__cxa_atexit(void (i8*)*, i8*, i8*) local_unnamed_addr #2

; Function Attrs: norecurse uwtable
define dso_local void @_Z24__device_stub__mmmKernelP15HIP_vector_typeIfLj4EES1_S1_jj(%struct.HIP_vector_type* %0, %struct.HIP_vector_type* %1, %struct.HIP_vector_type* %2, i32 %3, i32 %4) #3 {
  %6 = alloca %struct.HIP_vector_type*, align 8
  %7 = alloca %struct.HIP_vector_type*, align 8
  %8 = alloca %struct.HIP_vector_type*, align 8
  %9 = alloca i32, align 4
  %10 = alloca i32, align 4
  %11 = alloca %struct.dim3, align 8
  %12 = alloca %struct.dim3, align 8
  %13 = alloca i64, align 8
  %14 = alloca i8*, align 8
  store %struct.HIP_vector_type* %0, %struct.HIP_vector_type** %6, align 8, !tbaa !3
  store %struct.HIP_vector_type* %1, %struct.HIP_vector_type** %7, align 8, !tbaa !3
  store %struct.HIP_vector_type* %2, %struct.HIP_vector_type** %8, align 8, !tbaa !3
  store i32 %3, i32* %9, align 4, !tbaa !7
  store i32 %4, i32* %10, align 4, !tbaa !7
  %15 = alloca [5 x i8*], align 16
  %16 = getelementptr inbounds [5 x i8*], [5 x i8*]* %15, i64 0, i64 0
  %17 = bitcast [5 x i8*]* %15 to %struct.HIP_vector_type***
  store %struct.HIP_vector_type** %6, %struct.HIP_vector_type*** %17, align 16
  %18 = getelementptr inbounds [5 x i8*], [5 x i8*]* %15, i64 0, i64 1
  %19 = bitcast i8** %18 to %struct.HIP_vector_type***
  store %struct.HIP_vector_type** %7, %struct.HIP_vector_type*** %19, align 8
  %20 = getelementptr inbounds [5 x i8*], [5 x i8*]* %15, i64 0, i64 2
  %21 = bitcast i8** %20 to %struct.HIP_vector_type***
  store %struct.HIP_vector_type** %8, %struct.HIP_vector_type*** %21, align 16
  %22 = getelementptr inbounds [5 x i8*], [5 x i8*]* %15, i64 0, i64 3
  %23 = bitcast i8** %22 to i32**
  store i32* %9, i32** %23, align 8
  %24 = getelementptr inbounds [5 x i8*], [5 x i8*]* %15, i64 0, i64 4
  %25 = bitcast i8** %24 to i32**
  store i32* %10, i32** %25, align 16
  %26 = call i32 @__hipPopCallConfiguration(%struct.dim3* nonnull %11, %struct.dim3* nonnull %12, i64* nonnull %13, i8** nonnull %14)
  %27 = load i64, i64* %13, align 8
  %28 = bitcast i8** %14 to %struct.ihipStream_t**
  %29 = load %struct.ihipStream_t*, %struct.ihipStream_t** %28, align 8
  %30 = bitcast %struct.dim3* %11 to i64*
  %31 = load i64, i64* %30, align 8
  %32 = getelementptr inbounds %struct.dim3, %struct.dim3* %11, i64 0, i32 2
  %33 = load i32, i32* %32, align 8
  %34 = bitcast %struct.dim3* %12 to i64*
  %35 = load i64, i64* %34, align 8
  %36 = getelementptr inbounds %struct.dim3, %struct.dim3* %12, i64 0, i32 2
  %37 = load i32, i32* %36, align 8
  %38 = call i32 @hipLaunchKernel(i8* bitcast (void (%struct.HIP_vector_type*, %struct.HIP_vector_type*, %struct.HIP_vector_type*, i32, i32)** @_Z9mmmKernelP15HIP_vector_typeIfLj4EES1_S1_jj to i8*), i64 %31, i32 %33, i64 %35, i32 %37, i8** nonnull %16, i64 %27, %struct.ihipStream_t* %29)
  ret void
}

declare dso_local i32 @__hipPopCallConfiguration(%struct.dim3*, %struct.dim3*, i64*, i8**) local_unnamed_addr

declare dso_local i32 @hipLaunchKernel(i8*, i64, i32, i64, i32, i8**, i64, %struct.ihipStream_t*) local_unnamed_addr

; Function Attrs: argmemonly mustprogress nofree nounwind willreturn
declare void @llvm.memcpy.p0i8.p0i8.i64(i8* noalias nocapture writeonly, i8* noalias nocapture readonly, i64, i1 immarg) #4

; Function Attrs: uwtable
define dso_local i32 @_ZN20MatrixMultiplication25setupMatrixMultiplicationEv(%class.MatrixMultiplication* nocapture nonnull align 8 dereferenceable(200) %0) local_unnamed_addr #5 align 2 personality i8* bitcast (i32 (...)* @__gxx_personality_v0 to i8*) {
  %2 = alloca %"class.std::allocator.0", align 1
  %3 = alloca %"class.std::allocator.0", align 1
  %4 = alloca %"class.std::allocator.0", align 1
  %5 = alloca %"class.std::allocator.0", align 1
  %6 = alloca %"class.std::allocator.0", align 1
  %7 = alloca %"class.std::allocator.0", align 1
  %8 = alloca %"class.std::basic_string", align 8
  %9 = alloca %"class.std::allocator.0", align 1
  %10 = alloca %"class.std::basic_string", align 8
  %11 = alloca %"class.std::allocator.0", align 1
  %12 = alloca %"class.std::basic_string", align 8
  %13 = alloca %"class.std::allocator.0", align 1
  %14 = alloca %"class.std::basic_string", align 8
  %15 = alloca %"class.std::allocator.0", align 1
  %16 = alloca %"class.std::basic_string", align 8
  %17 = alloca %"class.std::allocator.0", align 1
  %18 = alloca %"class.std::basic_string", align 8
  %19 = alloca %"class.std::allocator.0", align 1
  %20 = getelementptr inbounds %class.MatrixMultiplication, %class.MatrixMultiplication* %0, i64 0, i32 5
  %21 = load i32, i32* %20, align 8, !tbaa !9
  %22 = getelementptr inbounds %class.MatrixMultiplication, %class.MatrixMultiplication* %0, i64 0, i32 6
  %23 = load i32, i32* %22, align 4, !tbaa !14
  %24 = shl i32 %21, 2
  %25 = mul i32 %24, %23
  %26 = zext i32 %25 to i64
  %27 = tail call noalias align 16 i8* @malloc(i64 %26) #26
  %28 = getelementptr inbounds %class.MatrixMultiplication, %class.MatrixMultiplication* %0, i64 0, i32 4
  %29 = bitcast float** %28 to i8**
  store i8* %27, i8** %29, align 8, !tbaa !15
  %30 = icmp eq i8* %27, null
  %31 = bitcast i8* %27 to float*
  br i1 %30, label %32, label %94

32:                                               ; preds = %1
  %33 = getelementptr inbounds %"class.std::allocator.0", %"class.std::allocator.0"* %9, i64 0, i32 0
  call void @llvm.lifetime.start.p0i8(i64 1, i8* nonnull %33) #26
  invoke void @_ZNSsC1EPKcRKSaIcE(%"class.std::basic_string"* nonnull align 8 dereferenceable(8) %8, i8* getelementptr inbounds ([41 x i8], [41 x i8]* @.str, i64 0, i64 0), %"class.std::allocator.0"* nonnull align 1 dereferenceable(1) %9)
          to label %34 unwind label %88

34:                                               ; preds = %32
  invoke fastcc void @_ZN6appsdkL9sdk_errorESs(%"class.std::basic_string"* nonnull %8)
          to label %35 unwind label %90

35:                                               ; preds = %34
  %36 = getelementptr inbounds %"class.std::basic_string", %"class.std::basic_string"* %8, i64 0, i32 0, i32 0
  %37 = load i8*, i8** %36, align 8, !tbaa !16
  %38 = getelementptr inbounds i8, i8* %37, i64 -24
  %39 = bitcast i8* %38 to %"struct.std::basic_string<char>::_Rep"*
  %40 = getelementptr inbounds %"class.std::allocator.0", %"class.std::allocator.0"* %7, i64 0, i32 0
  call void @llvm.lifetime.start.p0i8(i64 1, i8* nonnull %40) #26
  %41 = icmp eq i8* %38, bitcast ([0 x i64]* @_ZNSs4_Rep20_S_empty_rep_storageE to i8*)
  br i1 %41, label %54, label %42, !prof !19

42:                                               ; preds = %35
  %43 = getelementptr inbounds i8, i8* %37, i64 -8
  %44 = bitcast i8* %43 to i32*
  br i1 icmp ne (i8* bitcast (i32 (i32*, void (i8*)*)* @__pthread_key_create to i8*), i8* null), label %45, label %47

45:                                               ; preds = %42
  %46 = atomicrmw volatile add i32* %44, i32 -1 acq_rel, align 4
  br label %50

47:                                               ; preds = %42
  %48 = load i32, i32* %44, align 8, !tbaa !7
  %49 = add nsw i32 %48, -1
  store i32 %49, i32* %44, align 8, !tbaa !7
  br label %50

50:                                               ; preds = %47, %45
  %51 = phi i32 [ %46, %45 ], [ %48, %47 ]
  %52 = icmp slt i32 %51, 1
  br i1 %52, label %53, label %54

53:                                               ; preds = %50
  call void @_ZNSs4_Rep10_M_destroyERKSaIcE(%"struct.std::basic_string<char>::_Rep"* nonnull align 8 dereferenceable(24) %39, %"class.std::allocator.0"* nonnull align 1 dereferenceable(1) %7) #26
  br label %54

54:                                               ; preds = %35, %50, %53
  call void @llvm.lifetime.end.p0i8(i64 1, i8* nonnull %40) #26
  call void @llvm.lifetime.end.p0i8(i64 1, i8* nonnull %33) #26
  %55 = call nonnull align 8 dereferenceable(8) %"class.std::basic_ostream"* @_ZSt16__ostream_insertIcSt11char_traitsIcEERSt13basic_ostreamIT_T0_ES6_PKS3_l(%"class.std::basic_ostream"* nonnull align 8 dereferenceable(8) @_ZSt4cout, i8* nonnull getelementptr inbounds ([12 x i8], [12 x i8]* @.str.2, i64 0, i64 0), i64 11)
  %56 = call nonnull align 8 dereferenceable(8) %"class.std::basic_ostream"* @_ZSt16__ostream_insertIcSt11char_traitsIcEERSt13basic_ostreamIT_T0_ES6_PKS3_l(%"class.std::basic_ostream"* nonnull align 8 dereferenceable(8) @_ZSt4cout, i8* nonnull getelementptr inbounds ([44 x i8], [44 x i8]* @.str.3, i64 0, i64 0), i64 43)
  %57 = call nonnull align 8 dereferenceable(8) %"class.std::basic_ostream"* @_ZSt16__ostream_insertIcSt11char_traitsIcEERSt13basic_ostreamIT_T0_ES6_PKS3_l(%"class.std::basic_ostream"* nonnull align 8 dereferenceable(8) @_ZSt4cout, i8* nonnull getelementptr inbounds ([2 x i8], [2 x i8]* @.str.4, i64 0, i64 0), i64 1)
  %58 = call nonnull align 8 dereferenceable(8) %"class.std::basic_ostream"* @_ZNSolsEi(%"class.std::basic_ostream"* nonnull align 8 dereferenceable(8) @_ZSt4cout, i32 264)
  %59 = bitcast %"class.std::basic_ostream"* %58 to i8**
  %60 = load i8*, i8** %59, align 8, !tbaa !20
  %61 = getelementptr i8, i8* %60, i64 -24
  %62 = bitcast i8* %61 to i64*
  %63 = load i64, i64* %62, align 8
  %64 = bitcast %"class.std::basic_ostream"* %58 to i8*
  %65 = getelementptr inbounds i8, i8* %64, i64 %63
  %66 = getelementptr inbounds i8, i8* %65, i64 240
  %67 = bitcast i8* %66 to %"class.std::ctype"**
  %68 = load %"class.std::ctype"*, %"class.std::ctype"** %67, align 8, !tbaa !22
  %69 = icmp eq %"class.std::ctype"* %68, null
  br i1 %69, label %70, label %71

70:                                               ; preds = %54
  call void @_ZSt16__throw_bad_castv() #27
  unreachable

71:                                               ; preds = %54
  %72 = getelementptr inbounds %"class.std::ctype", %"class.std::ctype"* %68, i64 0, i32 8
  %73 = load i8, i8* %72, align 8, !tbaa !24
  %74 = icmp eq i8 %73, 0
  br i1 %74, label %78, label %75

75:                                               ; preds = %71
  %76 = getelementptr inbounds %"class.std::ctype", %"class.std::ctype"* %68, i64 0, i32 9, i64 10
  %77 = load i8, i8* %76, align 1, !tbaa !26
  br label %84

78:                                               ; preds = %71
  call void @_ZNKSt5ctypeIcE13_M_widen_initEv(%"class.std::ctype"* nonnull align 8 dereferenceable(570) %68)
  %79 = bitcast %"class.std::ctype"* %68 to i8 (%"class.std::ctype"*, i8)***
  %80 = load i8 (%"class.std::ctype"*, i8)**, i8 (%"class.std::ctype"*, i8)*** %79, align 8, !tbaa !20
  %81 = getelementptr inbounds i8 (%"class.std::ctype"*, i8)*, i8 (%"class.std::ctype"*, i8)** %80, i64 6
  %82 = load i8 (%"class.std::ctype"*, i8)*, i8 (%"class.std::ctype"*, i8)** %81, align 8
  %83 = call signext i8 %82(%"class.std::ctype"* nonnull align 8 dereferenceable(570) %68, i8 signext 10)
  br label %84

84:                                               ; preds = %75, %78
  %85 = phi i8 [ %77, %75 ], [ %83, %78 ]
  %86 = call nonnull align 8 dereferenceable(8) %"class.std::basic_ostream"* @_ZNSo3putEc(%"class.std::basic_ostream"* nonnull align 8 dereferenceable(8) %58, i8 signext %85)
  %87 = call nonnull align 8 dereferenceable(8) %"class.std::basic_ostream"* @_ZNSo5flushEv(%"class.std::basic_ostream"* nonnull align 8 dereferenceable(8) %86)
  br label %384

88:                                               ; preds = %32
  %89 = landingpad { i8*, i32 }
          cleanup
  br label %92

90:                                               ; preds = %34
  %91 = landingpad { i8*, i32 }
          cleanup
  call void @_ZNSsD2Ev(%"class.std::basic_string"* nonnull align 8 dereferenceable(8) %8) #26
  br label %92

92:                                               ; preds = %90, %88
  %93 = phi { i8*, i32 } [ %91, %90 ], [ %89, %88 ]
  call void @llvm.lifetime.end.p0i8(i64 1, i8* nonnull %33) #26
  br label %386

94:                                               ; preds = %1
  %95 = getelementptr inbounds %class.MatrixMultiplication, %class.MatrixMultiplication* %0, i64 0, i32 8
  %96 = load i32, i32* %95, align 8, !tbaa !27
  %97 = getelementptr inbounds %class.MatrixMultiplication, %class.MatrixMultiplication* %0, i64 0, i32 9
  %98 = load i32, i32* %97, align 4, !tbaa !28
  %99 = shl i32 %96, 2
  %100 = mul i32 %99, %98
  %101 = zext i32 %100 to i64
  %102 = tail call noalias align 16 i8* @malloc(i64 %101) #26
  %103 = getelementptr inbounds %class.MatrixMultiplication, %class.MatrixMultiplication* %0, i64 0, i32 7
  %104 = bitcast float** %103 to i8**
  store i8* %102, i8** %104, align 8, !tbaa !29
  %105 = icmp eq i8* %102, null
  br i1 %105, label %106, label %168

106:                                              ; preds = %94
  %107 = getelementptr inbounds %"class.std::allocator.0", %"class.std::allocator.0"* %11, i64 0, i32 0
  call void @llvm.lifetime.start.p0i8(i64 1, i8* nonnull %107) #26
  invoke void @_ZNSsC1EPKcRKSaIcE(%"class.std::basic_string"* nonnull align 8 dereferenceable(8) %10, i8* getelementptr inbounds ([41 x i8], [41 x i8]* @.str.5, i64 0, i64 0), %"class.std::allocator.0"* nonnull align 1 dereferenceable(1) %11)
          to label %108 unwind label %162

108:                                              ; preds = %106
  invoke fastcc void @_ZN6appsdkL9sdk_errorESs(%"class.std::basic_string"* nonnull %10)
          to label %109 unwind label %164

109:                                              ; preds = %108
  %110 = getelementptr inbounds %"class.std::basic_string", %"class.std::basic_string"* %10, i64 0, i32 0, i32 0
  %111 = load i8*, i8** %110, align 8, !tbaa !16
  %112 = getelementptr inbounds i8, i8* %111, i64 -24
  %113 = bitcast i8* %112 to %"struct.std::basic_string<char>::_Rep"*
  %114 = getelementptr inbounds %"class.std::allocator.0", %"class.std::allocator.0"* %6, i64 0, i32 0
  call void @llvm.lifetime.start.p0i8(i64 1, i8* nonnull %114) #26
  %115 = icmp eq i8* %112, bitcast ([0 x i64]* @_ZNSs4_Rep20_S_empty_rep_storageE to i8*)
  br i1 %115, label %128, label %116, !prof !19

116:                                              ; preds = %109
  %117 = getelementptr inbounds i8, i8* %111, i64 -8
  %118 = bitcast i8* %117 to i32*
  br i1 icmp ne (i8* bitcast (i32 (i32*, void (i8*)*)* @__pthread_key_create to i8*), i8* null), label %119, label %121

119:                                              ; preds = %116
  %120 = atomicrmw volatile add i32* %118, i32 -1 acq_rel, align 4
  br label %124

121:                                              ; preds = %116
  %122 = load i32, i32* %118, align 8, !tbaa !7
  %123 = add nsw i32 %122, -1
  store i32 %123, i32* %118, align 8, !tbaa !7
  br label %124

124:                                              ; preds = %121, %119
  %125 = phi i32 [ %120, %119 ], [ %122, %121 ]
  %126 = icmp slt i32 %125, 1
  br i1 %126, label %127, label %128

127:                                              ; preds = %124
  call void @_ZNSs4_Rep10_M_destroyERKSaIcE(%"struct.std::basic_string<char>::_Rep"* nonnull align 8 dereferenceable(24) %113, %"class.std::allocator.0"* nonnull align 1 dereferenceable(1) %6) #26
  br label %128

128:                                              ; preds = %109, %124, %127
  call void @llvm.lifetime.end.p0i8(i64 1, i8* nonnull %114) #26
  call void @llvm.lifetime.end.p0i8(i64 1, i8* nonnull %107) #26
  %129 = call nonnull align 8 dereferenceable(8) %"class.std::basic_ostream"* @_ZSt16__ostream_insertIcSt11char_traitsIcEERSt13basic_ostreamIT_T0_ES6_PKS3_l(%"class.std::basic_ostream"* nonnull align 8 dereferenceable(8) @_ZSt4cout, i8* nonnull getelementptr inbounds ([12 x i8], [12 x i8]* @.str.2, i64 0, i64 0), i64 11)
  %130 = call nonnull align 8 dereferenceable(8) %"class.std::basic_ostream"* @_ZSt16__ostream_insertIcSt11char_traitsIcEERSt13basic_ostreamIT_T0_ES6_PKS3_l(%"class.std::basic_ostream"* nonnull align 8 dereferenceable(8) @_ZSt4cout, i8* nonnull getelementptr inbounds ([44 x i8], [44 x i8]* @.str.3, i64 0, i64 0), i64 43)
  %131 = call nonnull align 8 dereferenceable(8) %"class.std::basic_ostream"* @_ZSt16__ostream_insertIcSt11char_traitsIcEERSt13basic_ostreamIT_T0_ES6_PKS3_l(%"class.std::basic_ostream"* nonnull align 8 dereferenceable(8) @_ZSt4cout, i8* nonnull getelementptr inbounds ([2 x i8], [2 x i8]* @.str.4, i64 0, i64 0), i64 1)
  %132 = call nonnull align 8 dereferenceable(8) %"class.std::basic_ostream"* @_ZNSolsEi(%"class.std::basic_ostream"* nonnull align 8 dereferenceable(8) @_ZSt4cout, i32 270)
  %133 = bitcast %"class.std::basic_ostream"* %132 to i8**
  %134 = load i8*, i8** %133, align 8, !tbaa !20
  %135 = getelementptr i8, i8* %134, i64 -24
  %136 = bitcast i8* %135 to i64*
  %137 = load i64, i64* %136, align 8
  %138 = bitcast %"class.std::basic_ostream"* %132 to i8*
  %139 = getelementptr inbounds i8, i8* %138, i64 %137
  %140 = getelementptr inbounds i8, i8* %139, i64 240
  %141 = bitcast i8* %140 to %"class.std::ctype"**
  %142 = load %"class.std::ctype"*, %"class.std::ctype"** %141, align 8, !tbaa !22
  %143 = icmp eq %"class.std::ctype"* %142, null
  br i1 %143, label %144, label %145

144:                                              ; preds = %128
  call void @_ZSt16__throw_bad_castv() #27
  unreachable

145:                                              ; preds = %128
  %146 = getelementptr inbounds %"class.std::ctype", %"class.std::ctype"* %142, i64 0, i32 8
  %147 = load i8, i8* %146, align 8, !tbaa !24
  %148 = icmp eq i8 %147, 0
  br i1 %148, label %152, label %149

149:                                              ; preds = %145
  %150 = getelementptr inbounds %"class.std::ctype", %"class.std::ctype"* %142, i64 0, i32 9, i64 10
  %151 = load i8, i8* %150, align 1, !tbaa !26
  br label %158

152:                                              ; preds = %145
  call void @_ZNKSt5ctypeIcE13_M_widen_initEv(%"class.std::ctype"* nonnull align 8 dereferenceable(570) %142)
  %153 = bitcast %"class.std::ctype"* %142 to i8 (%"class.std::ctype"*, i8)***
  %154 = load i8 (%"class.std::ctype"*, i8)**, i8 (%"class.std::ctype"*, i8)*** %153, align 8, !tbaa !20
  %155 = getelementptr inbounds i8 (%"class.std::ctype"*, i8)*, i8 (%"class.std::ctype"*, i8)** %154, i64 6
  %156 = load i8 (%"class.std::ctype"*, i8)*, i8 (%"class.std::ctype"*, i8)** %155, align 8
  %157 = call signext i8 %156(%"class.std::ctype"* nonnull align 8 dereferenceable(570) %142, i8 signext 10)
  br label %158

158:                                              ; preds = %149, %152
  %159 = phi i8 [ %151, %149 ], [ %157, %152 ]
  %160 = call nonnull align 8 dereferenceable(8) %"class.std::basic_ostream"* @_ZNSo3putEc(%"class.std::basic_ostream"* nonnull align 8 dereferenceable(8) %132, i8 signext %159)
  %161 = call nonnull align 8 dereferenceable(8) %"class.std::basic_ostream"* @_ZNSo5flushEv(%"class.std::basic_ostream"* nonnull align 8 dereferenceable(8) %160)
  br label %384

162:                                              ; preds = %106
  %163 = landingpad { i8*, i32 }
          cleanup
  br label %166

164:                                              ; preds = %108
  %165 = landingpad { i8*, i32 }
          cleanup
  call void @_ZNSsD2Ev(%"class.std::basic_string"* nonnull align 8 dereferenceable(8) %10) #26
  br label %166

166:                                              ; preds = %164, %162
  %167 = phi { i8*, i32 } [ %165, %164 ], [ %163, %162 ]
  call void @llvm.lifetime.end.p0i8(i64 1, i8* nonnull %107) #26
  br label %386

168:                                              ; preds = %94
  %169 = tail call i32 @_ZN6appsdk10fillRandomIfEEiPT_iiS1_S1_j(float* nonnull %31, i32 %21, i32 %23, float 0.000000e+00, float 1.000000e+01, i32 123)
  %170 = load float*, float** %103, align 8, !tbaa !29
  %171 = load i32, i32* %95, align 8, !tbaa !27
  %172 = load i32, i32* %97, align 4, !tbaa !28
  %173 = tail call i32 @_ZN6appsdk10fillRandomIfEEiPT_iiS1_S1_j(float* %170, i32 %171, i32 %172, float 0.000000e+00, float 1.000000e+01, i32 123)
  %174 = load i32, i32* %22, align 4, !tbaa !14
  %175 = load i32, i32* %95, align 8, !tbaa !27
  %176 = shl i32 %174, 2
  %177 = mul i32 %176, %175
  %178 = zext i32 %177 to i64
  %179 = tail call noalias align 16 i8* @malloc(i64 %178) #26
  %180 = getelementptr inbounds %class.MatrixMultiplication, %class.MatrixMultiplication* %0, i64 0, i32 10
  %181 = bitcast float** %180 to i8**
  store i8* %179, i8** %181, align 8, !tbaa !30
  %182 = icmp eq i8* %179, null
  br i1 %182, label %183, label %245

183:                                              ; preds = %168
  %184 = getelementptr inbounds %"class.std::allocator.0", %"class.std::allocator.0"* %13, i64 0, i32 0
  call void @llvm.lifetime.start.p0i8(i64 1, i8* nonnull %184) #26
  invoke void @_ZNSsC1EPKcRKSaIcE(%"class.std::basic_string"* nonnull align 8 dereferenceable(8) %12, i8* getelementptr inbounds ([41 x i8], [41 x i8]* @.str.6, i64 0, i64 0), %"class.std::allocator.0"* nonnull align 1 dereferenceable(1) %13)
          to label %185 unwind label %239

185:                                              ; preds = %183
  invoke fastcc void @_ZN6appsdkL9sdk_errorESs(%"class.std::basic_string"* nonnull %12)
          to label %186 unwind label %241

186:                                              ; preds = %185
  %187 = getelementptr inbounds %"class.std::basic_string", %"class.std::basic_string"* %12, i64 0, i32 0, i32 0
  %188 = load i8*, i8** %187, align 8, !tbaa !16
  %189 = getelementptr inbounds i8, i8* %188, i64 -24
  %190 = bitcast i8* %189 to %"struct.std::basic_string<char>::_Rep"*
  %191 = getelementptr inbounds %"class.std::allocator.0", %"class.std::allocator.0"* %5, i64 0, i32 0
  call void @llvm.lifetime.start.p0i8(i64 1, i8* nonnull %191) #26
  %192 = icmp eq i8* %189, bitcast ([0 x i64]* @_ZNSs4_Rep20_S_empty_rep_storageE to i8*)
  br i1 %192, label %205, label %193, !prof !19

193:                                              ; preds = %186
  %194 = getelementptr inbounds i8, i8* %188, i64 -8
  %195 = bitcast i8* %194 to i32*
  br i1 icmp ne (i8* bitcast (i32 (i32*, void (i8*)*)* @__pthread_key_create to i8*), i8* null), label %196, label %198

196:                                              ; preds = %193
  %197 = atomicrmw volatile add i32* %195, i32 -1 acq_rel, align 4
  br label %201

198:                                              ; preds = %193
  %199 = load i32, i32* %195, align 8, !tbaa !7
  %200 = add nsw i32 %199, -1
  store i32 %200, i32* %195, align 8, !tbaa !7
  br label %201

201:                                              ; preds = %198, %196
  %202 = phi i32 [ %197, %196 ], [ %199, %198 ]
  %203 = icmp slt i32 %202, 1
  br i1 %203, label %204, label %205

204:                                              ; preds = %201
  call void @_ZNSs4_Rep10_M_destroyERKSaIcE(%"struct.std::basic_string<char>::_Rep"* nonnull align 8 dereferenceable(24) %190, %"class.std::allocator.0"* nonnull align 1 dereferenceable(1) %5) #26
  br label %205

205:                                              ; preds = %186, %201, %204
  call void @llvm.lifetime.end.p0i8(i64 1, i8* nonnull %191) #26
  call void @llvm.lifetime.end.p0i8(i64 1, i8* nonnull %184) #26
  %206 = call nonnull align 8 dereferenceable(8) %"class.std::basic_ostream"* @_ZSt16__ostream_insertIcSt11char_traitsIcEERSt13basic_ostreamIT_T0_ES6_PKS3_l(%"class.std::basic_ostream"* nonnull align 8 dereferenceable(8) @_ZSt4cout, i8* nonnull getelementptr inbounds ([12 x i8], [12 x i8]* @.str.2, i64 0, i64 0), i64 11)
  %207 = call nonnull align 8 dereferenceable(8) %"class.std::basic_ostream"* @_ZSt16__ostream_insertIcSt11char_traitsIcEERSt13basic_ostreamIT_T0_ES6_PKS3_l(%"class.std::basic_ostream"* nonnull align 8 dereferenceable(8) @_ZSt4cout, i8* nonnull getelementptr inbounds ([44 x i8], [44 x i8]* @.str.3, i64 0, i64 0), i64 43)
  %208 = call nonnull align 8 dereferenceable(8) %"class.std::basic_ostream"* @_ZSt16__ostream_insertIcSt11char_traitsIcEERSt13basic_ostreamIT_T0_ES6_PKS3_l(%"class.std::basic_ostream"* nonnull align 8 dereferenceable(8) @_ZSt4cout, i8* nonnull getelementptr inbounds ([2 x i8], [2 x i8]* @.str.4, i64 0, i64 0), i64 1)
  %209 = call nonnull align 8 dereferenceable(8) %"class.std::basic_ostream"* @_ZNSolsEi(%"class.std::basic_ostream"* nonnull align 8 dereferenceable(8) @_ZSt4cout, i32 280)
  %210 = bitcast %"class.std::basic_ostream"* %209 to i8**
  %211 = load i8*, i8** %210, align 8, !tbaa !20
  %212 = getelementptr i8, i8* %211, i64 -24
  %213 = bitcast i8* %212 to i64*
  %214 = load i64, i64* %213, align 8
  %215 = bitcast %"class.std::basic_ostream"* %209 to i8*
  %216 = getelementptr inbounds i8, i8* %215, i64 %214
  %217 = getelementptr inbounds i8, i8* %216, i64 240
  %218 = bitcast i8* %217 to %"class.std::ctype"**
  %219 = load %"class.std::ctype"*, %"class.std::ctype"** %218, align 8, !tbaa !22
  %220 = icmp eq %"class.std::ctype"* %219, null
  br i1 %220, label %221, label %222

221:                                              ; preds = %205
  call void @_ZSt16__throw_bad_castv() #27
  unreachable

222:                                              ; preds = %205
  %223 = getelementptr inbounds %"class.std::ctype", %"class.std::ctype"* %219, i64 0, i32 8
  %224 = load i8, i8* %223, align 8, !tbaa !24
  %225 = icmp eq i8 %224, 0
  br i1 %225, label %229, label %226

226:                                              ; preds = %222
  %227 = getelementptr inbounds %"class.std::ctype", %"class.std::ctype"* %219, i64 0, i32 9, i64 10
  %228 = load i8, i8* %227, align 1, !tbaa !26
  br label %235

229:                                              ; preds = %222
  call void @_ZNKSt5ctypeIcE13_M_widen_initEv(%"class.std::ctype"* nonnull align 8 dereferenceable(570) %219)
  %230 = bitcast %"class.std::ctype"* %219 to i8 (%"class.std::ctype"*, i8)***
  %231 = load i8 (%"class.std::ctype"*, i8)**, i8 (%"class.std::ctype"*, i8)*** %230, align 8, !tbaa !20
  %232 = getelementptr inbounds i8 (%"class.std::ctype"*, i8)*, i8 (%"class.std::ctype"*, i8)** %231, i64 6
  %233 = load i8 (%"class.std::ctype"*, i8)*, i8 (%"class.std::ctype"*, i8)** %232, align 8
  %234 = call signext i8 %233(%"class.std::ctype"* nonnull align 8 dereferenceable(570) %219, i8 signext 10)
  br label %235

235:                                              ; preds = %226, %229
  %236 = phi i8 [ %228, %226 ], [ %234, %229 ]
  %237 = call nonnull align 8 dereferenceable(8) %"class.std::basic_ostream"* @_ZNSo3putEc(%"class.std::basic_ostream"* nonnull align 8 dereferenceable(8) %209, i8 signext %236)
  %238 = call nonnull align 8 dereferenceable(8) %"class.std::basic_ostream"* @_ZNSo5flushEv(%"class.std::basic_ostream"* nonnull align 8 dereferenceable(8) %237)
  br label %384

239:                                              ; preds = %183
  %240 = landingpad { i8*, i32 }
          cleanup
  br label %243

241:                                              ; preds = %185
  %242 = landingpad { i8*, i32 }
          cleanup
  call void @_ZNSsD2Ev(%"class.std::basic_string"* nonnull align 8 dereferenceable(8) %12) #26
  br label %243

243:                                              ; preds = %241, %239
  %244 = phi { i8*, i32 } [ %242, %241 ], [ %240, %239 ]
  call void @llvm.lifetime.end.p0i8(i64 1, i8* nonnull %184) #26
  br label %386

245:                                              ; preds = %168
  %246 = getelementptr inbounds %class.MatrixMultiplication, %class.MatrixMultiplication* %0, i64 0, i32 27
  %247 = bitcast %"class.appsdk::HIPCommandArgs"** %246 to %"class.appsdk::SDKCmdArgsParser"**
  %248 = load %"class.appsdk::SDKCmdArgsParser"*, %"class.appsdk::SDKCmdArgsParser"** %247, align 8, !tbaa !31
  %249 = getelementptr inbounds %"class.appsdk::SDKCmdArgsParser", %"class.appsdk::SDKCmdArgsParser"* %248, i64 0, i32 10
  %250 = load i8, i8* %249, align 1, !tbaa !32, !range !35
  %251 = icmp eq i8 %250, 0
  br i1 %251, label %319, label %252

252:                                              ; preds = %245
  %253 = call i8* @calloc(i64 1, i64 %178)
  %254 = getelementptr inbounds %class.MatrixMultiplication, %class.MatrixMultiplication* %0, i64 0, i32 11
  %255 = bitcast float** %254 to i8**
  store i8* %253, i8** %255, align 8, !tbaa !36
  %256 = icmp eq i8* %253, null
  br i1 %256, label %257, label %319

257:                                              ; preds = %252
  %258 = getelementptr inbounds %"class.std::allocator.0", %"class.std::allocator.0"* %15, i64 0, i32 0
  call void @llvm.lifetime.start.p0i8(i64 1, i8* nonnull %258) #26
  invoke void @_ZNSsC1EPKcRKSaIcE(%"class.std::basic_string"* nonnull align 8 dereferenceable(8) %14, i8* getelementptr inbounds ([53 x i8], [53 x i8]* @.str.7, i64 0, i64 0), %"class.std::allocator.0"* nonnull align 1 dereferenceable(1) %15)
          to label %259 unwind label %313

259:                                              ; preds = %257
  invoke fastcc void @_ZN6appsdkL9sdk_errorESs(%"class.std::basic_string"* nonnull %14)
          to label %260 unwind label %315

260:                                              ; preds = %259
  %261 = getelementptr inbounds %"class.std::basic_string", %"class.std::basic_string"* %14, i64 0, i32 0, i32 0
  %262 = load i8*, i8** %261, align 8, !tbaa !16
  %263 = getelementptr inbounds i8, i8* %262, i64 -24
  %264 = bitcast i8* %263 to %"struct.std::basic_string<char>::_Rep"*
  %265 = getelementptr inbounds %"class.std::allocator.0", %"class.std::allocator.0"* %4, i64 0, i32 0
  call void @llvm.lifetime.start.p0i8(i64 1, i8* nonnull %265) #26
  %266 = icmp eq i8* %263, bitcast ([0 x i64]* @_ZNSs4_Rep20_S_empty_rep_storageE to i8*)
  br i1 %266, label %279, label %267, !prof !19

267:                                              ; preds = %260
  %268 = getelementptr inbounds i8, i8* %262, i64 -8
  %269 = bitcast i8* %268 to i32*
  br i1 icmp ne (i8* bitcast (i32 (i32*, void (i8*)*)* @__pthread_key_create to i8*), i8* null), label %270, label %272

270:                                              ; preds = %267
  %271 = atomicrmw volatile add i32* %269, i32 -1 acq_rel, align 4
  br label %275

272:                                              ; preds = %267
  %273 = load i32, i32* %269, align 8, !tbaa !7
  %274 = add nsw i32 %273, -1
  store i32 %274, i32* %269, align 8, !tbaa !7
  br label %275

275:                                              ; preds = %272, %270
  %276 = phi i32 [ %271, %270 ], [ %273, %272 ]
  %277 = icmp slt i32 %276, 1
  br i1 %277, label %278, label %279

278:                                              ; preds = %275
  call void @_ZNSs4_Rep10_M_destroyERKSaIcE(%"struct.std::basic_string<char>::_Rep"* nonnull align 8 dereferenceable(24) %264, %"class.std::allocator.0"* nonnull align 1 dereferenceable(1) %4) #26
  br label %279

279:                                              ; preds = %260, %275, %278
  call void @llvm.lifetime.end.p0i8(i64 1, i8* nonnull %265) #26
  call void @llvm.lifetime.end.p0i8(i64 1, i8* nonnull %258) #26
  %280 = call nonnull align 8 dereferenceable(8) %"class.std::basic_ostream"* @_ZSt16__ostream_insertIcSt11char_traitsIcEERSt13basic_ostreamIT_T0_ES6_PKS3_l(%"class.std::basic_ostream"* nonnull align 8 dereferenceable(8) @_ZSt4cout, i8* nonnull getelementptr inbounds ([12 x i8], [12 x i8]* @.str.2, i64 0, i64 0), i64 11)
  %281 = call nonnull align 8 dereferenceable(8) %"class.std::basic_ostream"* @_ZSt16__ostream_insertIcSt11char_traitsIcEERSt13basic_ostreamIT_T0_ES6_PKS3_l(%"class.std::basic_ostream"* nonnull align 8 dereferenceable(8) @_ZSt4cout, i8* nonnull getelementptr inbounds ([44 x i8], [44 x i8]* @.str.3, i64 0, i64 0), i64 43)
  %282 = call nonnull align 8 dereferenceable(8) %"class.std::basic_ostream"* @_ZSt16__ostream_insertIcSt11char_traitsIcEERSt13basic_ostreamIT_T0_ES6_PKS3_l(%"class.std::basic_ostream"* nonnull align 8 dereferenceable(8) @_ZSt4cout, i8* nonnull getelementptr inbounds ([2 x i8], [2 x i8]* @.str.4, i64 0, i64 0), i64 1)
  %283 = call nonnull align 8 dereferenceable(8) %"class.std::basic_ostream"* @_ZNSolsEi(%"class.std::basic_ostream"* nonnull align 8 dereferenceable(8) @_ZSt4cout, i32 287)
  %284 = bitcast %"class.std::basic_ostream"* %283 to i8**
  %285 = load i8*, i8** %284, align 8, !tbaa !20
  %286 = getelementptr i8, i8* %285, i64 -24
  %287 = bitcast i8* %286 to i64*
  %288 = load i64, i64* %287, align 8
  %289 = bitcast %"class.std::basic_ostream"* %283 to i8*
  %290 = getelementptr inbounds i8, i8* %289, i64 %288
  %291 = getelementptr inbounds i8, i8* %290, i64 240
  %292 = bitcast i8* %291 to %"class.std::ctype"**
  %293 = load %"class.std::ctype"*, %"class.std::ctype"** %292, align 8, !tbaa !22
  %294 = icmp eq %"class.std::ctype"* %293, null
  br i1 %294, label %295, label %296

295:                                              ; preds = %279
  call void @_ZSt16__throw_bad_castv() #27
  unreachable

296:                                              ; preds = %279
  %297 = getelementptr inbounds %"class.std::ctype", %"class.std::ctype"* %293, i64 0, i32 8
  %298 = load i8, i8* %297, align 8, !tbaa !24
  %299 = icmp eq i8 %298, 0
  br i1 %299, label %303, label %300

300:                                              ; preds = %296
  %301 = getelementptr inbounds %"class.std::ctype", %"class.std::ctype"* %293, i64 0, i32 9, i64 10
  %302 = load i8, i8* %301, align 1, !tbaa !26
  br label %309

303:                                              ; preds = %296
  call void @_ZNKSt5ctypeIcE13_M_widen_initEv(%"class.std::ctype"* nonnull align 8 dereferenceable(570) %293)
  %304 = bitcast %"class.std::ctype"* %293 to i8 (%"class.std::ctype"*, i8)***
  %305 = load i8 (%"class.std::ctype"*, i8)**, i8 (%"class.std::ctype"*, i8)*** %304, align 8, !tbaa !20
  %306 = getelementptr inbounds i8 (%"class.std::ctype"*, i8)*, i8 (%"class.std::ctype"*, i8)** %305, i64 6
  %307 = load i8 (%"class.std::ctype"*, i8)*, i8 (%"class.std::ctype"*, i8)** %306, align 8
  %308 = call signext i8 %307(%"class.std::ctype"* nonnull align 8 dereferenceable(570) %293, i8 signext 10)
  br label %309

309:                                              ; preds = %300, %303
  %310 = phi i8 [ %302, %300 ], [ %308, %303 ]
  %311 = call nonnull align 8 dereferenceable(8) %"class.std::basic_ostream"* @_ZNSo3putEc(%"class.std::basic_ostream"* nonnull align 8 dereferenceable(8) %283, i8 signext %310)
  %312 = call nonnull align 8 dereferenceable(8) %"class.std::basic_ostream"* @_ZNSo5flushEv(%"class.std::basic_ostream"* nonnull align 8 dereferenceable(8) %311)
  br label %384

313:                                              ; preds = %257
  %314 = landingpad { i8*, i32 }
          cleanup
  br label %317

315:                                              ; preds = %259
  %316 = landingpad { i8*, i32 }
          cleanup
  call void @_ZNSsD2Ev(%"class.std::basic_string"* nonnull align 8 dereferenceable(8) %14) #26
  br label %317

317:                                              ; preds = %315, %313
  %318 = phi { i8*, i32 } [ %316, %315 ], [ %314, %313 ]
  call void @llvm.lifetime.end.p0i8(i64 1, i8* nonnull %258) #26
  br label %386

319:                                              ; preds = %252, %245
  %320 = getelementptr inbounds %"class.appsdk::SDKCmdArgsParser", %"class.appsdk::SDKCmdArgsParser"* %248, i64 0, i32 9
  %321 = load i8, i8* %320, align 4, !tbaa !37, !range !35
  %322 = icmp eq i8 %321, 0
  br i1 %322, label %323, label %384

323:                                              ; preds = %319
  %324 = getelementptr inbounds %"class.std::allocator.0", %"class.std::allocator.0"* %17, i64 0, i32 0
  call void @llvm.lifetime.start.p0i8(i64 1, i8* nonnull %324) #26
  invoke void @_ZNSsC1EPKcRKSaIcE(%"class.std::basic_string"* nonnull align 8 dereferenceable(8) %16, i8* getelementptr inbounds ([7 x i8], [7 x i8]* @.str.8, i64 0, i64 0), %"class.std::allocator.0"* nonnull align 1 dereferenceable(1) %17)
          to label %325 unwind label %372

325:                                              ; preds = %323
  %326 = load float*, float** %28, align 8, !tbaa !15
  %327 = load i32, i32* %20, align 8, !tbaa !9
  invoke void @_ZN6appsdk10printArrayIfEEvSsPKT_ii(%"class.std::basic_string"* nonnull %16, float* %326, i32 %327, i32 1)
          to label %328 unwind label %374

328:                                              ; preds = %325
  %329 = getelementptr inbounds %"class.std::basic_string", %"class.std::basic_string"* %16, i64 0, i32 0, i32 0
  %330 = load i8*, i8** %329, align 8, !tbaa !16
  %331 = getelementptr inbounds i8, i8* %330, i64 -24
  %332 = bitcast i8* %331 to %"struct.std::basic_string<char>::_Rep"*
  %333 = getelementptr inbounds %"class.std::allocator.0", %"class.std::allocator.0"* %3, i64 0, i32 0
  call void @llvm.lifetime.start.p0i8(i64 1, i8* nonnull %333) #26
  %334 = icmp eq i8* %331, bitcast ([0 x i64]* @_ZNSs4_Rep20_S_empty_rep_storageE to i8*)
  br i1 %334, label %347, label %335, !prof !19

335:                                              ; preds = %328
  %336 = getelementptr inbounds i8, i8* %330, i64 -8
  %337 = bitcast i8* %336 to i32*
  br i1 icmp ne (i8* bitcast (i32 (i32*, void (i8*)*)* @__pthread_key_create to i8*), i8* null), label %338, label %340

338:                                              ; preds = %335
  %339 = atomicrmw volatile add i32* %337, i32 -1 acq_rel, align 4
  br label %343

340:                                              ; preds = %335
  %341 = load i32, i32* %337, align 8, !tbaa !7
  %342 = add nsw i32 %341, -1
  store i32 %342, i32* %337, align 8, !tbaa !7
  br label %343

343:                                              ; preds = %340, %338
  %344 = phi i32 [ %339, %338 ], [ %341, %340 ]
  %345 = icmp slt i32 %344, 1
  br i1 %345, label %346, label %347

346:                                              ; preds = %343
  call void @_ZNSs4_Rep10_M_destroyERKSaIcE(%"struct.std::basic_string<char>::_Rep"* nonnull align 8 dereferenceable(24) %332, %"class.std::allocator.0"* nonnull align 1 dereferenceable(1) %3) #26
  br label %347

347:                                              ; preds = %328, %343, %346
  call void @llvm.lifetime.end.p0i8(i64 1, i8* nonnull %333) #26
  call void @llvm.lifetime.end.p0i8(i64 1, i8* nonnull %324) #26
  %348 = getelementptr inbounds %"class.std::allocator.0", %"class.std::allocator.0"* %19, i64 0, i32 0
  call void @llvm.lifetime.start.p0i8(i64 1, i8* nonnull %348) #26
  invoke void @_ZNSsC1EPKcRKSaIcE(%"class.std::basic_string"* nonnull align 8 dereferenceable(8) %18, i8* getelementptr inbounds ([7 x i8], [7 x i8]* @.str.9, i64 0, i64 0), %"class.std::allocator.0"* nonnull align 1 dereferenceable(1) %19)
          to label %349 unwind label %378

349:                                              ; preds = %347
  %350 = load float*, float** %103, align 8, !tbaa !29
  %351 = load i32, i32* %95, align 8, !tbaa !27
  invoke void @_ZN6appsdk10printArrayIfEEvSsPKT_ii(%"class.std::basic_string"* nonnull %18, float* %350, i32 %351, i32 1)
          to label %352 unwind label %380

352:                                              ; preds = %349
  %353 = getelementptr inbounds %"class.std::basic_string", %"class.std::basic_string"* %18, i64 0, i32 0, i32 0
  %354 = load i8*, i8** %353, align 8, !tbaa !16
  %355 = getelementptr inbounds i8, i8* %354, i64 -24
  %356 = bitcast i8* %355 to %"struct.std::basic_string<char>::_Rep"*
  %357 = getelementptr inbounds %"class.std::allocator.0", %"class.std::allocator.0"* %2, i64 0, i32 0
  call void @llvm.lifetime.start.p0i8(i64 1, i8* nonnull %357) #26
  %358 = icmp eq i8* %355, bitcast ([0 x i64]* @_ZNSs4_Rep20_S_empty_rep_storageE to i8*)
  br i1 %358, label %371, label %359, !prof !19

359:                                              ; preds = %352
  %360 = getelementptr inbounds i8, i8* %354, i64 -8
  %361 = bitcast i8* %360 to i32*
  br i1 icmp ne (i8* bitcast (i32 (i32*, void (i8*)*)* @__pthread_key_create to i8*), i8* null), label %362, label %364

362:                                              ; preds = %359
  %363 = atomicrmw volatile add i32* %361, i32 -1 acq_rel, align 4
  br label %367

364:                                              ; preds = %359
  %365 = load i32, i32* %361, align 8, !tbaa !7
  %366 = add nsw i32 %365, -1
  store i32 %366, i32* %361, align 8, !tbaa !7
  br label %367

367:                                              ; preds = %364, %362
  %368 = phi i32 [ %363, %362 ], [ %365, %364 ]
  %369 = icmp slt i32 %368, 1
  br i1 %369, label %370, label %371

370:                                              ; preds = %367
  call void @_ZNSs4_Rep10_M_destroyERKSaIcE(%"struct.std::basic_string<char>::_Rep"* nonnull align 8 dereferenceable(24) %356, %"class.std::allocator.0"* nonnull align 1 dereferenceable(1) %2) #26
  br label %371

371:                                              ; preds = %352, %367, %370
  call void @llvm.lifetime.end.p0i8(i64 1, i8* nonnull %357) #26
  call void @llvm.lifetime.end.p0i8(i64 1, i8* nonnull %348) #26
  br label %384

372:                                              ; preds = %323
  %373 = landingpad { i8*, i32 }
          cleanup
  br label %376

374:                                              ; preds = %325
  %375 = landingpad { i8*, i32 }
          cleanup
  call void @_ZNSsD2Ev(%"class.std::basic_string"* nonnull align 8 dereferenceable(8) %16) #26
  br label %376

376:                                              ; preds = %374, %372
  %377 = phi { i8*, i32 } [ %375, %374 ], [ %373, %372 ]
  call void @llvm.lifetime.end.p0i8(i64 1, i8* nonnull %324) #26
  br label %386

378:                                              ; preds = %347
  %379 = landingpad { i8*, i32 }
          cleanup
  br label %382

380:                                              ; preds = %349
  %381 = landingpad { i8*, i32 }
          cleanup
  call void @_ZNSsD2Ev(%"class.std::basic_string"* nonnull align 8 dereferenceable(8) %18) #26
  br label %382

382:                                              ; preds = %380, %378
  %383 = phi { i8*, i32 } [ %381, %380 ], [ %379, %378 ]
  call void @llvm.lifetime.end.p0i8(i64 1, i8* nonnull %348) #26
  br label %386

384:                                              ; preds = %158, %319, %371, %309, %235, %84
  %385 = phi i32 [ 1, %84 ], [ 1, %158 ], [ 1, %235 ], [ 1, %309 ], [ 0, %371 ], [ 0, %319 ]
  ret i32 %385

386:                                              ; preds = %166, %382, %376, %317, %243, %92
  %387 = phi { i8*, i32 } [ %93, %92 ], [ %167, %166 ], [ %244, %243 ], [ %318, %317 ], [ %383, %382 ], [ %377, %376 ]
  resume { i8*, i32 } %387
}

; Function Attrs: argmemonly mustprogress nofree nosync nounwind willreturn
declare void @llvm.lifetime.start.p0i8(i64 immarg, i8* nocapture) #6

; Function Attrs: inaccessiblememonly mustprogress nofree nounwind willreturn
declare dso_local noalias noundef i8* @malloc(i64 noundef) local_unnamed_addr #7

; Function Attrs: mustprogress uwtable
define internal fastcc void @_ZN6appsdkL9sdk_errorESs(%"class.std::basic_string"* nocapture readonly %0) unnamed_addr #8 {
  %2 = tail call nonnull align 8 dereferenceable(8) %"class.std::basic_ostream"* @_ZSt16__ostream_insertIcSt11char_traitsIcEERSt13basic_ostreamIT_T0_ES6_PKS3_l(%"class.std::basic_ostream"* nonnull align 8 dereferenceable(8) @_ZSt4cout, i8* nonnull getelementptr inbounds ([8 x i8], [8 x i8]* @.str.42, i64 0, i64 0), i64 7)
  %3 = getelementptr inbounds %"class.std::basic_string", %"class.std::basic_string"* %0, i64 0, i32 0, i32 0
  %4 = load i8*, i8** %3, align 8, !tbaa !16
  %5 = getelementptr inbounds i8, i8* %4, i64 -24
  %6 = bitcast i8* %5 to i64*
  %7 = load i64, i64* %6, align 8, !tbaa !38
  %8 = tail call nonnull align 8 dereferenceable(8) %"class.std::basic_ostream"* @_ZSt16__ostream_insertIcSt11char_traitsIcEERSt13basic_ostreamIT_T0_ES6_PKS3_l(%"class.std::basic_ostream"* nonnull align 8 dereferenceable(8) @_ZSt4cout, i8* %4, i64 %7)
  %9 = bitcast %"class.std::basic_ostream"* %8 to i8**
  %10 = load i8*, i8** %9, align 8, !tbaa !20
  %11 = getelementptr i8, i8* %10, i64 -24
  %12 = bitcast i8* %11 to i64*
  %13 = load i64, i64* %12, align 8
  %14 = bitcast %"class.std::basic_ostream"* %8 to i8*
  %15 = getelementptr inbounds i8, i8* %14, i64 %13
  %16 = getelementptr inbounds i8, i8* %15, i64 240
  %17 = bitcast i8* %16 to %"class.std::ctype"**
  %18 = load %"class.std::ctype"*, %"class.std::ctype"** %17, align 8, !tbaa !22
  %19 = icmp eq %"class.std::ctype"* %18, null
  br i1 %19, label %20, label %21

20:                                               ; preds = %1
  tail call void @_ZSt16__throw_bad_castv() #27
  unreachable

21:                                               ; preds = %1
  %22 = getelementptr inbounds %"class.std::ctype", %"class.std::ctype"* %18, i64 0, i32 8
  %23 = load i8, i8* %22, align 8, !tbaa !24
  %24 = icmp eq i8 %23, 0
  br i1 %24, label %28, label %25

25:                                               ; preds = %21
  %26 = getelementptr inbounds %"class.std::ctype", %"class.std::ctype"* %18, i64 0, i32 9, i64 10
  %27 = load i8, i8* %26, align 1, !tbaa !26
  br label %34

28:                                               ; preds = %21
  tail call void @_ZNKSt5ctypeIcE13_M_widen_initEv(%"class.std::ctype"* nonnull align 8 dereferenceable(570) %18)
  %29 = bitcast %"class.std::ctype"* %18 to i8 (%"class.std::ctype"*, i8)***
  %30 = load i8 (%"class.std::ctype"*, i8)**, i8 (%"class.std::ctype"*, i8)*** %29, align 8, !tbaa !20
  %31 = getelementptr inbounds i8 (%"class.std::ctype"*, i8)*, i8 (%"class.std::ctype"*, i8)** %30, i64 6
  %32 = load i8 (%"class.std::ctype"*, i8)*, i8 (%"class.std::ctype"*, i8)** %31, align 8
  %33 = tail call signext i8 %32(%"class.std::ctype"* nonnull align 8 dereferenceable(570) %18, i8 signext 10)
  br label %34

34:                                               ; preds = %25, %28
  %35 = phi i8 [ %27, %25 ], [ %33, %28 ]
  %36 = tail call nonnull align 8 dereferenceable(8) %"class.std::basic_ostream"* @_ZNSo3putEc(%"class.std::basic_ostream"* nonnull align 8 dereferenceable(8) %8, i8 signext %35)
  %37 = tail call nonnull align 8 dereferenceable(8) %"class.std::basic_ostream"* @_ZNSo5flushEv(%"class.std::basic_ostream"* nonnull align 8 dereferenceable(8) %36)
  ret void
}

declare dso_local void @_ZNSsC1EPKcRKSaIcE(%"class.std::basic_string"* nonnull align 8 dereferenceable(8), i8*, %"class.std::allocator.0"* nonnull align 1 dereferenceable(1)) unnamed_addr #0

declare dso_local i32 @__gxx_personality_v0(...)

; Function Attrs: nounwind uwtable
declare dso_local void @_ZNSsD2Ev(%"class.std::basic_string"* nonnull align 8 dereferenceable(8)) unnamed_addr #9 align 2

; Function Attrs: argmemonly mustprogress nofree nosync nounwind willreturn
declare void @llvm.lifetime.end.p0i8(i64 immarg, i8* nocapture) #6

; Function Attrs: inlinehint mustprogress uwtable
declare dso_local nonnull align 8 dereferenceable(8) %"class.std::basic_ostream"* @_ZStlsISt11char_traitsIcEERSt13basic_ostreamIcT_ES5_PKc(%"class.std::basic_ostream"* nonnull align 8 dereferenceable(8), i8*) local_unnamed_addr #10

declare dso_local nonnull align 8 dereferenceable(8) %"class.std::basic_ostream"* @_ZNSolsEi(%"class.std::basic_ostream"* nonnull align 8 dereferenceable(8), i32) local_unnamed_addr #0

; Function Attrs: inlinehint mustprogress uwtable
declare dso_local nonnull align 8 dereferenceable(8) %"class.std::basic_ostream"* @_ZSt4endlIcSt11char_traitsIcEERSt13basic_ostreamIT_T0_ES6_(%"class.std::basic_ostream"* nonnull align 8 dereferenceable(8)) local_unnamed_addr #10

; Function Attrs: uwtable
define linkonce_odr dso_local i32 @_ZN6appsdk10fillRandomIfEEiPT_iiS1_S1_j(float* %0, i32 %1, i32 %2, float %3, float %4, i32 %5) local_unnamed_addr #5 comdat personality i8* bitcast (i32 (...)* @__gxx_personality_v0 to i8*) {
  %7 = alloca %"class.std::allocator.0", align 1
  %8 = alloca %"class.std::basic_string", align 8
  %9 = alloca %"class.std::allocator.0", align 1
  %10 = icmp eq float* %0, null
  br i1 %10, label %11, label %35

11:                                               ; preds = %6
  %12 = getelementptr inbounds %"class.std::allocator.0", %"class.std::allocator.0"* %9, i64 0, i32 0
  call void @llvm.lifetime.start.p0i8(i64 1, i8* nonnull %12) #26
  call void @_ZNSsC1EPKcRKSaIcE(%"class.std::basic_string"* nonnull align 8 dereferenceable(8) %8, i8* getelementptr inbounds ([33 x i8], [33 x i8]* @.str.87, i64 0, i64 0), %"class.std::allocator.0"* nonnull align 1 dereferenceable(1) %9)
  invoke fastcc void @_ZN6appsdkL9sdk_errorESs(%"class.std::basic_string"* nonnull %8)
          to label %13 unwind label %33

13:                                               ; preds = %11
  %14 = getelementptr inbounds %"class.std::basic_string", %"class.std::basic_string"* %8, i64 0, i32 0, i32 0
  %15 = load i8*, i8** %14, align 8, !tbaa !16
  %16 = getelementptr inbounds i8, i8* %15, i64 -24
  %17 = bitcast i8* %16 to %"struct.std::basic_string<char>::_Rep"*
  %18 = getelementptr inbounds %"class.std::allocator.0", %"class.std::allocator.0"* %7, i64 0, i32 0
  call void @llvm.lifetime.start.p0i8(i64 1, i8* nonnull %18) #26
  %19 = icmp eq i8* %16, bitcast ([0 x i64]* @_ZNSs4_Rep20_S_empty_rep_storageE to i8*)
  br i1 %19, label %32, label %20, !prof !19

20:                                               ; preds = %13
  %21 = getelementptr inbounds i8, i8* %15, i64 -8
  %22 = bitcast i8* %21 to i32*
  br i1 icmp ne (i8* bitcast (i32 (i32*, void (i8*)*)* @__pthread_key_create to i8*), i8* null), label %23, label %25

23:                                               ; preds = %20
  %24 = atomicrmw volatile add i32* %22, i32 -1 acq_rel, align 4
  br label %28

25:                                               ; preds = %20
  %26 = load i32, i32* %22, align 8, !tbaa !7
  %27 = add nsw i32 %26, -1
  store i32 %27, i32* %22, align 8, !tbaa !7
  br label %28

28:                                               ; preds = %25, %23
  %29 = phi i32 [ %24, %23 ], [ %26, %25 ]
  %30 = icmp slt i32 %29, 1
  br i1 %30, label %31, label %32

31:                                               ; preds = %28
  call void @_ZNSs4_Rep10_M_destroyERKSaIcE(%"struct.std::basic_string<char>::_Rep"* nonnull align 8 dereferenceable(24) %17, %"class.std::allocator.0"* nonnull align 1 dereferenceable(1) %7) #26
  br label %32

32:                                               ; preds = %13, %28, %31
  call void @llvm.lifetime.end.p0i8(i64 1, i8* nonnull %18) #26
  call void @llvm.lifetime.end.p0i8(i64 1, i8* nonnull %12) #26
  br label %70

33:                                               ; preds = %11
  %34 = landingpad { i8*, i32 }
          cleanup
  call void @_ZNSsD2Ev(%"class.std::basic_string"* nonnull align 8 dereferenceable(8) %8) #26
  call void @llvm.lifetime.end.p0i8(i64 1, i8* nonnull %12) #26
  resume { i8*, i32 } %34

35:                                               ; preds = %6
  %36 = icmp eq i32 %5, 0
  br i1 %36, label %37, label %40

37:                                               ; preds = %35
  %38 = tail call i64 @time(i64* null) #26
  %39 = trunc i64 %38 to i32
  br label %40

40:                                               ; preds = %37, %35
  %41 = phi i32 [ %5, %35 ], [ %39, %37 ]
  tail call void @srand(i32 %41) #26
  %42 = fsub contract float %4, %3
  %43 = fpext float %42 to double
  %44 = fadd contract double %43, 1.000000e+00
  %45 = icmp sgt i32 %2, 0
  %46 = icmp sgt i32 %1, 0
  %47 = select i1 %45, i1 %46, i1 false
  br i1 %47, label %48, label %70

48:                                               ; preds = %40
  %49 = zext i32 %1 to i64
  %50 = zext i32 %2 to i64
  %51 = zext i32 %1 to i64
  br label %52

52:                                               ; preds = %48, %67
  %53 = phi i64 [ 0, %48 ], [ %68, %67 ]
  %54 = mul nsw i64 %53, %49
  br label %55

55:                                               ; preds = %52, %55
  %56 = phi i64 [ 0, %52 ], [ %65, %55 ]
  %57 = add nuw nsw i64 %56, %54
  %58 = tail call i32 @rand() #26
  %59 = sitofp i32 %58 to double
  %60 = fmul contract double %44, %59
  %61 = fmul contract double %60, 0x3E00000000000000
  %62 = fptrunc double %61 to float
  %63 = fadd contract float %62, %3
  %64 = getelementptr inbounds float, float* %0, i64 %57
  store float %63, float* %64, align 4, !tbaa !40
  %65 = add nuw nsw i64 %56, 1
  %66 = icmp eq i64 %65, %51
  br i1 %66, label %67, label %55, !llvm.loop !42

67:                                               ; preds = %55
  %68 = add nuw nsw i64 %53, 1
  %69 = icmp eq i64 %68, %50
  br i1 %69, label %70, label %52, !llvm.loop !44

70:                                               ; preds = %67, %40, %32
  %71 = phi i32 [ 1, %32 ], [ 0, %40 ], [ 0, %67 ]
  ret i32 %71
}

; Function Attrs: argmemonly mustprogress nofree nounwind willreturn writeonly
declare void @llvm.memset.p0i8.i64(i8* nocapture writeonly, i8, i64, i1 immarg) #11

; Function Attrs: mustprogress uwtable
define linkonce_odr dso_local void @_ZN6appsdk10printArrayIfEEvSsPKT_ii(%"class.std::basic_string"* %0, float* %1, i32 %2, i32 %3) local_unnamed_addr #8 comdat {
  %5 = tail call nonnull align 8 dereferenceable(8) %"class.std::basic_ostream"* @_ZSt16__ostream_insertIcSt11char_traitsIcEERSt13basic_ostreamIT_T0_ES6_PKS3_l(%"class.std::basic_ostream"* nonnull align 8 dereferenceable(8) @_ZSt4cout, i8* nonnull getelementptr inbounds ([2 x i8], [2 x i8]* @.str.84, i64 0, i64 0), i64 1)
  %6 = getelementptr inbounds %"class.std::basic_string", %"class.std::basic_string"* %0, i64 0, i32 0, i32 0
  %7 = load i8*, i8** %6, align 8, !tbaa !16
  %8 = getelementptr inbounds i8, i8* %7, i64 -24
  %9 = bitcast i8* %8 to i64*
  %10 = load i64, i64* %9, align 8, !tbaa !38
  %11 = tail call nonnull align 8 dereferenceable(8) %"class.std::basic_ostream"* @_ZSt16__ostream_insertIcSt11char_traitsIcEERSt13basic_ostreamIT_T0_ES6_PKS3_l(%"class.std::basic_ostream"* nonnull align 8 dereferenceable(8) @_ZSt4cout, i8* %7, i64 %10)
  %12 = tail call nonnull align 8 dereferenceable(8) %"class.std::basic_ostream"* @_ZSt16__ostream_insertIcSt11char_traitsIcEERSt13basic_ostreamIT_T0_ES6_PKS3_l(%"class.std::basic_ostream"* nonnull align 8 dereferenceable(8) %11, i8* nonnull getelementptr inbounds ([2 x i8], [2 x i8]* @.str.84, i64 0, i64 0), i64 1)
  %13 = icmp sgt i32 %3, 0
  br i1 %13, label %14, label %42

14:                                               ; preds = %4
  %15 = icmp sgt i32 %2, 0
  br i1 %15, label %16, label %37

16:                                               ; preds = %14
  %17 = zext i32 %2 to i64
  %18 = zext i32 %3 to i64
  %19 = zext i32 %2 to i64
  br label %20

20:                                               ; preds = %16, %33
  %21 = phi i64 [ 0, %16 ], [ %35, %33 ]
  %22 = mul nsw i64 %21, %17
  br label %23

23:                                               ; preds = %20, %23
  %24 = phi i64 [ 0, %20 ], [ %31, %23 ]
  %25 = add nuw nsw i64 %24, %22
  %26 = getelementptr inbounds float, float* %1, i64 %25
  %27 = load float, float* %26, align 4, !tbaa !40
  %28 = fpext float %27 to double
  %29 = tail call nonnull align 8 dereferenceable(8) %"class.std::basic_ostream"* @_ZNSo9_M_insertIdEERSoT_(%"class.std::basic_ostream"* nonnull align 8 dereferenceable(8) @_ZSt4cout, double %28)
  %30 = tail call nonnull align 8 dereferenceable(8) %"class.std::basic_ostream"* @_ZSt16__ostream_insertIcSt11char_traitsIcEERSt13basic_ostreamIT_T0_ES6_PKS3_l(%"class.std::basic_ostream"* nonnull align 8 dereferenceable(8) %29, i8* nonnull getelementptr inbounds ([2 x i8], [2 x i8]* @.str.67, i64 0, i64 0), i64 1)
  %31 = add nuw nsw i64 %24, 1
  %32 = icmp eq i64 %31, %19
  br i1 %32, label %33, label %23, !llvm.loop !45

33:                                               ; preds = %23
  %34 = tail call nonnull align 8 dereferenceable(8) %"class.std::basic_ostream"* @_ZSt16__ostream_insertIcSt11char_traitsIcEERSt13basic_ostreamIT_T0_ES6_PKS3_l(%"class.std::basic_ostream"* nonnull align 8 dereferenceable(8) @_ZSt4cout, i8* nonnull getelementptr inbounds ([2 x i8], [2 x i8]* @.str.84, i64 0, i64 0), i64 1)
  %35 = add nuw nsw i64 %21, 1
  %36 = icmp eq i64 %35, %18
  br i1 %36, label %42, label %20, !llvm.loop !46

37:                                               ; preds = %14, %37
  %38 = phi i32 [ %40, %37 ], [ 0, %14 ]
  %39 = tail call nonnull align 8 dereferenceable(8) %"class.std::basic_ostream"* @_ZSt16__ostream_insertIcSt11char_traitsIcEERSt13basic_ostreamIT_T0_ES6_PKS3_l(%"class.std::basic_ostream"* nonnull align 8 dereferenceable(8) @_ZSt4cout, i8* nonnull getelementptr inbounds ([2 x i8], [2 x i8]* @.str.84, i64 0, i64 0), i64 1)
  %40 = add nuw nsw i32 %38, 1
  %41 = icmp eq i32 %40, %3
  br i1 %41, label %42, label %37, !llvm.loop !46

42:                                               ; preds = %37, %33, %4
  %43 = tail call nonnull align 8 dereferenceable(8) %"class.std::basic_ostream"* @_ZSt16__ostream_insertIcSt11char_traitsIcEERSt13basic_ostreamIT_T0_ES6_PKS3_l(%"class.std::basic_ostream"* nonnull align 8 dereferenceable(8) @_ZSt4cout, i8* nonnull getelementptr inbounds ([2 x i8], [2 x i8]* @.str.84, i64 0, i64 0), i64 1)
  ret void
}

; Function Attrs: mustprogress nofree norecurse nosync nounwind readnone uwtable willreturn
define dso_local i32 @_ZN20MatrixMultiplication8setupHIPEv(%class.MatrixMultiplication* nocapture nonnull readnone align 8 %0) local_unnamed_addr #12 align 2 {
  ret i32 0
}

; Function Attrs: uwtable
define dso_local i32 @_ZN20MatrixMultiplication10runKernelsEv(%class.MatrixMultiplication* nonnull align 8 dereferenceable(200) %0) local_unnamed_addr #5 align 2 {
  %2 = alloca %struct.HIP_vector_type*, align 8
  %3 = alloca %struct.HIP_vector_type*, align 8
  %4 = alloca %struct.HIP_vector_type*, align 8
  %5 = alloca i32, align 4
  %6 = alloca i32, align 4
  %7 = alloca %struct.dim3, align 8
  %8 = alloca %struct.dim3, align 8
  %9 = alloca i64, align 8
  %10 = alloca i8*, align 8
  %11 = alloca [5 x i8*], align 16
  %12 = alloca float*, align 8
  %13 = alloca float*, align 8
  %14 = alloca float*, align 8
  %15 = bitcast float** %12 to i8*
  call void @llvm.lifetime.start.p0i8(i64 8, i8* nonnull %15) #26
  %16 = bitcast float** %13 to i8*
  call void @llvm.lifetime.start.p0i8(i64 8, i8* nonnull %16) #26
  %17 = bitcast float** %14 to i8*
  call void @llvm.lifetime.start.p0i8(i64 8, i8* nonnull %17) #26
  %18 = getelementptr inbounds %class.MatrixMultiplication, %class.MatrixMultiplication* %0, i64 0, i32 13
  %19 = bitcast float** %18 to i8**
  %20 = getelementptr inbounds %class.MatrixMultiplication, %class.MatrixMultiplication* %0, i64 0, i32 5
  %21 = load i32, i32* %20, align 8, !tbaa !9
  %22 = getelementptr inbounds %class.MatrixMultiplication, %class.MatrixMultiplication* %0, i64 0, i32 6
  %23 = load i32, i32* %22, align 4, !tbaa !14
  %24 = mul nsw i32 %23, %21
  %25 = sext i32 %24 to i64
  %26 = shl nsw i64 %25, 2
  %27 = tail call i32 @hipHostMalloc(i8** nonnull %19, i64 %26, i32 0)
  %28 = getelementptr inbounds %class.MatrixMultiplication, %class.MatrixMultiplication* %0, i64 0, i32 14
  %29 = bitcast float** %28 to i8**
  %30 = getelementptr inbounds %class.MatrixMultiplication, %class.MatrixMultiplication* %0, i64 0, i32 8
  %31 = load i32, i32* %30, align 8, !tbaa !27
  %32 = getelementptr inbounds %class.MatrixMultiplication, %class.MatrixMultiplication* %0, i64 0, i32 9
  %33 = load i32, i32* %32, align 4, !tbaa !28
  %34 = mul nsw i32 %33, %31
  %35 = sext i32 %34 to i64
  %36 = shl nsw i64 %35, 2
  %37 = tail call i32 @hipHostMalloc(i8** nonnull %29, i64 %36, i32 0)
  %38 = getelementptr inbounds %class.MatrixMultiplication, %class.MatrixMultiplication* %0, i64 0, i32 15
  %39 = bitcast float** %38 to i8**
  %40 = load i32, i32* %30, align 8, !tbaa !27
  %41 = load i32, i32* %22, align 4, !tbaa !14
  %42 = mul nsw i32 %41, %40
  %43 = sext i32 %42 to i64
  %44 = shl nsw i64 %43, 2
  %45 = tail call i32 @hipHostMalloc(i8** nonnull %39, i64 %44, i32 0)
  %46 = bitcast float** %12 to i8**
  %47 = load i8*, i8** %19, align 8, !tbaa !47
  %48 = call i32 @hipHostGetDevicePointer(i8** nonnull %46, i8* %47, i32 0)
  %49 = bitcast float** %13 to i8**
  %50 = load i8*, i8** %29, align 8, !tbaa !48
  %51 = call i32 @hipHostGetDevicePointer(i8** nonnull %49, i8* %50, i32 0)
  %52 = bitcast float** %14 to i8**
  %53 = load i8*, i8** %39, align 8, !tbaa !49
  %54 = call i32 @hipHostGetDevicePointer(i8** nonnull %52, i8* %53, i32 0)
  %55 = load i8*, i8** %46, align 8, !tbaa !3
  %56 = getelementptr inbounds %class.MatrixMultiplication, %class.MatrixMultiplication* %0, i64 0, i32 4
  %57 = bitcast float** %56 to i8**
  %58 = load i8*, i8** %57, align 8, !tbaa !15
  %59 = load i32, i32* %20, align 8, !tbaa !9
  %60 = load i32, i32* %22, align 4, !tbaa !14
  %61 = mul nsw i32 %60, %59
  %62 = sext i32 %61 to i64
  %63 = shl nsw i64 %62, 2
  %64 = call i32 @hipMemcpy(i8* %55, i8* %58, i64 %63, i32 1)
  %65 = load i8*, i8** %49, align 8, !tbaa !3
  %66 = getelementptr inbounds %class.MatrixMultiplication, %class.MatrixMultiplication* %0, i64 0, i32 7
  %67 = bitcast float** %66 to i8**
  %68 = load i8*, i8** %67, align 8, !tbaa !29
  %69 = load i32, i32* %30, align 8, !tbaa !27
  %70 = load i32, i32* %32, align 4, !tbaa !28
  %71 = mul nsw i32 %70, %69
  %72 = sext i32 %71 to i64
  %73 = shl nsw i64 %72, 2
  %74 = call i32 @hipMemcpy(i8* %65, i8* %68, i64 %73, i32 1)
  %75 = load i32, i32* %30, align 8, !tbaa !27
  %76 = sdiv i32 %75, 4
  %77 = getelementptr inbounds %class.MatrixMultiplication, %class.MatrixMultiplication* %0, i64 0, i32 12
  %78 = load i32, i32* %77, align 8, !tbaa !50
  %79 = udiv i32 %76, %78
  %80 = load i32, i32* %22, align 4, !tbaa !14
  %81 = sdiv i32 %80, 4
  %82 = udiv i32 %81, %78
  %83 = zext i32 %82 to i64
  %84 = shl nuw i64 %83, 32
  %85 = zext i32 %79 to i64
  %86 = or i64 %84, %85
  %87 = zext i32 %78 to i64
  %88 = shl nuw i64 %87, 32
  %89 = or i64 %88, %87
  %90 = call i32 @__hipPushCallConfiguration(i64 %86, i32 1, i64 %89, i32 1, i64 0, %struct.ihipStream_t* null)
  %91 = icmp eq i32 %90, 0
  br i1 %91, label %92, label %134

92:                                               ; preds = %1
  %93 = bitcast float** %18 to %struct.HIP_vector_type**
  %94 = load %struct.HIP_vector_type*, %struct.HIP_vector_type** %93, align 8, !tbaa !47
  %95 = bitcast float** %28 to %struct.HIP_vector_type**
  %96 = load %struct.HIP_vector_type*, %struct.HIP_vector_type** %95, align 8, !tbaa !48
  %97 = bitcast float** %38 to %struct.HIP_vector_type**
  %98 = load %struct.HIP_vector_type*, %struct.HIP_vector_type** %97, align 8, !tbaa !49
  %99 = load i32, i32* %20, align 8, !tbaa !9
  %100 = load i32, i32* %30, align 8, !tbaa !27
  %101 = bitcast %struct.HIP_vector_type** %2 to i8*
  call void @llvm.lifetime.start.p0i8(i64 8, i8* nonnull %101)
  %102 = bitcast %struct.HIP_vector_type** %3 to i8*
  call void @llvm.lifetime.start.p0i8(i64 8, i8* nonnull %102)
  %103 = bitcast %struct.HIP_vector_type** %4 to i8*
  call void @llvm.lifetime.start.p0i8(i64 8, i8* nonnull %103)
  %104 = bitcast i32* %5 to i8*
  call void @llvm.lifetime.start.p0i8(i64 4, i8* nonnull %104)
  %105 = bitcast i32* %6 to i8*
  call void @llvm.lifetime.start.p0i8(i64 4, i8* nonnull %105)
  %106 = bitcast %struct.dim3* %7 to i8*
  call void @llvm.lifetime.start.p0i8(i64 12, i8* nonnull %106)
  %107 = bitcast %struct.dim3* %8 to i8*
  call void @llvm.lifetime.start.p0i8(i64 12, i8* nonnull %107)
  %108 = bitcast i64* %9 to i8*
  call void @llvm.lifetime.start.p0i8(i64 8, i8* nonnull %108)
  %109 = bitcast i8** %10 to i8*
  call void @llvm.lifetime.start.p0i8(i64 8, i8* nonnull %109)
  %110 = bitcast [5 x i8*]* %11 to i8*
  call void @llvm.lifetime.start.p0i8(i64 40, i8* nonnull %110)
  store %struct.HIP_vector_type* %94, %struct.HIP_vector_type** %2, align 8, !tbaa !3
  store %struct.HIP_vector_type* %96, %struct.HIP_vector_type** %3, align 8, !tbaa !3
  store %struct.HIP_vector_type* %98, %struct.HIP_vector_type** %4, align 8, !tbaa !3
  store i32 %99, i32* %5, align 4, !tbaa !7
  store i32 %100, i32* %6, align 4, !tbaa !7
  %111 = getelementptr inbounds [5 x i8*], [5 x i8*]* %11, i64 0, i64 0
  %112 = bitcast [5 x i8*]* %11 to %struct.HIP_vector_type***
  store %struct.HIP_vector_type** %2, %struct.HIP_vector_type*** %112, align 16
  %113 = getelementptr inbounds [5 x i8*], [5 x i8*]* %11, i64 0, i64 1
  %114 = bitcast i8** %113 to %struct.HIP_vector_type***
  store %struct.HIP_vector_type** %3, %struct.HIP_vector_type*** %114, align 8
  %115 = getelementptr inbounds [5 x i8*], [5 x i8*]* %11, i64 0, i64 2
  %116 = bitcast i8** %115 to %struct.HIP_vector_type***
  store %struct.HIP_vector_type** %4, %struct.HIP_vector_type*** %116, align 16
  %117 = getelementptr inbounds [5 x i8*], [5 x i8*]* %11, i64 0, i64 3
  %118 = bitcast i8** %117 to i32**
  store i32* %5, i32** %118, align 8
  %119 = getelementptr inbounds [5 x i8*], [5 x i8*]* %11, i64 0, i64 4
  %120 = bitcast i8** %119 to i32**
  store i32* %6, i32** %120, align 16
  %121 = call i32 @__hipPopCallConfiguration(%struct.dim3* nonnull %7, %struct.dim3* nonnull %8, i64* nonnull %9, i8** nonnull %10)
  %122 = load i64, i64* %9, align 8
  %123 = bitcast i8** %10 to %struct.ihipStream_t**
  %124 = load %struct.ihipStream_t*, %struct.ihipStream_t** %123, align 8
  %125 = bitcast %struct.dim3* %7 to i64*
  %126 = load i64, i64* %125, align 8
  %127 = getelementptr inbounds %struct.dim3, %struct.dim3* %7, i64 0, i32 2
  %128 = load i32, i32* %127, align 8
  %129 = bitcast %struct.dim3* %8 to i64*
  %130 = load i64, i64* %129, align 8
  %131 = getelementptr inbounds %struct.dim3, %struct.dim3* %8, i64 0, i32 2
  %132 = load i32, i32* %131, align 8
  %133 = call i32 @hipLaunchKernel(i8* bitcast (void (%struct.HIP_vector_type*, %struct.HIP_vector_type*, %struct.HIP_vector_type*, i32, i32)** @_Z9mmmKernelP15HIP_vector_typeIfLj4EES1_S1_jj to i8*), i64 %126, i32 %128, i64 %130, i32 %132, i8** nonnull %111, i64 %122, %struct.ihipStream_t* %124)
  call void @llvm.lifetime.end.p0i8(i64 8, i8* nonnull %101)
  call void @llvm.lifetime.end.p0i8(i64 8, i8* nonnull %102)
  call void @llvm.lifetime.end.p0i8(i64 8, i8* nonnull %103)
  call void @llvm.lifetime.end.p0i8(i64 4, i8* nonnull %104)
  call void @llvm.lifetime.end.p0i8(i64 4, i8* nonnull %105)
  call void @llvm.lifetime.end.p0i8(i64 12, i8* nonnull %106)
  call void @llvm.lifetime.end.p0i8(i64 12, i8* nonnull %107)
  call void @llvm.lifetime.end.p0i8(i64 8, i8* nonnull %108)
  call void @llvm.lifetime.end.p0i8(i64 8, i8* nonnull %109)
  call void @llvm.lifetime.end.p0i8(i64 40, i8* nonnull %110)
  br label %134

134:                                              ; preds = %92, %1
  %135 = getelementptr inbounds %class.MatrixMultiplication, %class.MatrixMultiplication* %0, i64 0, i32 10
  %136 = bitcast float** %135 to i8**
  %137 = load i8*, i8** %136, align 8, !tbaa !30
  %138 = load i8*, i8** %52, align 8, !tbaa !3
  %139 = load i32, i32* %30, align 8, !tbaa !27
  %140 = load i32, i32* %22, align 4, !tbaa !14
  %141 = mul nsw i32 %140, %139
  %142 = sext i32 %141 to i64
  %143 = shl nsw i64 %142, 2
  %144 = call i32 @hipMemcpy(i8* %137, i8* %138, i64 %143, i32 2)
  call void @llvm.lifetime.end.p0i8(i64 8, i8* nonnull %17) #26
  call void @llvm.lifetime.end.p0i8(i64 8, i8* nonnull %16) #26
  call void @llvm.lifetime.end.p0i8(i64 8, i8* nonnull %15) #26
  ret i32 0
}

declare dso_local i32 @hipHostMalloc(i8**, i64, i32) local_unnamed_addr #0

declare dso_local i32 @hipHostGetDevicePointer(i8**, i8*, i32) local_unnamed_addr #0

declare dso_local i32 @hipMemcpy(i8*, i8*, i64, i32) local_unnamed_addr #0

declare dso_local i32 @__hipPushCallConfiguration(i64, i32, i64, i32, i64, %struct.ihipStream_t*) local_unnamed_addr #0

; Function Attrs: mustprogress nofree norecurse nosync nounwind uwtable
define dso_local void @_ZN20MatrixMultiplication32matrixMultiplicationCPUReferenceEPfS0_S0_jjj(%class.MatrixMultiplication* nocapture nonnull readnone align 8 %0, float* nocapture %1, float* nocapture readonly %2, float* nocapture readonly %3, i32 %4, i32 %5, i32 %6) local_unnamed_addr #13 align 2 {
  %8 = icmp eq i32 %5, 0
  %9 = icmp eq i32 %4, 0
  %10 = icmp eq i32 %6, 0
  %11 = select i1 %9, i1 true, i1 %10
  %12 = select i1 %11, i1 true, i1 %8
  br i1 %12, label %85, label %13

13:                                               ; preds = %7
  %14 = zext i32 %6 to i64
  %15 = zext i32 %5 to i64
  %16 = and i64 %15, 1
  %17 = icmp eq i32 %5, 1
  %18 = and i64 %15, 4294967294
  %19 = icmp eq i64 %16, 0
  br label %20

20:                                               ; preds = %13, %82
  %21 = phi i32 [ %83, %82 ], [ 0, %13 ]
  %22 = mul i32 %21, %5
  %23 = mul i32 %21, %6
  br label %24

24:                                               ; preds = %79, %20
  %25 = phi i64 [ %80, %79 ], [ 0, %20 ]
  %26 = trunc i64 %25 to i32
  %27 = add i32 %23, %26
  %28 = zext i32 %27 to i64
  %29 = getelementptr inbounds float, float* %1, i64 %28
  %30 = load float, float* %29, align 4, !tbaa !40
  br i1 %17, label %63, label %31

31:                                               ; preds = %24, %31
  %32 = phi float [ %59, %31 ], [ %30, %24 ]
  %33 = phi i64 [ %60, %31 ], [ 0, %24 ]
  %34 = phi i64 [ %61, %31 ], [ 0, %24 ]
  %35 = trunc i64 %33 to i32
  %36 = add i32 %22, %35
  %37 = zext i32 %36 to i64
  %38 = getelementptr inbounds float, float* %2, i64 %37
  %39 = load float, float* %38, align 4, !tbaa !40
  %40 = mul i32 %35, %6
  %41 = add i32 %40, %26
  %42 = zext i32 %41 to i64
  %43 = getelementptr inbounds float, float* %3, i64 %42
  %44 = load float, float* %43, align 4, !tbaa !40
  %45 = fmul contract float %39, %44
  %46 = fadd contract float %32, %45
  store float %46, float* %29, align 4, !tbaa !40
  %47 = trunc i64 %33 to i32
  %48 = or i32 %47, 1
  %49 = add i32 %22, %48
  %50 = zext i32 %49 to i64
  %51 = getelementptr inbounds float, float* %2, i64 %50
  %52 = load float, float* %51, align 4, !tbaa !40
  %53 = mul i32 %48, %6
  %54 = add i32 %53, %26
  %55 = zext i32 %54 to i64
  %56 = getelementptr inbounds float, float* %3, i64 %55
  %57 = load float, float* %56, align 4, !tbaa !40
  %58 = fmul contract float %52, %57
  %59 = fadd contract float %46, %58
  store float %59, float* %29, align 4, !tbaa !40
  %60 = add nuw nsw i64 %33, 2
  %61 = add i64 %34, 2
  %62 = icmp eq i64 %61, %18
  br i1 %62, label %63, label %31, !llvm.loop !51

63:                                               ; preds = %31, %24
  %64 = phi float [ %30, %24 ], [ %59, %31 ]
  %65 = phi i64 [ 0, %24 ], [ %60, %31 ]
  br i1 %19, label %79, label %66

66:                                               ; preds = %63
  %67 = trunc i64 %65 to i32
  %68 = add i32 %22, %67
  %69 = zext i32 %68 to i64
  %70 = getelementptr inbounds float, float* %2, i64 %69
  %71 = load float, float* %70, align 4, !tbaa !40
  %72 = mul i32 %67, %6
  %73 = add i32 %72, %26
  %74 = zext i32 %73 to i64
  %75 = getelementptr inbounds float, float* %3, i64 %74
  %76 = load float, float* %75, align 4, !tbaa !40
  %77 = fmul contract float %71, %76
  %78 = fadd contract float %64, %77
  store float %78, float* %29, align 4, !tbaa !40
  br label %79

79:                                               ; preds = %63, %66
  %80 = add nuw nsw i64 %25, 1
  %81 = icmp eq i64 %80, %14
  br i1 %81, label %82, label %24, !llvm.loop !52

82:                                               ; preds = %79
  %83 = add nuw i32 %21, 1
  %84 = icmp eq i32 %83, %4
  br i1 %84, label %85, label %20, !llvm.loop !53

85:                                               ; preds = %82, %7
  ret void
}

; Function Attrs: uwtable
define dso_local i32 @_ZN20MatrixMultiplication10initializeEv(%class.MatrixMultiplication* nonnull align 8 dereferenceable(200) %0) local_unnamed_addr #5 align 2 personality i8* bitcast (i32 (...)* @__gxx_personality_v0 to i8*) {
  %2 = getelementptr inbounds %class.MatrixMultiplication, %class.MatrixMultiplication* %0, i64 0, i32 27
  %3 = load %"class.appsdk::HIPCommandArgs"*, %"class.appsdk::HIPCommandArgs"** %2, align 8, !tbaa !31
  %4 = tail call i32 @_ZN6appsdk14HIPCommandArgs10initializeEv(%"class.appsdk::HIPCommandArgs"* nonnull align 8 dereferenceable(93) %3)
  %5 = icmp eq i32 %4, 0
  br i1 %5, label %6, label %115

6:                                                ; preds = %1
  %7 = tail call noalias nonnull dereferenceable(48) i8* @_Znwm(i64 48) #28
  %8 = bitcast i8* %7 to %"struct.appsdk::Option"*
  %9 = getelementptr inbounds %"struct.appsdk::Option", %"struct.appsdk::Option"* %8, i64 0, i32 0, i32 0, i32 0
  store i8* bitcast (i64* getelementptr inbounds ([0 x i64], [0 x i64]* @_ZNSs4_Rep20_S_empty_rep_storageE, i64 0, i64 3) to i8*), i8** %9, align 8, !tbaa !54
  %10 = getelementptr inbounds %"struct.appsdk::Option", %"struct.appsdk::Option"* %8, i64 0, i32 1, i32 0, i32 0
  store i8* bitcast (i64* getelementptr inbounds ([0 x i64], [0 x i64]* @_ZNSs4_Rep20_S_empty_rep_storageE, i64 0, i64 3) to i8*), i8** %10, align 8, !tbaa !54
  %11 = getelementptr inbounds %"struct.appsdk::Option", %"struct.appsdk::Option"* %8, i64 0, i32 2, i32 0, i32 0
  store i8* bitcast (i64* getelementptr inbounds ([0 x i64], [0 x i64]* @_ZNSs4_Rep20_S_empty_rep_storageE, i64 0, i64 3) to i8*), i8** %11, align 8, !tbaa !54
  %12 = getelementptr inbounds %"struct.appsdk::Option", %"struct.appsdk::Option"* %8, i64 0, i32 3, i32 0, i32 0
  store i8* bitcast (i64* getelementptr inbounds ([0 x i64], [0 x i64]* @_ZNSs4_Rep20_S_empty_rep_storageE, i64 0, i64 3) to i8*), i8** %12, align 8, !tbaa !54
  %13 = getelementptr inbounds %"struct.appsdk::Option", %"struct.appsdk::Option"* %8, i64 0, i32 0
  %14 = tail call nonnull align 8 dereferenceable(8) %"class.std::basic_string"* @_ZNSs6assignEPKcm(%"class.std::basic_string"* nonnull align 8 dereferenceable(8) %13, i8* getelementptr inbounds ([2 x i8], [2 x i8]* @.str.11, i64 0, i64 0), i64 1)
  %15 = getelementptr inbounds %"struct.appsdk::Option", %"struct.appsdk::Option"* %8, i64 0, i32 1
  %16 = tail call nonnull align 8 dereferenceable(8) %"class.std::basic_string"* @_ZNSs6assignEPKcm(%"class.std::basic_string"* nonnull align 8 dereferenceable(8) %15, i8* getelementptr inbounds ([8 x i8], [8 x i8]* @.str.12, i64 0, i64 0), i64 7)
  %17 = getelementptr inbounds %"struct.appsdk::Option", %"struct.appsdk::Option"* %8, i64 0, i32 2
  %18 = tail call nonnull align 8 dereferenceable(8) %"class.std::basic_string"* @_ZNSs6assignEPKcm(%"class.std::basic_string"* nonnull align 8 dereferenceable(8) %17, i8* getelementptr inbounds ([19 x i8], [19 x i8]* @.str.13, i64 0, i64 0), i64 18)
  %19 = getelementptr inbounds %"struct.appsdk::Option", %"struct.appsdk::Option"* %8, i64 0, i32 4
  store i32 0, i32* %19, align 8, !tbaa !55
  %20 = getelementptr inbounds %class.MatrixMultiplication, %class.MatrixMultiplication* %0, i64 0, i32 17
  %21 = getelementptr inbounds %"struct.appsdk::Option", %"struct.appsdk::Option"* %8, i64 0, i32 5
  %22 = bitcast i8** %21 to i32**
  store i32* %20, i32** %22, align 8, !tbaa !58
  %23 = bitcast %"class.appsdk::HIPCommandArgs"** %2 to %"class.appsdk::SDKCmdArgsParser"**
  %24 = load %"class.appsdk::SDKCmdArgsParser"*, %"class.appsdk::SDKCmdArgsParser"** %23, align 8, !tbaa !31
  %25 = tail call i32 @_ZN6appsdk16SDKCmdArgsParser9AddOptionEPNS_6OptionE(%"class.appsdk::SDKCmdArgsParser"* nonnull align 8 dereferenceable(88) %24, %"struct.appsdk::Option"* nonnull %8)
  tail call void @_ZN6appsdk6OptionD2Ev(%"struct.appsdk::Option"* nonnull align 8 dereferenceable(48) %8) #26
  tail call void @_ZdlPv(i8* nonnull %7) #29
  %26 = tail call noalias nonnull dereferenceable(48) i8* @_Znwm(i64 48) #28
  %27 = bitcast i8* %26 to %"struct.appsdk::Option"*
  %28 = getelementptr inbounds %"struct.appsdk::Option", %"struct.appsdk::Option"* %27, i64 0, i32 0, i32 0, i32 0
  store i8* bitcast (i64* getelementptr inbounds ([0 x i64], [0 x i64]* @_ZNSs4_Rep20_S_empty_rep_storageE, i64 0, i64 3) to i8*), i8** %28, align 8, !tbaa !54
  %29 = getelementptr inbounds %"struct.appsdk::Option", %"struct.appsdk::Option"* %27, i64 0, i32 1, i32 0, i32 0
  store i8* bitcast (i64* getelementptr inbounds ([0 x i64], [0 x i64]* @_ZNSs4_Rep20_S_empty_rep_storageE, i64 0, i64 3) to i8*), i8** %29, align 8, !tbaa !54
  %30 = getelementptr inbounds %"struct.appsdk::Option", %"struct.appsdk::Option"* %27, i64 0, i32 2, i32 0, i32 0
  store i8* bitcast (i64* getelementptr inbounds ([0 x i64], [0 x i64]* @_ZNSs4_Rep20_S_empty_rep_storageE, i64 0, i64 3) to i8*), i8** %30, align 8, !tbaa !54
  %31 = getelementptr inbounds %"struct.appsdk::Option", %"struct.appsdk::Option"* %27, i64 0, i32 3, i32 0, i32 0
  store i8* bitcast (i64* getelementptr inbounds ([0 x i64], [0 x i64]* @_ZNSs4_Rep20_S_empty_rep_storageE, i64 0, i64 3) to i8*), i8** %31, align 8, !tbaa !54
  %32 = getelementptr inbounds %"struct.appsdk::Option", %"struct.appsdk::Option"* %27, i64 0, i32 0
  %33 = tail call nonnull align 8 dereferenceable(8) %"class.std::basic_string"* @_ZNSs6assignEPKcm(%"class.std::basic_string"* nonnull align 8 dereferenceable(8) %32, i8* getelementptr inbounds ([2 x i8], [2 x i8]* @.str.14, i64 0, i64 0), i64 1)
  %34 = getelementptr inbounds %"struct.appsdk::Option", %"struct.appsdk::Option"* %27, i64 0, i32 1
  %35 = tail call nonnull align 8 dereferenceable(8) %"class.std::basic_string"* @_ZNSs6assignEPKcm(%"class.std::basic_string"* nonnull align 8 dereferenceable(8) %34, i8* getelementptr inbounds ([7 x i8], [7 x i8]* @.str.15, i64 0, i64 0), i64 6)
  %36 = getelementptr inbounds %"struct.appsdk::Option", %"struct.appsdk::Option"* %27, i64 0, i32 2
  %37 = tail call nonnull align 8 dereferenceable(8) %"class.std::basic_string"* @_ZNSs6assignEPKcm(%"class.std::basic_string"* nonnull align 8 dereferenceable(8) %36, i8* getelementptr inbounds ([41 x i8], [41 x i8]* @.str.16, i64 0, i64 0), i64 40)
  %38 = getelementptr inbounds %"struct.appsdk::Option", %"struct.appsdk::Option"* %27, i64 0, i32 4
  store i32 0, i32* %38, align 8, !tbaa !55
  %39 = getelementptr inbounds %class.MatrixMultiplication, %class.MatrixMultiplication* %0, i64 0, i32 18
  %40 = getelementptr inbounds %"struct.appsdk::Option", %"struct.appsdk::Option"* %27, i64 0, i32 5
  %41 = bitcast i8** %40 to i32**
  store i32* %39, i32** %41, align 8, !tbaa !58
  %42 = load %"class.appsdk::SDKCmdArgsParser"*, %"class.appsdk::SDKCmdArgsParser"** %23, align 8, !tbaa !31
  %43 = tail call i32 @_ZN6appsdk16SDKCmdArgsParser9AddOptionEPNS_6OptionE(%"class.appsdk::SDKCmdArgsParser"* nonnull align 8 dereferenceable(88) %42, %"struct.appsdk::Option"* nonnull %27)
  tail call void @_ZN6appsdk6OptionD2Ev(%"struct.appsdk::Option"* nonnull align 8 dereferenceable(48) %27) #26
  tail call void @_ZdlPv(i8* nonnull %26) #29
  %44 = tail call noalias nonnull dereferenceable(48) i8* @_Znwm(i64 48) #28
  %45 = bitcast i8* %44 to %"struct.appsdk::Option"*
  %46 = getelementptr inbounds %"struct.appsdk::Option", %"struct.appsdk::Option"* %45, i64 0, i32 0, i32 0, i32 0
  store i8* bitcast (i64* getelementptr inbounds ([0 x i64], [0 x i64]* @_ZNSs4_Rep20_S_empty_rep_storageE, i64 0, i64 3) to i8*), i8** %46, align 8, !tbaa !54
  %47 = getelementptr inbounds %"struct.appsdk::Option", %"struct.appsdk::Option"* %45, i64 0, i32 1, i32 0, i32 0
  store i8* bitcast (i64* getelementptr inbounds ([0 x i64], [0 x i64]* @_ZNSs4_Rep20_S_empty_rep_storageE, i64 0, i64 3) to i8*), i8** %47, align 8, !tbaa !54
  %48 = getelementptr inbounds %"struct.appsdk::Option", %"struct.appsdk::Option"* %45, i64 0, i32 2, i32 0, i32 0
  store i8* bitcast (i64* getelementptr inbounds ([0 x i64], [0 x i64]* @_ZNSs4_Rep20_S_empty_rep_storageE, i64 0, i64 3) to i8*), i8** %48, align 8, !tbaa !54
  %49 = getelementptr inbounds %"struct.appsdk::Option", %"struct.appsdk::Option"* %45, i64 0, i32 3, i32 0, i32 0
  store i8* bitcast (i64* getelementptr inbounds ([0 x i64], [0 x i64]* @_ZNSs4_Rep20_S_empty_rep_storageE, i64 0, i64 3) to i8*), i8** %49, align 8, !tbaa !54
  %50 = getelementptr inbounds %"struct.appsdk::Option", %"struct.appsdk::Option"* %45, i64 0, i32 0
  %51 = tail call nonnull align 8 dereferenceable(8) %"class.std::basic_string"* @_ZNSs6assignEPKcm(%"class.std::basic_string"* nonnull align 8 dereferenceable(8) %50, i8* getelementptr inbounds ([2 x i8], [2 x i8]* @.str.17, i64 0, i64 0), i64 1)
  %52 = getelementptr inbounds %"struct.appsdk::Option", %"struct.appsdk::Option"* %45, i64 0, i32 1
  %53 = tail call nonnull align 8 dereferenceable(8) %"class.std::basic_string"* @_ZNSs6assignEPKcm(%"class.std::basic_string"* nonnull align 8 dereferenceable(8) %52, i8* getelementptr inbounds ([7 x i8], [7 x i8]* @.str.18, i64 0, i64 0), i64 6)
  %54 = getelementptr inbounds %"struct.appsdk::Option", %"struct.appsdk::Option"* %45, i64 0, i32 2
  %55 = tail call nonnull align 8 dereferenceable(8) %"class.std::basic_string"* @_ZNSs6assignEPKcm(%"class.std::basic_string"* nonnull align 8 dereferenceable(8) %54, i8* getelementptr inbounds ([18 x i8], [18 x i8]* @.str.19, i64 0, i64 0), i64 17)
  %56 = getelementptr inbounds %"struct.appsdk::Option", %"struct.appsdk::Option"* %45, i64 0, i32 4
  store i32 0, i32* %56, align 8, !tbaa !55
  %57 = getelementptr inbounds %class.MatrixMultiplication, %class.MatrixMultiplication* %0, i64 0, i32 19
  %58 = getelementptr inbounds %"struct.appsdk::Option", %"struct.appsdk::Option"* %45, i64 0, i32 5
  %59 = bitcast i8** %58 to i32**
  store i32* %57, i32** %59, align 8, !tbaa !58
  %60 = load %"class.appsdk::SDKCmdArgsParser"*, %"class.appsdk::SDKCmdArgsParser"** %23, align 8, !tbaa !31
  %61 = tail call i32 @_ZN6appsdk16SDKCmdArgsParser9AddOptionEPNS_6OptionE(%"class.appsdk::SDKCmdArgsParser"* nonnull align 8 dereferenceable(88) %60, %"struct.appsdk::Option"* nonnull %45)
  tail call void @_ZN6appsdk6OptionD2Ev(%"struct.appsdk::Option"* nonnull align 8 dereferenceable(48) %45) #26
  tail call void @_ZdlPv(i8* nonnull %44) #29
  %62 = tail call noalias nonnull dereferenceable(48) i8* @_Znwm(i64 48) #28
  %63 = bitcast i8* %62 to %"struct.appsdk::Option"*
  %64 = getelementptr inbounds %"struct.appsdk::Option", %"struct.appsdk::Option"* %63, i64 0, i32 0, i32 0, i32 0
  store i8* bitcast (i64* getelementptr inbounds ([0 x i64], [0 x i64]* @_ZNSs4_Rep20_S_empty_rep_storageE, i64 0, i64 3) to i8*), i8** %64, align 8, !tbaa !54
  %65 = getelementptr inbounds %"struct.appsdk::Option", %"struct.appsdk::Option"* %63, i64 0, i32 1, i32 0, i32 0
  store i8* bitcast (i64* getelementptr inbounds ([0 x i64], [0 x i64]* @_ZNSs4_Rep20_S_empty_rep_storageE, i64 0, i64 3) to i8*), i8** %65, align 8, !tbaa !54
  %66 = getelementptr inbounds %"struct.appsdk::Option", %"struct.appsdk::Option"* %63, i64 0, i32 2, i32 0, i32 0
  store i8* bitcast (i64* getelementptr inbounds ([0 x i64], [0 x i64]* @_ZNSs4_Rep20_S_empty_rep_storageE, i64 0, i64 3) to i8*), i8** %66, align 8, !tbaa !54
  %67 = getelementptr inbounds %"struct.appsdk::Option", %"struct.appsdk::Option"* %63, i64 0, i32 3, i32 0, i32 0
  store i8* bitcast (i64* getelementptr inbounds ([0 x i64], [0 x i64]* @_ZNSs4_Rep20_S_empty_rep_storageE, i64 0, i64 3) to i8*), i8** %67, align 8, !tbaa !54
  %68 = getelementptr inbounds %"struct.appsdk::Option", %"struct.appsdk::Option"* %63, i64 0, i32 0
  %69 = tail call nonnull align 8 dereferenceable(8) %"class.std::basic_string"* @_ZNSs6assignEPKcm(%"class.std::basic_string"* nonnull align 8 dereferenceable(8) %68, i8* getelementptr inbounds ([2 x i8], [2 x i8]* @.str.20, i64 0, i64 0), i64 1)
  %70 = getelementptr inbounds %"struct.appsdk::Option", %"struct.appsdk::Option"* %63, i64 0, i32 1
  %71 = tail call nonnull align 8 dereferenceable(8) %"class.std::basic_string"* @_ZNSs6assignEPKcm(%"class.std::basic_string"* nonnull align 8 dereferenceable(8) %70, i8* getelementptr inbounds ([10 x i8], [10 x i8]* @.str.21, i64 0, i64 0), i64 9)
  %72 = getelementptr inbounds %"struct.appsdk::Option", %"struct.appsdk::Option"* %63, i64 0, i32 2
  %73 = tail call nonnull align 8 dereferenceable(8) %"class.std::basic_string"* @_ZNSs6assignEPKcm(%"class.std::basic_string"* nonnull align 8 dereferenceable(8) %72, i8* getelementptr inbounds ([53 x i8], [53 x i8]* @.str.22, i64 0, i64 0), i64 52)
  %74 = getelementptr inbounds %"struct.appsdk::Option", %"struct.appsdk::Option"* %63, i64 0, i32 4
  store i32 0, i32* %74, align 8, !tbaa !55
  %75 = getelementptr inbounds %class.MatrixMultiplication, %class.MatrixMultiplication* %0, i64 0, i32 12
  %76 = getelementptr inbounds %"struct.appsdk::Option", %"struct.appsdk::Option"* %63, i64 0, i32 5
  %77 = bitcast i8** %76 to i32**
  store i32* %75, i32** %77, align 8, !tbaa !58
  %78 = load %"class.appsdk::SDKCmdArgsParser"*, %"class.appsdk::SDKCmdArgsParser"** %23, align 8, !tbaa !31
  %79 = tail call i32 @_ZN6appsdk16SDKCmdArgsParser9AddOptionEPNS_6OptionE(%"class.appsdk::SDKCmdArgsParser"* nonnull align 8 dereferenceable(88) %78, %"struct.appsdk::Option"* nonnull %63)
  tail call void @_ZN6appsdk6OptionD2Ev(%"struct.appsdk::Option"* nonnull align 8 dereferenceable(48) %63) #26
  tail call void @_ZdlPv(i8* nonnull %62) #29
  %80 = tail call noalias nonnull dereferenceable(48) i8* @_Znwm(i64 48) #28
  %81 = bitcast i8* %80 to %"struct.appsdk::Option"*
  %82 = getelementptr inbounds %"struct.appsdk::Option", %"struct.appsdk::Option"* %81, i64 0, i32 0, i32 0, i32 0
  store i8* bitcast (i64* getelementptr inbounds ([0 x i64], [0 x i64]* @_ZNSs4_Rep20_S_empty_rep_storageE, i64 0, i64 3) to i8*), i8** %82, align 8, !tbaa !54
  %83 = getelementptr inbounds %"struct.appsdk::Option", %"struct.appsdk::Option"* %81, i64 0, i32 1, i32 0, i32 0
  store i8* bitcast (i64* getelementptr inbounds ([0 x i64], [0 x i64]* @_ZNSs4_Rep20_S_empty_rep_storageE, i64 0, i64 3) to i8*), i8** %83, align 8, !tbaa !54
  %84 = getelementptr inbounds %"struct.appsdk::Option", %"struct.appsdk::Option"* %81, i64 0, i32 2, i32 0, i32 0
  store i8* bitcast (i64* getelementptr inbounds ([0 x i64], [0 x i64]* @_ZNSs4_Rep20_S_empty_rep_storageE, i64 0, i64 3) to i8*), i8** %84, align 8, !tbaa !54
  %85 = getelementptr inbounds %"struct.appsdk::Option", %"struct.appsdk::Option"* %81, i64 0, i32 3, i32 0, i32 0
  store i8* bitcast (i64* getelementptr inbounds ([0 x i64], [0 x i64]* @_ZNSs4_Rep20_S_empty_rep_storageE, i64 0, i64 3) to i8*), i8** %85, align 8, !tbaa !54
  %86 = getelementptr inbounds %"struct.appsdk::Option", %"struct.appsdk::Option"* %81, i64 0, i32 0
  %87 = tail call nonnull align 8 dereferenceable(8) %"class.std::basic_string"* @_ZNSs6assignEPKcm(%"class.std::basic_string"* nonnull align 8 dereferenceable(8) %86, i8* getelementptr inbounds ([2 x i8], [2 x i8]* @.str.23, i64 0, i64 0), i64 1)
  %88 = getelementptr inbounds %"struct.appsdk::Option", %"struct.appsdk::Option"* %81, i64 0, i32 1
  %89 = tail call nonnull align 8 dereferenceable(8) %"class.std::basic_string"* @_ZNSs6assignEPKcm(%"class.std::basic_string"* nonnull align 8 dereferenceable(8) %88, i8* getelementptr inbounds ([11 x i8], [11 x i8]* @.str.24, i64 0, i64 0), i64 10)
  %90 = getelementptr inbounds %"struct.appsdk::Option", %"struct.appsdk::Option"* %81, i64 0, i32 2
  %91 = tail call nonnull align 8 dereferenceable(8) %"class.std::basic_string"* @_ZNSs6assignEPKcm(%"class.std::basic_string"* nonnull align 8 dereferenceable(8) %90, i8* getelementptr inbounds ([42 x i8], [42 x i8]* @.str.25, i64 0, i64 0), i64 41)
  %92 = getelementptr inbounds %"struct.appsdk::Option", %"struct.appsdk::Option"* %81, i64 0, i32 4
  store i32 0, i32* %92, align 8, !tbaa !55
  %93 = getelementptr inbounds %class.MatrixMultiplication, %class.MatrixMultiplication* %0, i64 0, i32 24
  %94 = getelementptr inbounds %"struct.appsdk::Option", %"struct.appsdk::Option"* %81, i64 0, i32 5
  %95 = bitcast i8** %94 to i32**
  store i32* %93, i32** %95, align 8, !tbaa !58
  %96 = load %"class.appsdk::SDKCmdArgsParser"*, %"class.appsdk::SDKCmdArgsParser"** %23, align 8, !tbaa !31
  %97 = tail call i32 @_ZN6appsdk16SDKCmdArgsParser9AddOptionEPNS_6OptionE(%"class.appsdk::SDKCmdArgsParser"* nonnull align 8 dereferenceable(88) %96, %"struct.appsdk::Option"* nonnull %81)
  tail call void @_ZN6appsdk6OptionD2Ev(%"struct.appsdk::Option"* nonnull align 8 dereferenceable(48) %81) #26
  tail call void @_ZdlPv(i8* nonnull %80) #29
  %98 = tail call noalias nonnull dereferenceable(48) i8* @_Znwm(i64 48) #28
  %99 = bitcast i8* %98 to %"struct.appsdk::Option"*
  %100 = getelementptr inbounds %"struct.appsdk::Option", %"struct.appsdk::Option"* %99, i64 0, i32 0, i32 0, i32 0
  store i8* bitcast (i64* getelementptr inbounds ([0 x i64], [0 x i64]* @_ZNSs4_Rep20_S_empty_rep_storageE, i64 0, i64 3) to i8*), i8** %100, align 8, !tbaa !54
  %101 = getelementptr inbounds %"struct.appsdk::Option", %"struct.appsdk::Option"* %99, i64 0, i32 1, i32 0, i32 0
  store i8* bitcast (i64* getelementptr inbounds ([0 x i64], [0 x i64]* @_ZNSs4_Rep20_S_empty_rep_storageE, i64 0, i64 3) to i8*), i8** %101, align 8, !tbaa !54
  %102 = getelementptr inbounds %"struct.appsdk::Option", %"struct.appsdk::Option"* %99, i64 0, i32 2, i32 0, i32 0
  store i8* bitcast (i64* getelementptr inbounds ([0 x i64], [0 x i64]* @_ZNSs4_Rep20_S_empty_rep_storageE, i64 0, i64 3) to i8*), i8** %102, align 8, !tbaa !54
  %103 = getelementptr inbounds %"struct.appsdk::Option", %"struct.appsdk::Option"* %99, i64 0, i32 3, i32 0, i32 0
  store i8* bitcast (i64* getelementptr inbounds ([0 x i64], [0 x i64]* @_ZNSs4_Rep20_S_empty_rep_storageE, i64 0, i64 3) to i8*), i8** %103, align 8, !tbaa !54
  %104 = getelementptr inbounds %"struct.appsdk::Option", %"struct.appsdk::Option"* %99, i64 0, i32 0
  %105 = tail call nonnull align 8 dereferenceable(8) %"class.std::basic_string"* @_ZNSs6assignEPKcm(%"class.std::basic_string"* nonnull align 8 dereferenceable(8) %104, i8* getelementptr inbounds ([1 x i8], [1 x i8]* @.str.26, i64 0, i64 0), i64 0)
  %106 = getelementptr inbounds %"struct.appsdk::Option", %"struct.appsdk::Option"* %99, i64 0, i32 1
  %107 = tail call nonnull align 8 dereferenceable(8) %"class.std::basic_string"* @_ZNSs6assignEPKcm(%"class.std::basic_string"* nonnull align 8 dereferenceable(8) %106, i8* getelementptr inbounds ([11 x i8], [11 x i8]* @.str.27, i64 0, i64 0), i64 10)
  %108 = getelementptr inbounds %"struct.appsdk::Option", %"struct.appsdk::Option"* %99, i64 0, i32 2
  %109 = tail call nonnull align 8 dereferenceable(8) %"class.std::basic_string"* @_ZNSs6assignEPKcm(%"class.std::basic_string"* nonnull align 8 dereferenceable(8) %108, i8* getelementptr inbounds ([53 x i8], [53 x i8]* @.str.28, i64 0, i64 0), i64 52)
  %110 = getelementptr inbounds %"struct.appsdk::Option", %"struct.appsdk::Option"* %99, i64 0, i32 4
  store i32 4, i32* %110, align 8, !tbaa !55
  %111 = getelementptr inbounds %class.MatrixMultiplication, %class.MatrixMultiplication* %0, i64 0, i32 25
  %112 = getelementptr inbounds %"struct.appsdk::Option", %"struct.appsdk::Option"* %99, i64 0, i32 5
  store i8* %111, i8** %112, align 8, !tbaa !58
  %113 = load %"class.appsdk::SDKCmdArgsParser"*, %"class.appsdk::SDKCmdArgsParser"** %23, align 8, !tbaa !31
  %114 = tail call i32 @_ZN6appsdk16SDKCmdArgsParser9AddOptionEPNS_6OptionE(%"class.appsdk::SDKCmdArgsParser"* nonnull align 8 dereferenceable(88) %113, %"struct.appsdk::Option"* nonnull %99)
  tail call void @_ZN6appsdk6OptionD2Ev(%"struct.appsdk::Option"* nonnull align 8 dereferenceable(48) %99) #26
  tail call void @_ZdlPv(i8* nonnull %98) #29
  br label %115

115:                                              ; preds = %1, %6
  %116 = phi i32 [ 0, %6 ], [ 1, %1 ]
  ret i32 %116
}

; Function Attrs: uwtable
define linkonce_odr dso_local i32 @_ZN6appsdk14HIPCommandArgs10initializeEv(%"class.appsdk::HIPCommandArgs"* nonnull align 8 dereferenceable(93) %0) local_unnamed_addr #5 comdat align 2 personality i8* bitcast (i32 (...)* @__gxx_personality_v0 to i8*) {
  %2 = tail call noalias nonnull dereferenceable(248) i8* @_Znam(i64 248) #28
  %3 = bitcast i8* %2 to i64*
  store i64 5, i64* %3, align 16
  %4 = getelementptr inbounds i8, i8* %2, i64 8
  %5 = bitcast i8* %4 to i8**
  store i8* bitcast (i64* getelementptr inbounds ([0 x i64], [0 x i64]* @_ZNSs4_Rep20_S_empty_rep_storageE, i64 0, i64 3) to i8*), i8** %5, align 8, !tbaa !54
  %6 = getelementptr inbounds i8, i8* %2, i64 16
  %7 = bitcast i8* %6 to i8**
  store i8* bitcast (i64* getelementptr inbounds ([0 x i64], [0 x i64]* @_ZNSs4_Rep20_S_empty_rep_storageE, i64 0, i64 3) to i8*), i8** %7, align 8, !tbaa !54
  %8 = getelementptr inbounds i8, i8* %2, i64 24
  %9 = bitcast i8* %8 to i8**
  store i8* bitcast (i64* getelementptr inbounds ([0 x i64], [0 x i64]* @_ZNSs4_Rep20_S_empty_rep_storageE, i64 0, i64 3) to i8*), i8** %9, align 8, !tbaa !54
  %10 = getelementptr inbounds i8, i8* %2, i64 32
  %11 = bitcast i8* %10 to i8**
  store i8* bitcast (i64* getelementptr inbounds ([0 x i64], [0 x i64]* @_ZNSs4_Rep20_S_empty_rep_storageE, i64 0, i64 3) to i8*), i8** %11, align 8, !tbaa !54
  %12 = getelementptr inbounds i8, i8* %2, i64 56
  %13 = bitcast i8* %12 to i8**
  store i8* bitcast (i64* getelementptr inbounds ([0 x i64], [0 x i64]* @_ZNSs4_Rep20_S_empty_rep_storageE, i64 0, i64 3) to i8*), i8** %13, align 8, !tbaa !54
  %14 = getelementptr inbounds i8, i8* %2, i64 64
  %15 = bitcast i8* %14 to i8**
  store i8* bitcast (i64* getelementptr inbounds ([0 x i64], [0 x i64]* @_ZNSs4_Rep20_S_empty_rep_storageE, i64 0, i64 3) to i8*), i8** %15, align 8, !tbaa !54
  %16 = getelementptr inbounds i8, i8* %2, i64 72
  %17 = bitcast i8* %16 to i8**
  store i8* bitcast (i64* getelementptr inbounds ([0 x i64], [0 x i64]* @_ZNSs4_Rep20_S_empty_rep_storageE, i64 0, i64 3) to i8*), i8** %17, align 8, !tbaa !54
  %18 = getelementptr inbounds i8, i8* %2, i64 80
  %19 = bitcast i8* %18 to i8**
  store i8* bitcast (i64* getelementptr inbounds ([0 x i64], [0 x i64]* @_ZNSs4_Rep20_S_empty_rep_storageE, i64 0, i64 3) to i8*), i8** %19, align 8, !tbaa !54
  %20 = getelementptr inbounds i8, i8* %2, i64 104
  %21 = bitcast i8* %20 to i8**
  store i8* bitcast (i64* getelementptr inbounds ([0 x i64], [0 x i64]* @_ZNSs4_Rep20_S_empty_rep_storageE, i64 0, i64 3) to i8*), i8** %21, align 8, !tbaa !54
  %22 = getelementptr inbounds i8, i8* %2, i64 112
  %23 = bitcast i8* %22 to i8**
  store i8* bitcast (i64* getelementptr inbounds ([0 x i64], [0 x i64]* @_ZNSs4_Rep20_S_empty_rep_storageE, i64 0, i64 3) to i8*), i8** %23, align 8, !tbaa !54
  %24 = getelementptr inbounds i8, i8* %2, i64 120
  %25 = bitcast i8* %24 to i8**
  store i8* bitcast (i64* getelementptr inbounds ([0 x i64], [0 x i64]* @_ZNSs4_Rep20_S_empty_rep_storageE, i64 0, i64 3) to i8*), i8** %25, align 8, !tbaa !54
  %26 = getelementptr inbounds i8, i8* %2, i64 128
  %27 = bitcast i8* %26 to i8**
  store i8* bitcast (i64* getelementptr inbounds ([0 x i64], [0 x i64]* @_ZNSs4_Rep20_S_empty_rep_storageE, i64 0, i64 3) to i8*), i8** %27, align 8, !tbaa !54
  %28 = getelementptr inbounds i8, i8* %2, i64 152
  %29 = bitcast i8* %28 to i8**
  store i8* bitcast (i64* getelementptr inbounds ([0 x i64], [0 x i64]* @_ZNSs4_Rep20_S_empty_rep_storageE, i64 0, i64 3) to i8*), i8** %29, align 8, !tbaa !54
  %30 = getelementptr inbounds i8, i8* %2, i64 160
  %31 = bitcast i8* %30 to i8**
  store i8* bitcast (i64* getelementptr inbounds ([0 x i64], [0 x i64]* @_ZNSs4_Rep20_S_empty_rep_storageE, i64 0, i64 3) to i8*), i8** %31, align 8, !tbaa !54
  %32 = getelementptr inbounds i8, i8* %2, i64 168
  %33 = bitcast i8* %32 to i8**
  store i8* bitcast (i64* getelementptr inbounds ([0 x i64], [0 x i64]* @_ZNSs4_Rep20_S_empty_rep_storageE, i64 0, i64 3) to i8*), i8** %33, align 8, !tbaa !54
  %34 = getelementptr inbounds i8, i8* %2, i64 176
  %35 = bitcast i8* %34 to i8**
  store i8* bitcast (i64* getelementptr inbounds ([0 x i64], [0 x i64]* @_ZNSs4_Rep20_S_empty_rep_storageE, i64 0, i64 3) to i8*), i8** %35, align 8, !tbaa !54
  %36 = getelementptr inbounds i8, i8* %2, i64 200
  %37 = bitcast i8* %36 to i8**
  store i8* bitcast (i64* getelementptr inbounds ([0 x i64], [0 x i64]* @_ZNSs4_Rep20_S_empty_rep_storageE, i64 0, i64 3) to i8*), i8** %37, align 8, !tbaa !54
  %38 = getelementptr inbounds i8, i8* %2, i64 208
  %39 = bitcast i8* %38 to i8**
  store i8* bitcast (i64* getelementptr inbounds ([0 x i64], [0 x i64]* @_ZNSs4_Rep20_S_empty_rep_storageE, i64 0, i64 3) to i8*), i8** %39, align 8, !tbaa !54
  %40 = getelementptr inbounds i8, i8* %2, i64 216
  %41 = bitcast i8* %40 to i8**
  store i8* bitcast (i64* getelementptr inbounds ([0 x i64], [0 x i64]* @_ZNSs4_Rep20_S_empty_rep_storageE, i64 0, i64 3) to i8*), i8** %41, align 8, !tbaa !54
  %42 = getelementptr inbounds i8, i8* %2, i64 224
  %43 = bitcast i8* %42 to i8**
  store i8* bitcast (i64* getelementptr inbounds ([0 x i64], [0 x i64]* @_ZNSs4_Rep20_S_empty_rep_storageE, i64 0, i64 3) to i8*), i8** %43, align 8, !tbaa !54
  %44 = bitcast i8* %4 to %"class.std::basic_string"*
  %45 = tail call nonnull align 8 dereferenceable(8) %"class.std::basic_string"* @_ZNSs6assignEPKcm(%"class.std::basic_string"* nonnull align 8 dereferenceable(8) %44, i8* getelementptr inbounds ([2 x i8], [2 x i8]* @.str.45, i64 0, i64 0), i64 1)
  %46 = getelementptr inbounds i8, i8* %2, i64 16
  %47 = bitcast i8* %46 to %"class.std::basic_string"*
  %48 = tail call nonnull align 8 dereferenceable(8) %"class.std::basic_string"* @_ZNSs6assignEPKcm(%"class.std::basic_string"* nonnull align 8 dereferenceable(8) %47, i8* getelementptr inbounds ([6 x i8], [6 x i8]* @.str.46, i64 0, i64 0), i64 5)
  %49 = getelementptr inbounds i8, i8* %2, i64 24
  %50 = bitcast i8* %49 to %"class.std::basic_string"*
  %51 = tail call nonnull align 8 dereferenceable(8) %"class.std::basic_string"* @_ZNSs6assignEPKcm(%"class.std::basic_string"* nonnull align 8 dereferenceable(8) %50, i8* getelementptr inbounds ([38 x i8], [38 x i8]* @.str.47, i64 0, i64 0), i64 37)
  %52 = getelementptr inbounds i8, i8* %2, i64 40
  %53 = bitcast i8* %52 to i32*
  store i32 4, i32* %53, align 8, !tbaa !55
  %54 = getelementptr inbounds %"class.appsdk::HIPCommandArgs", %"class.appsdk::HIPCommandArgs"* %0, i64 0, i32 0, i32 9
  %55 = getelementptr inbounds i8, i8* %2, i64 48
  %56 = bitcast i8* %55 to i8**
  store i8* %54, i8** %56, align 8, !tbaa !58
  %57 = getelementptr inbounds i8, i8* %2, i64 56
  %58 = bitcast i8* %57 to %"class.std::basic_string"*
  %59 = tail call nonnull align 8 dereferenceable(8) %"class.std::basic_string"* @_ZNSs6assignEPKcm(%"class.std::basic_string"* nonnull align 8 dereferenceable(8) %58, i8* getelementptr inbounds ([2 x i8], [2 x i8]* @.str.48, i64 0, i64 0), i64 1)
  %60 = getelementptr inbounds i8, i8* %2, i64 64
  %61 = bitcast i8* %60 to %"class.std::basic_string"*
  %62 = tail call nonnull align 8 dereferenceable(8) %"class.std::basic_string"* @_ZNSs6assignEPKcm(%"class.std::basic_string"* nonnull align 8 dereferenceable(8) %61, i8* getelementptr inbounds ([7 x i8], [7 x i8]* @.str.49, i64 0, i64 0), i64 6)
  %63 = getelementptr inbounds i8, i8* %2, i64 72
  %64 = bitcast i8* %63 to %"class.std::basic_string"*
  %65 = tail call nonnull align 8 dereferenceable(8) %"class.std::basic_string"* @_ZNSs6assignEPKcm(%"class.std::basic_string"* nonnull align 8 dereferenceable(8) %64, i8* getelementptr inbounds ([49 x i8], [49 x i8]* @.str.50, i64 0, i64 0), i64 48)
  %66 = getelementptr inbounds i8, i8* %2, i64 88
  %67 = bitcast i8* %66 to i32*
  store i32 4, i32* %67, align 8, !tbaa !55
  %68 = getelementptr inbounds %"class.appsdk::HIPCommandArgs", %"class.appsdk::HIPCommandArgs"* %0, i64 0, i32 0, i32 10
  %69 = getelementptr inbounds i8, i8* %2, i64 96
  %70 = bitcast i8* %69 to i8**
  store i8* %68, i8** %70, align 8, !tbaa !58
  %71 = getelementptr inbounds i8, i8* %2, i64 104
  %72 = bitcast i8* %71 to %"class.std::basic_string"*
  %73 = tail call nonnull align 8 dereferenceable(8) %"class.std::basic_string"* @_ZNSs6assignEPKcm(%"class.std::basic_string"* nonnull align 8 dereferenceable(8) %72, i8* getelementptr inbounds ([2 x i8], [2 x i8]* @.str.51, i64 0, i64 0), i64 1)
  %74 = getelementptr inbounds i8, i8* %2, i64 112
  %75 = bitcast i8* %74 to %"class.std::basic_string"*
  %76 = tail call nonnull align 8 dereferenceable(8) %"class.std::basic_string"* @_ZNSs6assignEPKcm(%"class.std::basic_string"* nonnull align 8 dereferenceable(8) %75, i8* getelementptr inbounds ([7 x i8], [7 x i8]* @.str.52, i64 0, i64 0), i64 6)
  %77 = getelementptr inbounds i8, i8* %2, i64 120
  %78 = bitcast i8* %77 to %"class.std::basic_string"*
  %79 = tail call nonnull align 8 dereferenceable(8) %"class.std::basic_string"* @_ZNSs6assignEPKcm(%"class.std::basic_string"* nonnull align 8 dereferenceable(8) %78, i8* getelementptr inbounds ([14 x i8], [14 x i8]* @.str.53, i64 0, i64 0), i64 13)
  %80 = getelementptr inbounds i8, i8* %2, i64 136
  %81 = bitcast i8* %80 to i32*
  store i32 4, i32* %81, align 8, !tbaa !55
  %82 = getelementptr inbounds %"class.appsdk::HIPCommandArgs", %"class.appsdk::HIPCommandArgs"* %0, i64 0, i32 0, i32 11
  %83 = getelementptr inbounds i8, i8* %2, i64 144
  %84 = bitcast i8* %83 to i8**
  store i8* %82, i8** %84, align 8, !tbaa !58
  %85 = getelementptr inbounds i8, i8* %2, i64 152
  %86 = bitcast i8* %85 to %"class.std::basic_string"*
  %87 = tail call nonnull align 8 dereferenceable(8) %"class.std::basic_string"* @_ZNSs6assignEPKcm(%"class.std::basic_string"* nonnull align 8 dereferenceable(8) %86, i8* getelementptr inbounds ([2 x i8], [2 x i8]* @.str.54, i64 0, i64 0), i64 1)
  %88 = getelementptr inbounds i8, i8* %2, i64 160
  %89 = bitcast i8* %88 to %"class.std::basic_string"*
  %90 = tail call nonnull align 8 dereferenceable(8) %"class.std::basic_string"* @_ZNSs6assignEPKcm(%"class.std::basic_string"* nonnull align 8 dereferenceable(8) %89, i8* getelementptr inbounds ([8 x i8], [8 x i8]* @.str.55, i64 0, i64 0), i64 7)
  %91 = getelementptr inbounds i8, i8* %2, i64 168
  %92 = bitcast i8* %91 to %"class.std::basic_string"*
  %93 = tail call nonnull align 8 dereferenceable(8) %"class.std::basic_string"* @_ZNSs6assignEPKcm(%"class.std::basic_string"* nonnull align 8 dereferenceable(8) %92, i8* getelementptr inbounds ([28 x i8], [28 x i8]* @.str.56, i64 0, i64 0), i64 27)
  %94 = getelementptr inbounds i8, i8* %2, i64 184
  %95 = bitcast i8* %94 to i32*
  store i32 4, i32* %95, align 8, !tbaa !55
  %96 = getelementptr inbounds %"class.appsdk::HIPCommandArgs", %"class.appsdk::HIPCommandArgs"* %0, i64 0, i32 0, i32 6
  %97 = getelementptr inbounds i8, i8* %2, i64 192
  %98 = bitcast i8* %97 to i8**
  store i8* %96, i8** %98, align 8, !tbaa !58
  %99 = getelementptr inbounds i8, i8* %2, i64 200
  %100 = bitcast i8* %99 to %"class.std::basic_string"*
  %101 = tail call nonnull align 8 dereferenceable(8) %"class.std::basic_string"* @_ZNSs6assignEPKcm(%"class.std::basic_string"* nonnull align 8 dereferenceable(8) %100, i8* getelementptr inbounds ([2 x i8], [2 x i8]* @.str.57, i64 0, i64 0), i64 1)
  %102 = getelementptr inbounds i8, i8* %2, i64 208
  %103 = bitcast i8* %102 to %"class.std::basic_string"*
  %104 = tail call nonnull align 8 dereferenceable(8) %"class.std::basic_string"* @_ZNSs6assignEPKcm(%"class.std::basic_string"* nonnull align 8 dereferenceable(8) %103, i8* getelementptr inbounds ([9 x i8], [9 x i8]* @.str.58, i64 0, i64 0), i64 8)
  %105 = getelementptr inbounds i8, i8* %2, i64 216
  %106 = bitcast i8* %105 to %"class.std::basic_string"*
  %107 = tail call nonnull align 8 dereferenceable(8) %"class.std::basic_string"* @_ZNSs6assignEPKcm(%"class.std::basic_string"* nonnull align 8 dereferenceable(8) %106, i8* getelementptr inbounds ([74 x i8], [74 x i8]* @.str.59, i64 0, i64 0), i64 73)
  %108 = getelementptr inbounds i8, i8* %2, i64 232
  %109 = bitcast i8* %108 to i32*
  store i32 0, i32* %109, align 8, !tbaa !55
  %110 = getelementptr inbounds %"class.appsdk::HIPCommandArgs", %"class.appsdk::HIPCommandArgs"* %0, i64 0, i32 1
  %111 = getelementptr inbounds i8, i8* %2, i64 240
  %112 = bitcast i8* %111 to i32**
  store i32* %110, i32** %112, align 8, !tbaa !58
  %113 = getelementptr inbounds %"class.appsdk::HIPCommandArgs", %"class.appsdk::HIPCommandArgs"* %0, i64 0, i32 0, i32 1
  store i32 5, i32* %113, align 8, !tbaa !59
  %114 = getelementptr inbounds %"class.appsdk::HIPCommandArgs", %"class.appsdk::HIPCommandArgs"* %0, i64 0, i32 0, i32 5
  %115 = bitcast %"struct.appsdk::Option"** %114 to i8**
  store i8* %4, i8** %115, align 8, !tbaa !60
  ret i32 0
}

; Function Attrs: nobuiltin allocsize(0)
declare dso_local nonnull i8* @_Znwm(i64) local_unnamed_addr #14

; Function Attrs: nobuiltin nounwind
declare dso_local void @_ZdlPv(i8*) local_unnamed_addr #15

; Function Attrs: uwtable
define linkonce_odr dso_local i32 @_ZN6appsdk16SDKCmdArgsParser9AddOptionEPNS_6OptionE(%"class.appsdk::SDKCmdArgsParser"* nonnull align 8 dereferenceable(88) %0, %"struct.appsdk::Option"* %1) local_unnamed_addr #5 comdat align 2 personality i8* bitcast (i32 (...)* @__gxx_personality_v0 to i8*) {
  %3 = icmp eq %"struct.appsdk::Option"* %1, null
  br i1 %3, label %4, label %6

4:                                                ; preds = %2
  %5 = tail call nonnull align 8 dereferenceable(8) %"class.std::basic_ostream"* @_ZSt16__ostream_insertIcSt11char_traitsIcEERSt13basic_ostreamIT_T0_ES6_PKS3_l(%"class.std::basic_ostream"* nonnull align 8 dereferenceable(8) @_ZSt4cout, i8* nonnull getelementptr inbounds ([37 x i8], [37 x i8]* @.str.60, i64 0, i64 0), i64 36)
  br label %98

6:                                                ; preds = %2
  %7 = getelementptr inbounds %"class.appsdk::SDKCmdArgsParser", %"class.appsdk::SDKCmdArgsParser"* %0, i64 0, i32 5
  %8 = load %"struct.appsdk::Option"*, %"struct.appsdk::Option"** %7, align 8, !tbaa !60
  %9 = icmp eq %"struct.appsdk::Option"* %8, null
  %10 = getelementptr inbounds %"class.appsdk::SDKCmdArgsParser", %"class.appsdk::SDKCmdArgsParser"* %0, i64 0, i32 1
  %11 = load i32, i32* %10, align 8, !tbaa !59
  %12 = add nsw i32 %11, 1
  %13 = sext i32 %12 to i64
  %14 = tail call { i64, i1 } @llvm.umul.with.overflow.i64(i64 %13, i64 48)
  %15 = extractvalue { i64, i1 } %14, 1
  %16 = extractvalue { i64, i1 } %14, 0
  %17 = or i64 %16, 8
  %18 = select i1 %15, i64 -1, i64 %17
  %19 = tail call noalias nonnull i8* @_Znam(i64 %18) #28
  %20 = bitcast i8* %19 to i64*
  store i64 %13, i64* %20, align 16
  %21 = getelementptr inbounds i8, i8* %19, i64 8
  %22 = bitcast i8* %21 to %"struct.appsdk::Option"*
  %23 = icmp eq i32 %12, 0
  br i1 %23, label %24, label %26

24:                                               ; preds = %6
  %25 = bitcast %"struct.appsdk::Option"** %7 to i8**
  store i8* %21, i8** %25, align 8, !tbaa !60
  br label %63

26:                                               ; preds = %6
  %27 = getelementptr inbounds %"struct.appsdk::Option", %"struct.appsdk::Option"* %22, i64 %13
  br label %28

28:                                               ; preds = %26, %28
  %29 = phi %"struct.appsdk::Option"* [ %22, %26 ], [ %34, %28 ]
  %30 = getelementptr inbounds %"struct.appsdk::Option", %"struct.appsdk::Option"* %29, i64 0, i32 0, i32 0, i32 0
  store i8* bitcast (i64* getelementptr inbounds ([0 x i64], [0 x i64]* @_ZNSs4_Rep20_S_empty_rep_storageE, i64 0, i64 3) to i8*), i8** %30, align 8, !tbaa !54
  %31 = getelementptr inbounds %"struct.appsdk::Option", %"struct.appsdk::Option"* %29, i64 0, i32 1, i32 0, i32 0
  store i8* bitcast (i64* getelementptr inbounds ([0 x i64], [0 x i64]* @_ZNSs4_Rep20_S_empty_rep_storageE, i64 0, i64 3) to i8*), i8** %31, align 8, !tbaa !54
  %32 = getelementptr inbounds %"struct.appsdk::Option", %"struct.appsdk::Option"* %29, i64 0, i32 2, i32 0, i32 0
  store i8* bitcast (i64* getelementptr inbounds ([0 x i64], [0 x i64]* @_ZNSs4_Rep20_S_empty_rep_storageE, i64 0, i64 3) to i8*), i8** %32, align 8, !tbaa !54
  %33 = getelementptr inbounds %"struct.appsdk::Option", %"struct.appsdk::Option"* %29, i64 0, i32 3, i32 0, i32 0
  store i8* bitcast (i64* getelementptr inbounds ([0 x i64], [0 x i64]* @_ZNSs4_Rep20_S_empty_rep_storageE, i64 0, i64 3) to i8*), i8** %33, align 8, !tbaa !54
  %34 = getelementptr inbounds %"struct.appsdk::Option", %"struct.appsdk::Option"* %29, i64 1
  %35 = icmp eq %"struct.appsdk::Option"* %34, %27
  br i1 %35, label %36, label %28

36:                                               ; preds = %28
  %37 = bitcast %"struct.appsdk::Option"** %7 to i8**
  store i8* %21, i8** %37, align 8, !tbaa !60
  %38 = icmp sgt i32 %11, 0
  br i1 %38, label %39, label %63

39:                                               ; preds = %36, %39
  %40 = phi %"struct.appsdk::Option"* [ %62, %39 ], [ %22, %36 ]
  %41 = phi i64 [ %58, %39 ], [ 0, %36 ]
  %42 = getelementptr inbounds %"struct.appsdk::Option", %"struct.appsdk::Option"* %40, i64 %41, i32 0
  %43 = getelementptr inbounds %"struct.appsdk::Option", %"struct.appsdk::Option"* %8, i64 %41, i32 0
  %44 = tail call nonnull align 8 dereferenceable(8) %"class.std::basic_string"* @_ZNSs6assignERKSs(%"class.std::basic_string"* nonnull align 8 dereferenceable(8) %42, %"class.std::basic_string"* nonnull align 8 dereferenceable(8) %43)
  %45 = getelementptr inbounds %"struct.appsdk::Option", %"struct.appsdk::Option"* %40, i64 %41, i32 1
  %46 = getelementptr inbounds %"struct.appsdk::Option", %"struct.appsdk::Option"* %8, i64 %41, i32 1
  %47 = tail call nonnull align 8 dereferenceable(8) %"class.std::basic_string"* @_ZNSs6assignERKSs(%"class.std::basic_string"* nonnull align 8 dereferenceable(8) %45, %"class.std::basic_string"* nonnull align 8 dereferenceable(8) %46)
  %48 = getelementptr inbounds %"struct.appsdk::Option", %"struct.appsdk::Option"* %40, i64 %41, i32 2
  %49 = getelementptr inbounds %"struct.appsdk::Option", %"struct.appsdk::Option"* %8, i64 %41, i32 2
  %50 = tail call nonnull align 8 dereferenceable(8) %"class.std::basic_string"* @_ZNSs6assignERKSs(%"class.std::basic_string"* nonnull align 8 dereferenceable(8) %48, %"class.std::basic_string"* nonnull align 8 dereferenceable(8) %49)
  %51 = getelementptr inbounds %"struct.appsdk::Option", %"struct.appsdk::Option"* %40, i64 %41, i32 3
  %52 = getelementptr inbounds %"struct.appsdk::Option", %"struct.appsdk::Option"* %8, i64 %41, i32 3
  %53 = tail call nonnull align 8 dereferenceable(8) %"class.std::basic_string"* @_ZNSs6assignERKSs(%"class.std::basic_string"* nonnull align 8 dereferenceable(8) %51, %"class.std::basic_string"* nonnull align 8 dereferenceable(8) %52)
  %54 = getelementptr inbounds %"struct.appsdk::Option", %"struct.appsdk::Option"* %40, i64 %41, i32 4
  %55 = getelementptr inbounds %"struct.appsdk::Option", %"struct.appsdk::Option"* %8, i64 %41, i32 4
  %56 = bitcast i32* %54 to i8*
  %57 = bitcast i32* %55 to i8*
  tail call void @llvm.memcpy.p0i8.p0i8.i64(i8* noundef nonnull align 8 dereferenceable(16) %56, i8* noundef nonnull align 8 dereferenceable(16) %57, i64 16, i1 false)
  %58 = add nuw nsw i64 %41, 1
  %59 = load i32, i32* %10, align 8, !tbaa !59
  %60 = sext i32 %59 to i64
  %61 = icmp slt i64 %58, %60
  %62 = load %"struct.appsdk::Option"*, %"struct.appsdk::Option"** %7, align 8, !tbaa !60
  br i1 %61, label %39, label %63, !llvm.loop !61

63:                                               ; preds = %39, %36, %24
  %64 = phi i32 [ %11, %24 ], [ %11, %36 ], [ %59, %39 ]
  %65 = phi %"struct.appsdk::Option"* [ %22, %24 ], [ %22, %36 ], [ %62, %39 ]
  %66 = sext i32 %64 to i64
  %67 = getelementptr inbounds %"struct.appsdk::Option", %"struct.appsdk::Option"* %65, i64 %66, i32 0
  %68 = getelementptr inbounds %"struct.appsdk::Option", %"struct.appsdk::Option"* %1, i64 0, i32 0
  %69 = tail call nonnull align 8 dereferenceable(8) %"class.std::basic_string"* @_ZNSs6assignERKSs(%"class.std::basic_string"* nonnull align 8 dereferenceable(8) %67, %"class.std::basic_string"* nonnull align 8 dereferenceable(8) %68)
  %70 = getelementptr inbounds %"struct.appsdk::Option", %"struct.appsdk::Option"* %65, i64 %66, i32 1
  %71 = getelementptr inbounds %"struct.appsdk::Option", %"struct.appsdk::Option"* %1, i64 0, i32 1
  %72 = tail call nonnull align 8 dereferenceable(8) %"class.std::basic_string"* @_ZNSs6assignERKSs(%"class.std::basic_string"* nonnull align 8 dereferenceable(8) %70, %"class.std::basic_string"* nonnull align 8 dereferenceable(8) %71)
  %73 = getelementptr inbounds %"struct.appsdk::Option", %"struct.appsdk::Option"* %65, i64 %66, i32 2
  %74 = getelementptr inbounds %"struct.appsdk::Option", %"struct.appsdk::Option"* %1, i64 0, i32 2
  %75 = tail call nonnull align 8 dereferenceable(8) %"class.std::basic_string"* @_ZNSs6assignERKSs(%"class.std::basic_string"* nonnull align 8 dereferenceable(8) %73, %"class.std::basic_string"* nonnull align 8 dereferenceable(8) %74)
  %76 = getelementptr inbounds %"struct.appsdk::Option", %"struct.appsdk::Option"* %65, i64 %66, i32 3
  %77 = getelementptr inbounds %"struct.appsdk::Option", %"struct.appsdk::Option"* %1, i64 0, i32 3
  %78 = tail call nonnull align 8 dereferenceable(8) %"class.std::basic_string"* @_ZNSs6assignERKSs(%"class.std::basic_string"* nonnull align 8 dereferenceable(8) %76, %"class.std::basic_string"* nonnull align 8 dereferenceable(8) %77)
  %79 = getelementptr inbounds %"struct.appsdk::Option", %"struct.appsdk::Option"* %65, i64 %66, i32 4
  %80 = getelementptr inbounds %"struct.appsdk::Option", %"struct.appsdk::Option"* %1, i64 0, i32 4
  %81 = bitcast i32* %79 to i8*
  %82 = bitcast i32* %80 to i8*
  tail call void @llvm.memcpy.p0i8.p0i8.i64(i8* noundef nonnull align 8 dereferenceable(16) %81, i8* noundef nonnull align 8 dereferenceable(16) %82, i64 16, i1 false)
  %83 = load i32, i32* %10, align 8, !tbaa !59
  %84 = add nsw i32 %83, 1
  store i32 %84, i32* %10, align 8, !tbaa !59
  br i1 %9, label %98, label %85

85:                                               ; preds = %63
  %86 = getelementptr inbounds %"struct.appsdk::Option", %"struct.appsdk::Option"* %8, i64 -1, i32 5
  %87 = bitcast i8** %86 to i8*
  %88 = bitcast i8** %86 to i64*
  %89 = load i64, i64* %88, align 8
  %90 = icmp eq i64 %89, 0
  br i1 %90, label %97, label %91

91:                                               ; preds = %85
  %92 = getelementptr inbounds %"struct.appsdk::Option", %"struct.appsdk::Option"* %8, i64 %89
  br label %93

93:                                               ; preds = %91, %93
  %94 = phi %"struct.appsdk::Option"* [ %95, %93 ], [ %92, %91 ]
  %95 = getelementptr inbounds %"struct.appsdk::Option", %"struct.appsdk::Option"* %94, i64 -1
  tail call void @_ZN6appsdk6OptionD2Ev(%"struct.appsdk::Option"* nonnull align 8 dereferenceable(48) %95) #26
  %96 = icmp eq %"struct.appsdk::Option"* %95, %8
  br i1 %96, label %97, label %93

97:                                               ; preds = %93, %85
  tail call void @_ZdaPv(i8* nonnull %87) #29
  br label %98

98:                                               ; preds = %63, %97, %4
  %99 = phi i32 [ -1, %4 ], [ 0, %97 ], [ 0, %63 ]
  ret i32 %99
}

; Function Attrs: inlinehint nounwind uwtable
define linkonce_odr dso_local void @_ZN6appsdk6OptionD2Ev(%"struct.appsdk::Option"* nonnull align 8 dereferenceable(48) %0) unnamed_addr #16 comdat align 2 personality i32 (...)* @__gxx_personality_v0 {
  %2 = alloca %"class.std::allocator.0", align 1
  %3 = alloca %"class.std::allocator.0", align 1
  %4 = alloca %"class.std::allocator.0", align 1
  %5 = alloca %"class.std::allocator.0", align 1
  %6 = getelementptr inbounds %"struct.appsdk::Option", %"struct.appsdk::Option"* %0, i64 0, i32 3, i32 0, i32 0
  %7 = load i8*, i8** %6, align 8, !tbaa !16
  %8 = getelementptr inbounds i8, i8* %7, i64 -24
  %9 = bitcast i8* %8 to %"struct.std::basic_string<char>::_Rep"*
  %10 = getelementptr inbounds %"class.std::allocator.0", %"class.std::allocator.0"* %5, i64 0, i32 0
  call void @llvm.lifetime.start.p0i8(i64 1, i8* nonnull %10) #26
  %11 = icmp eq i8* %8, bitcast ([0 x i64]* @_ZNSs4_Rep20_S_empty_rep_storageE to i8*)
  br i1 %11, label %24, label %12, !prof !19

12:                                               ; preds = %1
  %13 = getelementptr inbounds i8, i8* %7, i64 -8
  %14 = bitcast i8* %13 to i32*
  br i1 icmp ne (i8* bitcast (i32 (i32*, void (i8*)*)* @__pthread_key_create to i8*), i8* null), label %15, label %17

15:                                               ; preds = %12
  %16 = atomicrmw volatile add i32* %14, i32 -1 acq_rel, align 4
  br label %20

17:                                               ; preds = %12
  %18 = load i32, i32* %14, align 8, !tbaa !7
  %19 = add nsw i32 %18, -1
  store i32 %19, i32* %14, align 8, !tbaa !7
  br label %20

20:                                               ; preds = %17, %15
  %21 = phi i32 [ %16, %15 ], [ %18, %17 ]
  %22 = icmp slt i32 %21, 1
  br i1 %22, label %23, label %24

23:                                               ; preds = %20
  call void @_ZNSs4_Rep10_M_destroyERKSaIcE(%"struct.std::basic_string<char>::_Rep"* nonnull align 8 dereferenceable(24) %9, %"class.std::allocator.0"* nonnull align 1 dereferenceable(1) %5) #26
  br label %24

24:                                               ; preds = %1, %20, %23
  call void @llvm.lifetime.end.p0i8(i64 1, i8* nonnull %10) #26
  %25 = getelementptr inbounds %"struct.appsdk::Option", %"struct.appsdk::Option"* %0, i64 0, i32 2, i32 0, i32 0
  %26 = load i8*, i8** %25, align 8, !tbaa !16
  %27 = getelementptr inbounds i8, i8* %26, i64 -24
  %28 = bitcast i8* %27 to %"struct.std::basic_string<char>::_Rep"*
  %29 = getelementptr inbounds %"class.std::allocator.0", %"class.std::allocator.0"* %4, i64 0, i32 0
  call void @llvm.lifetime.start.p0i8(i64 1, i8* nonnull %29) #26
  %30 = icmp eq i8* %27, bitcast ([0 x i64]* @_ZNSs4_Rep20_S_empty_rep_storageE to i8*)
  br i1 %30, label %43, label %31, !prof !19

31:                                               ; preds = %24
  %32 = getelementptr inbounds i8, i8* %26, i64 -8
  %33 = bitcast i8* %32 to i32*
  br i1 icmp ne (i8* bitcast (i32 (i32*, void (i8*)*)* @__pthread_key_create to i8*), i8* null), label %34, label %36

34:                                               ; preds = %31
  %35 = atomicrmw volatile add i32* %33, i32 -1 acq_rel, align 4
  br label %39

36:                                               ; preds = %31
  %37 = load i32, i32* %33, align 8, !tbaa !7
  %38 = add nsw i32 %37, -1
  store i32 %38, i32* %33, align 8, !tbaa !7
  br label %39

39:                                               ; preds = %36, %34
  %40 = phi i32 [ %35, %34 ], [ %37, %36 ]
  %41 = icmp slt i32 %40, 1
  br i1 %41, label %42, label %43

42:                                               ; preds = %39
  call void @_ZNSs4_Rep10_M_destroyERKSaIcE(%"struct.std::basic_string<char>::_Rep"* nonnull align 8 dereferenceable(24) %28, %"class.std::allocator.0"* nonnull align 1 dereferenceable(1) %4) #26
  br label %43

43:                                               ; preds = %24, %39, %42
  call void @llvm.lifetime.end.p0i8(i64 1, i8* nonnull %29) #26
  %44 = getelementptr inbounds %"struct.appsdk::Option", %"struct.appsdk::Option"* %0, i64 0, i32 1, i32 0, i32 0
  %45 = load i8*, i8** %44, align 8, !tbaa !16
  %46 = getelementptr inbounds i8, i8* %45, i64 -24
  %47 = bitcast i8* %46 to %"struct.std::basic_string<char>::_Rep"*
  %48 = getelementptr inbounds %"class.std::allocator.0", %"class.std::allocator.0"* %3, i64 0, i32 0
  call void @llvm.lifetime.start.p0i8(i64 1, i8* nonnull %48) #26
  %49 = icmp eq i8* %46, bitcast ([0 x i64]* @_ZNSs4_Rep20_S_empty_rep_storageE to i8*)
  br i1 %49, label %62, label %50, !prof !19

50:                                               ; preds = %43
  %51 = getelementptr inbounds i8, i8* %45, i64 -8
  %52 = bitcast i8* %51 to i32*
  br i1 icmp ne (i8* bitcast (i32 (i32*, void (i8*)*)* @__pthread_key_create to i8*), i8* null), label %53, label %55

53:                                               ; preds = %50
  %54 = atomicrmw volatile add i32* %52, i32 -1 acq_rel, align 4
  br label %58

55:                                               ; preds = %50
  %56 = load i32, i32* %52, align 8, !tbaa !7
  %57 = add nsw i32 %56, -1
  store i32 %57, i32* %52, align 8, !tbaa !7
  br label %58

58:                                               ; preds = %55, %53
  %59 = phi i32 [ %54, %53 ], [ %56, %55 ]
  %60 = icmp slt i32 %59, 1
  br i1 %60, label %61, label %62

61:                                               ; preds = %58
  call void @_ZNSs4_Rep10_M_destroyERKSaIcE(%"struct.std::basic_string<char>::_Rep"* nonnull align 8 dereferenceable(24) %47, %"class.std::allocator.0"* nonnull align 1 dereferenceable(1) %3) #26
  br label %62

62:                                               ; preds = %43, %58, %61
  call void @llvm.lifetime.end.p0i8(i64 1, i8* nonnull %48) #26
  %63 = getelementptr inbounds %"struct.appsdk::Option", %"struct.appsdk::Option"* %0, i64 0, i32 0, i32 0, i32 0
  %64 = load i8*, i8** %63, align 8, !tbaa !16
  %65 = getelementptr inbounds i8, i8* %64, i64 -24
  %66 = bitcast i8* %65 to %"struct.std::basic_string<char>::_Rep"*
  %67 = getelementptr inbounds %"class.std::allocator.0", %"class.std::allocator.0"* %2, i64 0, i32 0
  call void @llvm.lifetime.start.p0i8(i64 1, i8* nonnull %67) #26
  %68 = icmp eq i8* %65, bitcast ([0 x i64]* @_ZNSs4_Rep20_S_empty_rep_storageE to i8*)
  br i1 %68, label %81, label %69, !prof !19

69:                                               ; preds = %62
  %70 = getelementptr inbounds i8, i8* %64, i64 -8
  %71 = bitcast i8* %70 to i32*
  br i1 icmp ne (i8* bitcast (i32 (i32*, void (i8*)*)* @__pthread_key_create to i8*), i8* null), label %72, label %74

72:                                               ; preds = %69
  %73 = atomicrmw volatile add i32* %71, i32 -1 acq_rel, align 4
  br label %77

74:                                               ; preds = %69
  %75 = load i32, i32* %71, align 8, !tbaa !7
  %76 = add nsw i32 %75, -1
  store i32 %76, i32* %71, align 8, !tbaa !7
  br label %77

77:                                               ; preds = %74, %72
  %78 = phi i32 [ %73, %72 ], [ %75, %74 ]
  %79 = icmp slt i32 %78, 1
  br i1 %79, label %80, label %81

80:                                               ; preds = %77
  call void @_ZNSs4_Rep10_M_destroyERKSaIcE(%"struct.std::basic_string<char>::_Rep"* nonnull align 8 dereferenceable(24) %66, %"class.std::allocator.0"* nonnull align 1 dereferenceable(1) %2) #26
  br label %81

81:                                               ; preds = %62, %77, %80
  call void @llvm.lifetime.end.p0i8(i64 1, i8* nonnull %67) #26
  ret void
}

; Function Attrs: uwtable
define dso_local i32 @_ZN20MatrixMultiplication5setupEv(%class.MatrixMultiplication* nocapture nonnull align 8 dereferenceable(200) %0) local_unnamed_addr #5 align 2 personality i32 (...)* @__gxx_personality_v0 {
  %2 = alloca %"class.std::allocator.0", align 1
  %3 = alloca %"class.std::basic_string", align 8
  %4 = alloca %"class.std::allocator.0", align 1
  %5 = getelementptr inbounds %class.MatrixMultiplication, %class.MatrixMultiplication* %0, i64 0, i32 17
  %6 = load i32, i32* %5, align 4, !tbaa !62
  %7 = icmp eq i32 %6, 0
  br i1 %7, label %16, label %8

8:                                                ; preds = %1
  %9 = getelementptr inbounds %class.MatrixMultiplication, %class.MatrixMultiplication* %0, i64 0, i32 18
  %10 = load i32, i32* %9, align 8, !tbaa !63
  %11 = icmp eq i32 %10, 0
  br i1 %11, label %16, label %12

12:                                               ; preds = %8
  %13 = getelementptr inbounds %class.MatrixMultiplication, %class.MatrixMultiplication* %0, i64 0, i32 19
  %14 = load i32, i32* %13, align 4, !tbaa !64
  %15 = icmp eq i32 %14, 0
  br i1 %15, label %16, label %45

16:                                               ; preds = %12, %8, %1
  %17 = tail call nonnull align 8 dereferenceable(8) %"class.std::basic_ostream"* @_ZSt16__ostream_insertIcSt11char_traitsIcEERSt13basic_ostreamIT_T0_ES6_PKS3_l(%"class.std::basic_ostream"* nonnull align 8 dereferenceable(8) @_ZSt4cout, i8* nonnull getelementptr inbounds ([38 x i8], [38 x i8]* @.str.29, i64 0, i64 0), i64 37)
  %18 = load i8*, i8** bitcast (%"class.std::basic_ostream"* @_ZSt4cout to i8**), align 8, !tbaa !20
  %19 = getelementptr i8, i8* %18, i64 -24
  %20 = bitcast i8* %19 to i64*
  %21 = load i64, i64* %20, align 8
  %22 = getelementptr inbounds i8, i8* bitcast (%"class.std::basic_ostream"* @_ZSt4cout to i8*), i64 %21
  %23 = getelementptr inbounds i8, i8* %22, i64 240
  %24 = bitcast i8* %23 to %"class.std::ctype"**
  %25 = load %"class.std::ctype"*, %"class.std::ctype"** %24, align 8, !tbaa !22
  %26 = icmp eq %"class.std::ctype"* %25, null
  br i1 %26, label %27, label %28

27:                                               ; preds = %16
  tail call void @_ZSt16__throw_bad_castv() #27
  unreachable

28:                                               ; preds = %16
  %29 = getelementptr inbounds %"class.std::ctype", %"class.std::ctype"* %25, i64 0, i32 8
  %30 = load i8, i8* %29, align 8, !tbaa !24
  %31 = icmp eq i8 %30, 0
  br i1 %31, label %35, label %32

32:                                               ; preds = %28
  %33 = getelementptr inbounds %"class.std::ctype", %"class.std::ctype"* %25, i64 0, i32 9, i64 10
  %34 = load i8, i8* %33, align 1, !tbaa !26
  br label %41

35:                                               ; preds = %28
  tail call void @_ZNKSt5ctypeIcE13_M_widen_initEv(%"class.std::ctype"* nonnull align 8 dereferenceable(570) %25)
  %36 = bitcast %"class.std::ctype"* %25 to i8 (%"class.std::ctype"*, i8)***
  %37 = load i8 (%"class.std::ctype"*, i8)**, i8 (%"class.std::ctype"*, i8)*** %36, align 8, !tbaa !20
  %38 = getelementptr inbounds i8 (%"class.std::ctype"*, i8)*, i8 (%"class.std::ctype"*, i8)** %37, i64 6
  %39 = load i8 (%"class.std::ctype"*, i8)*, i8 (%"class.std::ctype"*, i8)** %38, align 8
  %40 = tail call signext i8 %39(%"class.std::ctype"* nonnull align 8 dereferenceable(570) %25, i8 signext 10)
  br label %41

41:                                               ; preds = %32, %35
  %42 = phi i8 [ %34, %32 ], [ %40, %35 ]
  %43 = tail call nonnull align 8 dereferenceable(8) %"class.std::basic_ostream"* @_ZNSo3putEc(%"class.std::basic_ostream"* nonnull align 8 dereferenceable(8) @_ZSt4cout, i8 signext %42)
  %44 = tail call nonnull align 8 dereferenceable(8) %"class.std::basic_ostream"* @_ZNSo5flushEv(%"class.std::basic_ostream"* nonnull align 8 dereferenceable(8) %43)
  br label %133

45:                                               ; preds = %12
  %46 = getelementptr inbounds %class.MatrixMultiplication, %class.MatrixMultiplication* %0, i64 0, i32 12
  %47 = load i32, i32* %46, align 8, !tbaa !50
  %48 = shl i32 %47, 2
  %49 = urem i32 %6, %48
  %50 = udiv i32 %6, %48
  %51 = icmp eq i32 %49, 0
  br i1 %51, label %55, label %52

52:                                               ; preds = %45
  %53 = add i32 %50, 1
  %54 = mul i32 %53, %48
  store i32 %54, i32* %5, align 4, !tbaa !62
  br label %55

55:                                               ; preds = %52, %45
  %56 = phi i32 [ %54, %52 ], [ %6, %45 ]
  %57 = urem i32 %10, %48
  %58 = udiv i32 %10, %48
  %59 = icmp eq i32 %57, 0
  br i1 %59, label %63, label %60

60:                                               ; preds = %55
  %61 = add i32 %58, 1
  %62 = mul i32 %61, %48
  store i32 %62, i32* %9, align 8, !tbaa !63
  br label %63

63:                                               ; preds = %60, %55
  %64 = phi i32 [ %62, %60 ], [ %10, %55 ]
  %65 = urem i32 %14, %48
  %66 = udiv i32 %14, %48
  %67 = icmp eq i32 %65, 0
  br i1 %67, label %71, label %68

68:                                               ; preds = %63
  %69 = add i32 %66, 1
  %70 = mul i32 %69, %48
  store i32 %70, i32* %13, align 4, !tbaa !64
  br label %71

71:                                               ; preds = %68, %63
  %72 = phi i32 [ %70, %68 ], [ %14, %63 ]
  %73 = getelementptr inbounds %class.MatrixMultiplication, %class.MatrixMultiplication* %0, i64 0, i32 5
  store i32 %64, i32* %73, align 8, !tbaa !9
  %74 = getelementptr inbounds %class.MatrixMultiplication, %class.MatrixMultiplication* %0, i64 0, i32 6
  store i32 %56, i32* %74, align 4, !tbaa !14
  %75 = getelementptr inbounds %class.MatrixMultiplication, %class.MatrixMultiplication* %0, i64 0, i32 8
  store i32 %72, i32* %75, align 8, !tbaa !27
  %76 = getelementptr inbounds %class.MatrixMultiplication, %class.MatrixMultiplication* %0, i64 0, i32 9
  store i32 %64, i32* %76, align 4, !tbaa !28
  %77 = tail call i32 @_ZN20MatrixMultiplication25setupMatrixMultiplicationEv(%class.MatrixMultiplication* nonnull align 8 dereferenceable(200) %0)
  %78 = icmp eq i32 %77, 0
  br i1 %78, label %79, label %133

79:                                               ; preds = %71
  %80 = getelementptr inbounds %class.MatrixMultiplication, %class.MatrixMultiplication* %0, i64 0, i32 26
  %81 = load %"class.appsdk::SDKTimer"*, %"class.appsdk::SDKTimer"** %80, align 8, !tbaa !65
  %82 = tail call i32 @_ZN6appsdk8SDKTimer11createTimerEv(%"class.appsdk::SDKTimer"* nonnull align 8 dereferenceable(32) %81)
  %83 = load %"class.appsdk::SDKTimer"*, %"class.appsdk::SDKTimer"** %80, align 8, !tbaa !65
  %84 = bitcast %"class.std::basic_string"* %3 to i8*
  call void @llvm.lifetime.start.p0i8(i64 8, i8* nonnull %84)
  %85 = getelementptr inbounds %"class.appsdk::SDKTimer", %"class.appsdk::SDKTimer"* %83, i64 0, i32 0, i32 0, i32 0, i32 1
  %86 = load %"struct.appsdk::SDKTimer::Timer"**, %"struct.appsdk::SDKTimer::Timer"*** %85, align 8, !tbaa !66
  %87 = getelementptr inbounds %"class.appsdk::SDKTimer", %"class.appsdk::SDKTimer"* %83, i64 0, i32 0, i32 0, i32 0, i32 0
  %88 = load %"struct.appsdk::SDKTimer::Timer"**, %"struct.appsdk::SDKTimer::Timer"*** %87, align 8, !tbaa !69
  %89 = ptrtoint %"struct.appsdk::SDKTimer::Timer"** %86 to i64
  %90 = ptrtoint %"struct.appsdk::SDKTimer::Timer"** %88 to i64
  %91 = sub i64 %89, %90
  %92 = lshr exact i64 %91, 3
  %93 = trunc i64 %92 to i32
  %94 = icmp slt i32 %82, %93
  br i1 %94, label %119, label %95

95:                                               ; preds = %79
  %96 = getelementptr inbounds %"class.std::allocator.0", %"class.std::allocator.0"* %4, i64 0, i32 0
  call void @llvm.lifetime.start.p0i8(i64 1, i8* nonnull %96) #26
  call void @_ZNSsC1EPKcRKSaIcE(%"class.std::basic_string"* nonnull align 8 dereferenceable(8) %3, i8* getelementptr inbounds ([36 x i8], [36 x i8]* @.str.64, i64 0, i64 0), %"class.std::allocator.0"* nonnull align 1 dereferenceable(1) %4)
  invoke fastcc void @_ZN6appsdkL9sdk_errorESs(%"class.std::basic_string"* nonnull %3)
          to label %97 unwind label %117

97:                                               ; preds = %95
  %98 = getelementptr inbounds %"class.std::basic_string", %"class.std::basic_string"* %3, i64 0, i32 0, i32 0
  %99 = load i8*, i8** %98, align 8, !tbaa !16
  %100 = getelementptr inbounds i8, i8* %99, i64 -24
  %101 = bitcast i8* %100 to %"struct.std::basic_string<char>::_Rep"*
  %102 = getelementptr inbounds %"class.std::allocator.0", %"class.std::allocator.0"* %2, i64 0, i32 0
  call void @llvm.lifetime.start.p0i8(i64 1, i8* nonnull %102) #26
  %103 = icmp eq i8* %100, bitcast ([0 x i64]* @_ZNSs4_Rep20_S_empty_rep_storageE to i8*)
  br i1 %103, label %116, label %104, !prof !19

104:                                              ; preds = %97
  %105 = getelementptr inbounds i8, i8* %99, i64 -8
  %106 = bitcast i8* %105 to i32*
  br i1 icmp ne (i8* bitcast (i32 (i32*, void (i8*)*)* @__pthread_key_create to i8*), i8* null), label %107, label %109

107:                                              ; preds = %104
  %108 = atomicrmw volatile add i32* %106, i32 -1 acq_rel, align 4
  br label %112

109:                                              ; preds = %104
  %110 = load i32, i32* %106, align 8, !tbaa !7
  %111 = add nsw i32 %110, -1
  store i32 %111, i32* %106, align 8, !tbaa !7
  br label %112

112:                                              ; preds = %109, %107
  %113 = phi i32 [ %108, %107 ], [ %110, %109 ]
  %114 = icmp slt i32 %113, 1
  br i1 %114, label %115, label %116

115:                                              ; preds = %112
  call void @_ZNSs4_Rep10_M_destroyERKSaIcE(%"struct.std::basic_string<char>::_Rep"* nonnull align 8 dereferenceable(24) %101, %"class.std::allocator.0"* nonnull align 1 dereferenceable(1) %2) #26
  br label %116

116:                                              ; preds = %115, %112, %97
  call void @llvm.lifetime.end.p0i8(i64 1, i8* nonnull %102) #26
  call void @llvm.lifetime.end.p0i8(i64 1, i8* nonnull %96) #26
  br label %125

117:                                              ; preds = %95
  %118 = landingpad { i8*, i32 }
          cleanup
  call void @_ZNSsD2Ev(%"class.std::basic_string"* nonnull align 8 dereferenceable(8) %3) #26
  call void @llvm.lifetime.end.p0i8(i64 1, i8* nonnull %96) #26
  resume { i8*, i32 } %118

119:                                              ; preds = %79
  %120 = sext i32 %82 to i64
  %121 = getelementptr inbounds %"struct.appsdk::SDKTimer::Timer"*, %"struct.appsdk::SDKTimer::Timer"** %88, i64 %120
  %122 = load %"struct.appsdk::SDKTimer::Timer"*, %"struct.appsdk::SDKTimer::Timer"** %121, align 8, !tbaa !3
  %123 = getelementptr inbounds %"struct.appsdk::SDKTimer::Timer", %"struct.appsdk::SDKTimer::Timer"* %122, i64 0, i32 2
  %124 = bitcast i64* %123 to i8*
  tail call void @llvm.memset.p0i8.i64(i8* noundef nonnull align 8 dereferenceable(16) %124, i8 0, i64 16, i1 false)
  br label %125

125:                                              ; preds = %116, %119
  call void @llvm.lifetime.end.p0i8(i64 8, i8* nonnull %84)
  %126 = load %"class.appsdk::SDKTimer"*, %"class.appsdk::SDKTimer"** %80, align 8, !tbaa !65
  %127 = call i32 @_ZN6appsdk8SDKTimer10startTimerEi(%"class.appsdk::SDKTimer"* nonnull align 8 dereferenceable(32) %126, i32 %82)
  %128 = load %"class.appsdk::SDKTimer"*, %"class.appsdk::SDKTimer"** %80, align 8, !tbaa !65
  %129 = call i32 @_ZN6appsdk8SDKTimer9stopTimerEi(%"class.appsdk::SDKTimer"* nonnull align 8 dereferenceable(32) %128, i32 %82)
  %130 = load %"class.appsdk::SDKTimer"*, %"class.appsdk::SDKTimer"** %80, align 8, !tbaa !65
  %131 = call contract double @_ZN6appsdk8SDKTimer9readTimerEi(%"class.appsdk::SDKTimer"* nonnull align 8 dereferenceable(32) %130, i32 %82)
  %132 = getelementptr inbounds %class.MatrixMultiplication, %class.MatrixMultiplication* %0, i64 0, i32 1
  store double %131, double* %132, align 8, !tbaa !70
  br label %133

133:                                              ; preds = %125, %71, %41
  %134 = phi i32 [ 1, %41 ], [ 0, %125 ], [ 1, %71 ]
  ret i32 %134
}

; Function Attrs: uwtable
define linkonce_odr dso_local i32 @_ZN6appsdk8SDKTimer11createTimerEv(%"class.appsdk::SDKTimer"* nonnull align 8 dereferenceable(32) %0) local_unnamed_addr #5 comdat align 2 personality i8* bitcast (i32 (...)* @__gxx_personality_v0 to i8*) {
  %2 = tail call noalias nonnull dereferenceable(32) i8* @_Znwm(i64 32) #28
  %3 = bitcast i8* %2 to %"struct.appsdk::SDKTimer::Timer"*
  %4 = getelementptr inbounds %"struct.appsdk::SDKTimer::Timer", %"struct.appsdk::SDKTimer::Timer"* %3, i64 0, i32 0, i32 0, i32 0
  store i8* bitcast (i64* getelementptr inbounds ([0 x i64], [0 x i64]* @_ZNSs4_Rep20_S_empty_rep_storageE, i64 0, i64 3) to i8*), i8** %4, align 8, !tbaa !54
  %5 = getelementptr inbounds %"struct.appsdk::SDKTimer::Timer", %"struct.appsdk::SDKTimer::Timer"* %3, i64 0, i32 2
  %6 = getelementptr inbounds %"struct.appsdk::SDKTimer::Timer", %"struct.appsdk::SDKTimer::Timer"* %3, i64 0, i32 1
  %7 = bitcast i64* %5 to i8*
  call void @llvm.memset.p0i8.i64(i8* noundef nonnull align 8 dereferenceable(16) %7, i8 0, i64 16, i1 false)
  store i64 1000, i64* %6, align 8, !tbaa !71
  %8 = getelementptr inbounds %"class.appsdk::SDKTimer", %"class.appsdk::SDKTimer"* %0, i64 0, i32 0, i32 0, i32 0, i32 1
  %9 = load %"struct.appsdk::SDKTimer::Timer"**, %"struct.appsdk::SDKTimer::Timer"*** %8, align 8, !tbaa !66
  %10 = getelementptr inbounds %"class.appsdk::SDKTimer", %"class.appsdk::SDKTimer"* %0, i64 0, i32 0, i32 0, i32 0, i32 2
  %11 = load %"struct.appsdk::SDKTimer::Timer"**, %"struct.appsdk::SDKTimer::Timer"*** %10, align 8, !tbaa !74
  %12 = icmp eq %"struct.appsdk::SDKTimer::Timer"** %9, %11
  br i1 %12, label %19, label %13

13:                                               ; preds = %1
  %14 = bitcast %"struct.appsdk::SDKTimer::Timer"** %9 to i8**
  store i8* %2, i8** %14, align 8, !tbaa !3
  %15 = load %"struct.appsdk::SDKTimer::Timer"**, %"struct.appsdk::SDKTimer::Timer"*** %8, align 8, !tbaa !66
  %16 = getelementptr inbounds %"struct.appsdk::SDKTimer::Timer"*, %"struct.appsdk::SDKTimer::Timer"** %15, i64 1
  store %"struct.appsdk::SDKTimer::Timer"** %16, %"struct.appsdk::SDKTimer::Timer"*** %8, align 8, !tbaa !66
  %17 = getelementptr inbounds %"class.appsdk::SDKTimer", %"class.appsdk::SDKTimer"* %0, i64 0, i32 0, i32 0, i32 0, i32 0
  %18 = load %"struct.appsdk::SDKTimer::Timer"**, %"struct.appsdk::SDKTimer::Timer"*** %17, align 8, !tbaa !69
  br label %70

19:                                               ; preds = %1
  %20 = getelementptr inbounds %"class.appsdk::SDKTimer", %"class.appsdk::SDKTimer"* %0, i64 0, i32 0, i32 0, i32 0, i32 0
  %21 = load %"struct.appsdk::SDKTimer::Timer"**, %"struct.appsdk::SDKTimer::Timer"*** %20, align 8, !tbaa !69
  %22 = ptrtoint %"struct.appsdk::SDKTimer::Timer"** %9 to i64
  %23 = ptrtoint %"struct.appsdk::SDKTimer::Timer"** %21 to i64
  %24 = sub i64 %22, %23
  %25 = ashr exact i64 %24, 3
  %26 = icmp eq i64 %24, 0
  %27 = select i1 %26, i64 1, i64 %25
  %28 = add nsw i64 %27, %25
  %29 = icmp ult i64 %28, %25
  %30 = icmp ugt i64 %28, 2305843009213693951
  %31 = or i1 %29, %30
  %32 = select i1 %31, i64 2305843009213693951, i64 %28
  %33 = icmp eq i64 %32, 0
  br i1 %33, label %41, label %34

34:                                               ; preds = %19
  %35 = shl nuw i64 %32, 3
  %36 = tail call noalias nonnull i8* @_Znwm(i64 %35) #30
  %37 = bitcast i8* %36 to %"struct.appsdk::SDKTimer::Timer"**
  %38 = load %"struct.appsdk::SDKTimer::Timer"**, %"struct.appsdk::SDKTimer::Timer"*** %20, align 8, !tbaa !69
  %39 = ptrtoint %"struct.appsdk::SDKTimer::Timer"** %38 to i64
  %40 = sub i64 %22, %39
  br label %41

41:                                               ; preds = %34, %19
  %42 = phi i64 [ %40, %34 ], [ %24, %19 ]
  %43 = phi %"struct.appsdk::SDKTimer::Timer"** [ %38, %34 ], [ %21, %19 ]
  %44 = phi %"struct.appsdk::SDKTimer::Timer"** [ %37, %34 ], [ null, %19 ]
  %45 = getelementptr inbounds %"struct.appsdk::SDKTimer::Timer"*, %"struct.appsdk::SDKTimer::Timer"** %44, i64 %25
  %46 = bitcast %"struct.appsdk::SDKTimer::Timer"** %45 to i8**
  store i8* %2, i8** %46, align 8, !tbaa !3
  %47 = icmp eq i64 %42, 0
  br i1 %47, label %51, label %48

48:                                               ; preds = %41
  %49 = bitcast %"struct.appsdk::SDKTimer::Timer"** %44 to i8*
  %50 = bitcast %"struct.appsdk::SDKTimer::Timer"** %43 to i8*
  tail call void @llvm.memmove.p0i8.p0i8.i64(i8* align 8 %49, i8* align 8 %50, i64 %42, i1 false) #26
  br label %51

51:                                               ; preds = %48, %41
  %52 = ashr exact i64 %42, 3
  %53 = getelementptr inbounds %"struct.appsdk::SDKTimer::Timer"*, %"struct.appsdk::SDKTimer::Timer"** %44, i64 %52
  %54 = getelementptr inbounds %"struct.appsdk::SDKTimer::Timer"*, %"struct.appsdk::SDKTimer::Timer"** %53, i64 1
  %55 = load %"struct.appsdk::SDKTimer::Timer"**, %"struct.appsdk::SDKTimer::Timer"*** %8, align 8, !tbaa !66
  %56 = ptrtoint %"struct.appsdk::SDKTimer::Timer"** %55 to i64
  %57 = sub i64 %56, %22
  %58 = icmp eq i64 %57, 0
  br i1 %58, label %62, label %59

59:                                               ; preds = %51
  %60 = bitcast %"struct.appsdk::SDKTimer::Timer"** %54 to i8*
  %61 = bitcast %"struct.appsdk::SDKTimer::Timer"** %9 to i8*
  tail call void @llvm.memmove.p0i8.p0i8.i64(i8* nonnull align 8 %60, i8* align 8 %61, i64 %57, i1 false) #26
  br label %62

62:                                               ; preds = %59, %51
  %63 = icmp eq %"struct.appsdk::SDKTimer::Timer"** %43, null
  br i1 %63, label %66, label %64

64:                                               ; preds = %62
  %65 = bitcast %"struct.appsdk::SDKTimer::Timer"** %43 to i8*
  tail call void @_ZdlPv(i8* nonnull %65) #26
  br label %66

66:                                               ; preds = %64, %62
  %67 = ashr exact i64 %57, 3
  %68 = getelementptr inbounds %"struct.appsdk::SDKTimer::Timer"*, %"struct.appsdk::SDKTimer::Timer"** %54, i64 %67
  store %"struct.appsdk::SDKTimer::Timer"** %44, %"struct.appsdk::SDKTimer::Timer"*** %20, align 8, !tbaa !69
  store %"struct.appsdk::SDKTimer::Timer"** %68, %"struct.appsdk::SDKTimer::Timer"*** %8, align 8, !tbaa !66
  %69 = getelementptr inbounds %"struct.appsdk::SDKTimer::Timer"*, %"struct.appsdk::SDKTimer::Timer"** %44, i64 %32
  store %"struct.appsdk::SDKTimer::Timer"** %69, %"struct.appsdk::SDKTimer::Timer"*** %10, align 8, !tbaa !74
  br label %70

70:                                               ; preds = %13, %66
  %71 = phi %"struct.appsdk::SDKTimer::Timer"** [ %18, %13 ], [ %44, %66 ]
  %72 = phi %"struct.appsdk::SDKTimer::Timer"** [ %16, %13 ], [ %68, %66 ]
  %73 = ptrtoint %"struct.appsdk::SDKTimer::Timer"** %72 to i64
  %74 = ptrtoint %"struct.appsdk::SDKTimer::Timer"** %71 to i64
  %75 = sub i64 %73, %74
  %76 = lshr exact i64 %75, 3
  %77 = trunc i64 %76 to i32
  %78 = add i32 %77, -1
  ret i32 %78
}

; Function Attrs: uwtable
define linkonce_odr dso_local i32 @_ZN6appsdk8SDKTimer10startTimerEi(%"class.appsdk::SDKTimer"* nonnull align 8 dereferenceable(32) %0, i32 %1) local_unnamed_addr #5 comdat align 2 personality i8* bitcast (i32 (...)* @__gxx_personality_v0 to i8*) {
  %3 = alloca %"class.std::allocator.0", align 1
  %4 = alloca %"class.std::basic_string", align 8
  %5 = alloca %"class.std::allocator.0", align 1
  %6 = alloca %struct.timeval, align 8
  %7 = getelementptr inbounds %"class.appsdk::SDKTimer", %"class.appsdk::SDKTimer"* %0, i64 0, i32 0, i32 0, i32 0, i32 1
  %8 = load %"struct.appsdk::SDKTimer::Timer"**, %"struct.appsdk::SDKTimer::Timer"*** %7, align 8, !tbaa !66
  %9 = getelementptr inbounds %"class.appsdk::SDKTimer", %"class.appsdk::SDKTimer"* %0, i64 0, i32 0, i32 0, i32 0, i32 0
  %10 = load %"struct.appsdk::SDKTimer::Timer"**, %"struct.appsdk::SDKTimer::Timer"*** %9, align 8, !tbaa !69
  %11 = ptrtoint %"struct.appsdk::SDKTimer::Timer"** %8 to i64
  %12 = ptrtoint %"struct.appsdk::SDKTimer::Timer"** %10 to i64
  %13 = sub i64 %11, %12
  %14 = lshr exact i64 %13, 3
  %15 = trunc i64 %14 to i32
  %16 = icmp sgt i32 %15, %1
  br i1 %16, label %41, label %17

17:                                               ; preds = %2
  %18 = getelementptr inbounds %"class.std::allocator.0", %"class.std::allocator.0"* %5, i64 0, i32 0
  call void @llvm.lifetime.start.p0i8(i64 1, i8* nonnull %18) #26
  call void @_ZNSsC1EPKcRKSaIcE(%"class.std::basic_string"* nonnull align 8 dereferenceable(8) %4, i8* getelementptr inbounds ([36 x i8], [36 x i8]* @.str.64, i64 0, i64 0), %"class.std::allocator.0"* nonnull align 1 dereferenceable(1) %5)
  invoke fastcc void @_ZN6appsdkL9sdk_errorESs(%"class.std::basic_string"* nonnull %4)
          to label %19 unwind label %39

19:                                               ; preds = %17
  %20 = getelementptr inbounds %"class.std::basic_string", %"class.std::basic_string"* %4, i64 0, i32 0, i32 0
  %21 = load i8*, i8** %20, align 8, !tbaa !16
  %22 = getelementptr inbounds i8, i8* %21, i64 -24
  %23 = bitcast i8* %22 to %"struct.std::basic_string<char>::_Rep"*
  %24 = getelementptr inbounds %"class.std::allocator.0", %"class.std::allocator.0"* %3, i64 0, i32 0
  call void @llvm.lifetime.start.p0i8(i64 1, i8* nonnull %24) #26
  %25 = icmp eq i8* %22, bitcast ([0 x i64]* @_ZNSs4_Rep20_S_empty_rep_storageE to i8*)
  br i1 %25, label %38, label %26, !prof !19

26:                                               ; preds = %19
  %27 = getelementptr inbounds i8, i8* %21, i64 -8
  %28 = bitcast i8* %27 to i32*
  br i1 icmp ne (i8* bitcast (i32 (i32*, void (i8*)*)* @__pthread_key_create to i8*), i8* null), label %29, label %31

29:                                               ; preds = %26
  %30 = atomicrmw volatile add i32* %28, i32 -1 acq_rel, align 4
  br label %34

31:                                               ; preds = %26
  %32 = load i32, i32* %28, align 8, !tbaa !7
  %33 = add nsw i32 %32, -1
  store i32 %33, i32* %28, align 8, !tbaa !7
  br label %34

34:                                               ; preds = %31, %29
  %35 = phi i32 [ %30, %29 ], [ %32, %31 ]
  %36 = icmp slt i32 %35, 1
  br i1 %36, label %37, label %38

37:                                               ; preds = %34
  call void @_ZNSs4_Rep10_M_destroyERKSaIcE(%"struct.std::basic_string<char>::_Rep"* nonnull align 8 dereferenceable(24) %23, %"class.std::allocator.0"* nonnull align 1 dereferenceable(1) %3) #26
  br label %38

38:                                               ; preds = %19, %34, %37
  call void @llvm.lifetime.end.p0i8(i64 1, i8* nonnull %24) #26
  call void @llvm.lifetime.end.p0i8(i64 1, i8* nonnull %18) #26
  br label %56

39:                                               ; preds = %17
  %40 = landingpad { i8*, i32 }
          cleanup
  call void @_ZNSsD2Ev(%"class.std::basic_string"* nonnull align 8 dereferenceable(8) %4) #26
  call void @llvm.lifetime.end.p0i8(i64 1, i8* nonnull %18) #26
  resume { i8*, i32 } %40

41:                                               ; preds = %2
  %42 = bitcast %struct.timeval* %6 to i8*
  call void @llvm.lifetime.start.p0i8(i64 16, i8* nonnull %42) #26
  %43 = call i32 @gettimeofday(%struct.timeval* nonnull %6, %struct.timezone* null) #26
  %44 = getelementptr inbounds %struct.timeval, %struct.timeval* %6, i64 0, i32 0
  %45 = load i64, i64* %44, align 8, !tbaa !75
  %46 = mul nsw i64 %45, 1000
  %47 = getelementptr inbounds %struct.timeval, %struct.timeval* %6, i64 0, i32 1
  %48 = load i64, i64* %47, align 8, !tbaa !77
  %49 = sdiv i64 %48, 1000
  %50 = add nsw i64 %49, %46
  %51 = sext i32 %1 to i64
  %52 = load %"struct.appsdk::SDKTimer::Timer"**, %"struct.appsdk::SDKTimer::Timer"*** %9, align 8, !tbaa !69
  %53 = getelementptr inbounds %"struct.appsdk::SDKTimer::Timer"*, %"struct.appsdk::SDKTimer::Timer"** %52, i64 %51
  %54 = load %"struct.appsdk::SDKTimer::Timer"*, %"struct.appsdk::SDKTimer::Timer"** %53, align 8, !tbaa !3
  %55 = getelementptr inbounds %"struct.appsdk::SDKTimer::Timer", %"struct.appsdk::SDKTimer::Timer"* %54, i64 0, i32 3
  store i64 %50, i64* %55, align 8, !tbaa !78
  call void @llvm.lifetime.end.p0i8(i64 16, i8* nonnull %42) #26
  br label %56

56:                                               ; preds = %41, %38
  %57 = phi i32 [ 1, %38 ], [ 0, %41 ]
  ret i32 %57
}

; Function Attrs: uwtable
define linkonce_odr dso_local i32 @_ZN6appsdk8SDKTimer9stopTimerEi(%"class.appsdk::SDKTimer"* nonnull align 8 dereferenceable(32) %0, i32 %1) local_unnamed_addr #5 comdat align 2 personality i8* bitcast (i32 (...)* @__gxx_personality_v0 to i8*) {
  %3 = alloca %"class.std::allocator.0", align 1
  %4 = alloca %"class.std::basic_string", align 8
  %5 = alloca %"class.std::allocator.0", align 1
  %6 = alloca %struct.timeval, align 8
  %7 = getelementptr inbounds %"class.appsdk::SDKTimer", %"class.appsdk::SDKTimer"* %0, i64 0, i32 0, i32 0, i32 0, i32 1
  %8 = load %"struct.appsdk::SDKTimer::Timer"**, %"struct.appsdk::SDKTimer::Timer"*** %7, align 8, !tbaa !66
  %9 = getelementptr inbounds %"class.appsdk::SDKTimer", %"class.appsdk::SDKTimer"* %0, i64 0, i32 0, i32 0, i32 0, i32 0
  %10 = load %"struct.appsdk::SDKTimer::Timer"**, %"struct.appsdk::SDKTimer::Timer"*** %9, align 8, !tbaa !69
  %11 = ptrtoint %"struct.appsdk::SDKTimer::Timer"** %8 to i64
  %12 = ptrtoint %"struct.appsdk::SDKTimer::Timer"** %10 to i64
  %13 = sub i64 %11, %12
  %14 = lshr exact i64 %13, 3
  %15 = trunc i64 %14 to i32
  %16 = icmp sgt i32 %15, %1
  br i1 %16, label %41, label %17

17:                                               ; preds = %2
  %18 = getelementptr inbounds %"class.std::allocator.0", %"class.std::allocator.0"* %5, i64 0, i32 0
  call void @llvm.lifetime.start.p0i8(i64 1, i8* nonnull %18) #26
  call void @_ZNSsC1EPKcRKSaIcE(%"class.std::basic_string"* nonnull align 8 dereferenceable(8) %4, i8* getelementptr inbounds ([36 x i8], [36 x i8]* @.str.64, i64 0, i64 0), %"class.std::allocator.0"* nonnull align 1 dereferenceable(1) %5)
  invoke fastcc void @_ZN6appsdkL9sdk_errorESs(%"class.std::basic_string"* nonnull %4)
          to label %19 unwind label %39

19:                                               ; preds = %17
  %20 = getelementptr inbounds %"class.std::basic_string", %"class.std::basic_string"* %4, i64 0, i32 0, i32 0
  %21 = load i8*, i8** %20, align 8, !tbaa !16
  %22 = getelementptr inbounds i8, i8* %21, i64 -24
  %23 = bitcast i8* %22 to %"struct.std::basic_string<char>::_Rep"*
  %24 = getelementptr inbounds %"class.std::allocator.0", %"class.std::allocator.0"* %3, i64 0, i32 0
  call void @llvm.lifetime.start.p0i8(i64 1, i8* nonnull %24) #26
  %25 = icmp eq i8* %22, bitcast ([0 x i64]* @_ZNSs4_Rep20_S_empty_rep_storageE to i8*)
  br i1 %25, label %38, label %26, !prof !19

26:                                               ; preds = %19
  %27 = getelementptr inbounds i8, i8* %21, i64 -8
  %28 = bitcast i8* %27 to i32*
  br i1 icmp ne (i8* bitcast (i32 (i32*, void (i8*)*)* @__pthread_key_create to i8*), i8* null), label %29, label %31

29:                                               ; preds = %26
  %30 = atomicrmw volatile add i32* %28, i32 -1 acq_rel, align 4
  br label %34

31:                                               ; preds = %26
  %32 = load i32, i32* %28, align 8, !tbaa !7
  %33 = add nsw i32 %32, -1
  store i32 %33, i32* %28, align 8, !tbaa !7
  br label %34

34:                                               ; preds = %31, %29
  %35 = phi i32 [ %30, %29 ], [ %32, %31 ]
  %36 = icmp slt i32 %35, 1
  br i1 %36, label %37, label %38

37:                                               ; preds = %34
  call void @_ZNSs4_Rep10_M_destroyERKSaIcE(%"struct.std::basic_string<char>::_Rep"* nonnull align 8 dereferenceable(24) %23, %"class.std::allocator.0"* nonnull align 1 dereferenceable(1) %3) #26
  br label %38

38:                                               ; preds = %19, %34, %37
  call void @llvm.lifetime.end.p0i8(i64 1, i8* nonnull %24) #26
  call void @llvm.lifetime.end.p0i8(i64 1, i8* nonnull %18) #26
  br label %61

39:                                               ; preds = %17
  %40 = landingpad { i8*, i32 }
          cleanup
  call void @_ZNSsD2Ev(%"class.std::basic_string"* nonnull align 8 dereferenceable(8) %4) #26
  call void @llvm.lifetime.end.p0i8(i64 1, i8* nonnull %18) #26
  resume { i8*, i32 } %40

41:                                               ; preds = %2
  %42 = bitcast %struct.timeval* %6 to i8*
  call void @llvm.lifetime.start.p0i8(i64 16, i8* nonnull %42) #26
  %43 = call i32 @gettimeofday(%struct.timeval* nonnull %6, %struct.timezone* null) #26
  %44 = getelementptr inbounds %struct.timeval, %struct.timeval* %6, i64 0, i32 0
  %45 = load i64, i64* %44, align 8, !tbaa !75
  %46 = mul nsw i64 %45, 1000
  %47 = getelementptr inbounds %struct.timeval, %struct.timeval* %6, i64 0, i32 1
  %48 = load i64, i64* %47, align 8, !tbaa !77
  %49 = sdiv i64 %48, 1000
  %50 = add nsw i64 %49, %46
  %51 = sext i32 %1 to i64
  %52 = load %"struct.appsdk::SDKTimer::Timer"**, %"struct.appsdk::SDKTimer::Timer"*** %9, align 8, !tbaa !69
  %53 = getelementptr inbounds %"struct.appsdk::SDKTimer::Timer"*, %"struct.appsdk::SDKTimer::Timer"** %52, i64 %51
  %54 = load %"struct.appsdk::SDKTimer::Timer"*, %"struct.appsdk::SDKTimer::Timer"** %53, align 8, !tbaa !3
  %55 = getelementptr inbounds %"struct.appsdk::SDKTimer::Timer", %"struct.appsdk::SDKTimer::Timer"* %54, i64 0, i32 3
  %56 = load i64, i64* %55, align 8, !tbaa !78
  %57 = sub i64 %50, %56
  store i64 0, i64* %55, align 8, !tbaa !78
  %58 = getelementptr inbounds %"struct.appsdk::SDKTimer::Timer", %"struct.appsdk::SDKTimer::Timer"* %54, i64 0, i32 2
  %59 = load i64, i64* %58, align 8, !tbaa !79
  %60 = add nsw i64 %57, %59
  store i64 %60, i64* %58, align 8, !tbaa !79
  call void @llvm.lifetime.end.p0i8(i64 16, i8* nonnull %42) #26
  br label %61

61:                                               ; preds = %41, %38
  %62 = phi i32 [ 1, %38 ], [ 0, %41 ]
  ret i32 %62
}

; Function Attrs: uwtable
define linkonce_odr dso_local double @_ZN6appsdk8SDKTimer9readTimerEi(%"class.appsdk::SDKTimer"* nonnull align 8 dereferenceable(32) %0, i32 %1) local_unnamed_addr #5 comdat align 2 personality i8* bitcast (i32 (...)* @__gxx_personality_v0 to i8*) {
  %3 = alloca %"class.std::allocator.0", align 1
  %4 = alloca %"class.std::basic_string", align 8
  %5 = alloca %"class.std::allocator.0", align 1
  %6 = getelementptr inbounds %"class.appsdk::SDKTimer", %"class.appsdk::SDKTimer"* %0, i64 0, i32 0, i32 0, i32 0, i32 1
  %7 = load %"struct.appsdk::SDKTimer::Timer"**, %"struct.appsdk::SDKTimer::Timer"*** %6, align 8, !tbaa !66
  %8 = getelementptr inbounds %"class.appsdk::SDKTimer", %"class.appsdk::SDKTimer"* %0, i64 0, i32 0, i32 0, i32 0, i32 0
  %9 = load %"struct.appsdk::SDKTimer::Timer"**, %"struct.appsdk::SDKTimer::Timer"*** %8, align 8, !tbaa !69
  %10 = ptrtoint %"struct.appsdk::SDKTimer::Timer"** %7 to i64
  %11 = ptrtoint %"struct.appsdk::SDKTimer::Timer"** %9 to i64
  %12 = sub i64 %10, %11
  %13 = lshr exact i64 %12, 3
  %14 = trunc i64 %13 to i32
  %15 = icmp sgt i32 %14, %1
  br i1 %15, label %40, label %16

16:                                               ; preds = %2
  %17 = getelementptr inbounds %"class.std::allocator.0", %"class.std::allocator.0"* %5, i64 0, i32 0
  call void @llvm.lifetime.start.p0i8(i64 1, i8* nonnull %17) #26
  call void @_ZNSsC1EPKcRKSaIcE(%"class.std::basic_string"* nonnull align 8 dereferenceable(8) %4, i8* getelementptr inbounds ([35 x i8], [35 x i8]* @.str.65, i64 0, i64 0), %"class.std::allocator.0"* nonnull align 1 dereferenceable(1) %5)
  invoke fastcc void @_ZN6appsdkL9sdk_errorESs(%"class.std::basic_string"* nonnull %4)
          to label %18 unwind label %38

18:                                               ; preds = %16
  %19 = getelementptr inbounds %"class.std::basic_string", %"class.std::basic_string"* %4, i64 0, i32 0, i32 0
  %20 = load i8*, i8** %19, align 8, !tbaa !16
  %21 = getelementptr inbounds i8, i8* %20, i64 -24
  %22 = bitcast i8* %21 to %"struct.std::basic_string<char>::_Rep"*
  %23 = getelementptr inbounds %"class.std::allocator.0", %"class.std::allocator.0"* %3, i64 0, i32 0
  call void @llvm.lifetime.start.p0i8(i64 1, i8* nonnull %23) #26
  %24 = icmp eq i8* %21, bitcast ([0 x i64]* @_ZNSs4_Rep20_S_empty_rep_storageE to i8*)
  br i1 %24, label %37, label %25, !prof !19

25:                                               ; preds = %18
  %26 = getelementptr inbounds i8, i8* %20, i64 -8
  %27 = bitcast i8* %26 to i32*
  br i1 icmp ne (i8* bitcast (i32 (i32*, void (i8*)*)* @__pthread_key_create to i8*), i8* null), label %28, label %30

28:                                               ; preds = %25
  %29 = atomicrmw volatile add i32* %27, i32 -1 acq_rel, align 4
  br label %33

30:                                               ; preds = %25
  %31 = load i32, i32* %27, align 8, !tbaa !7
  %32 = add nsw i32 %31, -1
  store i32 %32, i32* %27, align 8, !tbaa !7
  br label %33

33:                                               ; preds = %30, %28
  %34 = phi i32 [ %29, %28 ], [ %31, %30 ]
  %35 = icmp slt i32 %34, 1
  br i1 %35, label %36, label %37

36:                                               ; preds = %33
  call void @_ZNSs4_Rep10_M_destroyERKSaIcE(%"struct.std::basic_string<char>::_Rep"* nonnull align 8 dereferenceable(24) %22, %"class.std::allocator.0"* nonnull align 1 dereferenceable(1) %3) #26
  br label %37

37:                                               ; preds = %18, %33, %36
  call void @llvm.lifetime.end.p0i8(i64 1, i8* nonnull %23) #26
  call void @llvm.lifetime.end.p0i8(i64 1, i8* nonnull %17) #26
  br label %51

38:                                               ; preds = %16
  %39 = landingpad { i8*, i32 }
          cleanup
  call void @_ZNSsD2Ev(%"class.std::basic_string"* nonnull align 8 dereferenceable(8) %4) #26
  call void @llvm.lifetime.end.p0i8(i64 1, i8* nonnull %17) #26
  resume { i8*, i32 } %39

40:                                               ; preds = %2
  %41 = sext i32 %1 to i64
  %42 = getelementptr inbounds %"struct.appsdk::SDKTimer::Timer"*, %"struct.appsdk::SDKTimer::Timer"** %9, i64 %41
  %43 = load %"struct.appsdk::SDKTimer::Timer"*, %"struct.appsdk::SDKTimer::Timer"** %42, align 8, !tbaa !3
  %44 = getelementptr inbounds %"struct.appsdk::SDKTimer::Timer", %"struct.appsdk::SDKTimer::Timer"* %43, i64 0, i32 2
  %45 = load i64, i64* %44, align 8, !tbaa !79
  %46 = sitofp i64 %45 to double
  %47 = getelementptr inbounds %"struct.appsdk::SDKTimer::Timer", %"struct.appsdk::SDKTimer::Timer"* %43, i64 0, i32 1
  %48 = load i64, i64* %47, align 8, !tbaa !71
  %49 = sitofp i64 %48 to double
  %50 = fdiv contract double %46, %49
  br label %51

51:                                               ; preds = %40, %37
  %52 = phi double [ 1.000000e+00, %37 ], [ %50, %40 ]
  ret double %52
}

; Function Attrs: uwtable
define dso_local i32 @_ZN20MatrixMultiplication3runEv(%class.MatrixMultiplication* nonnull align 8 dereferenceable(200) %0) local_unnamed_addr #5 align 2 personality i8* bitcast (i32 (...)* @__gxx_personality_v0 to i8*) {
  %2 = alloca %"class.std::allocator.0", align 1
  %3 = alloca %"class.std::allocator.0", align 1
  %4 = alloca %"class.std::basic_string", align 8
  %5 = alloca %"class.std::allocator.0", align 1
  %6 = alloca %"class.std::basic_string", align 8
  %7 = alloca %"class.std::allocator.0", align 1
  %8 = getelementptr inbounds %class.MatrixMultiplication, %class.MatrixMultiplication* %0, i64 0, i32 24
  %9 = load i32, i32* %8, align 8
  %10 = icmp eq i32 %9, 1
  br i1 %10, label %17, label %11

11:                                               ; preds = %1
  %12 = tail call i32 @_ZN20MatrixMultiplication10runKernelsEv(%class.MatrixMultiplication* nonnull align 8 dereferenceable(200) %0)
  %13 = load i32, i32* %8, align 8
  %14 = icmp eq i32 %13, 1
  br i1 %14, label %17, label %15

15:                                               ; preds = %11
  %16 = tail call i32 @_ZN20MatrixMultiplication10runKernelsEv(%class.MatrixMultiplication* nonnull align 8 dereferenceable(200) %0)
  br label %17

17:                                               ; preds = %11, %15, %1
  %18 = getelementptr inbounds %class.MatrixMultiplication, %class.MatrixMultiplication* %0, i64 0, i32 26
  %19 = load %"class.appsdk::SDKTimer"*, %"class.appsdk::SDKTimer"** %18, align 8, !tbaa !65
  %20 = tail call i32 @_ZN6appsdk8SDKTimer11createTimerEv(%"class.appsdk::SDKTimer"* nonnull align 8 dereferenceable(32) %19)
  %21 = load %"class.appsdk::SDKTimer"*, %"class.appsdk::SDKTimer"** %18, align 8, !tbaa !65
  %22 = bitcast %"class.std::basic_string"* %4 to i8*
  call void @llvm.lifetime.start.p0i8(i64 8, i8* nonnull %22)
  %23 = getelementptr inbounds %"class.appsdk::SDKTimer", %"class.appsdk::SDKTimer"* %21, i64 0, i32 0, i32 0, i32 0, i32 1
  %24 = load %"struct.appsdk::SDKTimer::Timer"**, %"struct.appsdk::SDKTimer::Timer"*** %23, align 8, !tbaa !66
  %25 = getelementptr inbounds %"class.appsdk::SDKTimer", %"class.appsdk::SDKTimer"* %21, i64 0, i32 0, i32 0, i32 0, i32 0
  %26 = load %"struct.appsdk::SDKTimer::Timer"**, %"struct.appsdk::SDKTimer::Timer"*** %25, align 8, !tbaa !69
  %27 = ptrtoint %"struct.appsdk::SDKTimer::Timer"** %24 to i64
  %28 = ptrtoint %"struct.appsdk::SDKTimer::Timer"** %26 to i64
  %29 = sub i64 %27, %28
  %30 = lshr exact i64 %29, 3
  %31 = trunc i64 %30 to i32
  %32 = icmp slt i32 %20, %31
  br i1 %32, label %59, label %33

33:                                               ; preds = %17
  %34 = getelementptr inbounds %"class.std::allocator.0", %"class.std::allocator.0"* %5, i64 0, i32 0
  call void @llvm.lifetime.start.p0i8(i64 1, i8* nonnull %34) #26
  call void @_ZNSsC1EPKcRKSaIcE(%"class.std::basic_string"* nonnull align 8 dereferenceable(8) %4, i8* getelementptr inbounds ([36 x i8], [36 x i8]* @.str.64, i64 0, i64 0), %"class.std::allocator.0"* nonnull align 1 dereferenceable(1) %5)
  invoke fastcc void @_ZN6appsdkL9sdk_errorESs(%"class.std::basic_string"* nonnull %4)
          to label %35 unwind label %57

35:                                               ; preds = %33
  %36 = getelementptr inbounds %"class.std::basic_string", %"class.std::basic_string"* %4, i64 0, i32 0, i32 0
  %37 = load i8*, i8** %36, align 8, !tbaa !16
  %38 = getelementptr inbounds i8, i8* %37, i64 -24
  %39 = bitcast i8* %38 to %"struct.std::basic_string<char>::_Rep"*
  %40 = getelementptr inbounds %"class.std::allocator.0", %"class.std::allocator.0"* %3, i64 0, i32 0
  call void @llvm.lifetime.start.p0i8(i64 1, i8* nonnull %40) #26
  %41 = icmp eq i8* %38, bitcast ([0 x i64]* @_ZNSs4_Rep20_S_empty_rep_storageE to i8*)
  br i1 %41, label %54, label %42, !prof !19

42:                                               ; preds = %35
  %43 = getelementptr inbounds i8, i8* %37, i64 -8
  %44 = bitcast i8* %43 to i32*
  br i1 icmp ne (i8* bitcast (i32 (i32*, void (i8*)*)* @__pthread_key_create to i8*), i8* null), label %45, label %47

45:                                               ; preds = %42
  %46 = atomicrmw volatile add i32* %44, i32 -1 acq_rel, align 4
  br label %50

47:                                               ; preds = %42
  %48 = load i32, i32* %44, align 8, !tbaa !7
  %49 = add nsw i32 %48, -1
  store i32 %49, i32* %44, align 8, !tbaa !7
  br label %50

50:                                               ; preds = %47, %45
  %51 = phi i32 [ %46, %45 ], [ %48, %47 ]
  %52 = icmp slt i32 %51, 1
  br i1 %52, label %53, label %54

53:                                               ; preds = %50
  call void @_ZNSs4_Rep10_M_destroyERKSaIcE(%"struct.std::basic_string<char>::_Rep"* nonnull align 8 dereferenceable(24) %39, %"class.std::allocator.0"* nonnull align 1 dereferenceable(1) %3) #26
  br label %54

54:                                               ; preds = %53, %50, %35
  call void @llvm.lifetime.end.p0i8(i64 1, i8* nonnull %40) #26
  call void @llvm.lifetime.end.p0i8(i64 1, i8* nonnull %34) #26
  br label %65

55:                                               ; preds = %190, %57
  %56 = phi { i8*, i32 } [ %58, %57 ], [ %191, %190 ]
  resume { i8*, i32 } %56

57:                                               ; preds = %33
  %58 = landingpad { i8*, i32 }
          cleanup
  call void @_ZNSsD2Ev(%"class.std::basic_string"* nonnull align 8 dereferenceable(8) %4) #26
  call void @llvm.lifetime.end.p0i8(i64 1, i8* nonnull %34) #26
  br label %55

59:                                               ; preds = %17
  %60 = sext i32 %20 to i64
  %61 = getelementptr inbounds %"struct.appsdk::SDKTimer::Timer"*, %"struct.appsdk::SDKTimer::Timer"** %26, i64 %60
  %62 = load %"struct.appsdk::SDKTimer::Timer"*, %"struct.appsdk::SDKTimer::Timer"** %61, align 8, !tbaa !3
  %63 = getelementptr inbounds %"struct.appsdk::SDKTimer::Timer", %"struct.appsdk::SDKTimer::Timer"* %62, i64 0, i32 2
  %64 = bitcast i64* %63 to i8*
  tail call void @llvm.memset.p0i8.i64(i8* noundef nonnull align 8 dereferenceable(16) %64, i8 0, i64 16, i1 false)
  br label %65

65:                                               ; preds = %54, %59
  call void @llvm.lifetime.end.p0i8(i64 8, i8* nonnull %22)
  %66 = load %"class.appsdk::SDKTimer"*, %"class.appsdk::SDKTimer"** %18, align 8, !tbaa !65
  %67 = call i32 @_ZN6appsdk8SDKTimer10startTimerEi(%"class.appsdk::SDKTimer"* nonnull align 8 dereferenceable(32) %66, i32 %20)
  %68 = call nonnull align 8 dereferenceable(8) %"class.std::basic_ostream"* @_ZSt16__ostream_insertIcSt11char_traitsIcEERSt13basic_ostreamIT_T0_ES6_PKS3_l(%"class.std::basic_ostream"* nonnull align 8 dereferenceable(8) @_ZSt4cout, i8* nonnull getelementptr inbounds ([22 x i8], [22 x i8]* @.str.30, i64 0, i64 0), i64 21)
  %69 = load i32, i32* %8, align 8, !tbaa !80
  %70 = call nonnull align 8 dereferenceable(8) %"class.std::basic_ostream"* @_ZNSolsEi(%"class.std::basic_ostream"* nonnull align 8 dereferenceable(8) @_ZSt4cout, i32 %69)
  %71 = call nonnull align 8 dereferenceable(8) %"class.std::basic_ostream"* @_ZSt16__ostream_insertIcSt11char_traitsIcEERSt13basic_ostreamIT_T0_ES6_PKS3_l(%"class.std::basic_ostream"* nonnull align 8 dereferenceable(8) %70, i8* nonnull getelementptr inbounds ([12 x i8], [12 x i8]* @.str.31, i64 0, i64 0), i64 11)
  %72 = bitcast %"class.std::basic_ostream"* %70 to i8**
  %73 = load i8*, i8** %72, align 8, !tbaa !20
  %74 = getelementptr i8, i8* %73, i64 -24
  %75 = bitcast i8* %74 to i64*
  %76 = load i64, i64* %75, align 8
  %77 = bitcast %"class.std::basic_ostream"* %70 to i8*
  %78 = getelementptr inbounds i8, i8* %77, i64 %76
  %79 = getelementptr inbounds i8, i8* %78, i64 240
  %80 = bitcast i8* %79 to %"class.std::ctype"**
  %81 = load %"class.std::ctype"*, %"class.std::ctype"** %80, align 8, !tbaa !22
  %82 = icmp eq %"class.std::ctype"* %81, null
  br i1 %82, label %83, label %84

83:                                               ; preds = %65
  call void @_ZSt16__throw_bad_castv() #27
  unreachable

84:                                               ; preds = %65
  %85 = getelementptr inbounds %"class.std::ctype", %"class.std::ctype"* %81, i64 0, i32 8
  %86 = load i8, i8* %85, align 8, !tbaa !24
  %87 = icmp eq i8 %86, 0
  br i1 %87, label %91, label %88

88:                                               ; preds = %84
  %89 = getelementptr inbounds %"class.std::ctype", %"class.std::ctype"* %81, i64 0, i32 9, i64 10
  %90 = load i8, i8* %89, align 1, !tbaa !26
  br label %97

91:                                               ; preds = %84
  call void @_ZNKSt5ctypeIcE13_M_widen_initEv(%"class.std::ctype"* nonnull align 8 dereferenceable(570) %81)
  %92 = bitcast %"class.std::ctype"* %81 to i8 (%"class.std::ctype"*, i8)***
  %93 = load i8 (%"class.std::ctype"*, i8)**, i8 (%"class.std::ctype"*, i8)*** %92, align 8, !tbaa !20
  %94 = getelementptr inbounds i8 (%"class.std::ctype"*, i8)*, i8 (%"class.std::ctype"*, i8)** %93, i64 6
  %95 = load i8 (%"class.std::ctype"*, i8)*, i8 (%"class.std::ctype"*, i8)** %94, align 8
  %96 = call signext i8 %95(%"class.std::ctype"* nonnull align 8 dereferenceable(570) %81, i8 signext 10)
  br label %97

97:                                               ; preds = %88, %91
  %98 = phi i8 [ %90, %88 ], [ %96, %91 ]
  %99 = call nonnull align 8 dereferenceable(8) %"class.std::basic_ostream"* @_ZNSo3putEc(%"class.std::basic_ostream"* nonnull align 8 dereferenceable(8) %70, i8 signext %98)
  %100 = call nonnull align 8 dereferenceable(8) %"class.std::basic_ostream"* @_ZNSo5flushEv(%"class.std::basic_ostream"* nonnull align 8 dereferenceable(8) %99)
  %101 = call nonnull align 8 dereferenceable(8) %"class.std::basic_ostream"* @_ZSt16__ostream_insertIcSt11char_traitsIcEERSt13basic_ostreamIT_T0_ES6_PKS3_l(%"class.std::basic_ostream"* nonnull align 8 dereferenceable(8) @_ZSt4cout, i8* nonnull getelementptr inbounds ([44 x i8], [44 x i8]* @.str.32, i64 0, i64 0), i64 43)
  %102 = load i8*, i8** bitcast (%"class.std::basic_ostream"* @_ZSt4cout to i8**), align 8, !tbaa !20
  %103 = getelementptr i8, i8* %102, i64 -24
  %104 = bitcast i8* %103 to i64*
  %105 = load i64, i64* %104, align 8
  %106 = getelementptr inbounds i8, i8* bitcast (%"class.std::basic_ostream"* @_ZSt4cout to i8*), i64 %105
  %107 = getelementptr inbounds i8, i8* %106, i64 240
  %108 = bitcast i8* %107 to %"class.std::ctype"**
  %109 = load %"class.std::ctype"*, %"class.std::ctype"** %108, align 8, !tbaa !22
  %110 = icmp eq %"class.std::ctype"* %109, null
  br i1 %110, label %111, label %112

111:                                              ; preds = %97
  call void @_ZSt16__throw_bad_castv() #27
  unreachable

112:                                              ; preds = %97
  %113 = getelementptr inbounds %"class.std::ctype", %"class.std::ctype"* %109, i64 0, i32 8
  %114 = load i8, i8* %113, align 8, !tbaa !24
  %115 = icmp eq i8 %114, 0
  br i1 %115, label %119, label %116

116:                                              ; preds = %112
  %117 = getelementptr inbounds %"class.std::ctype", %"class.std::ctype"* %109, i64 0, i32 9, i64 10
  %118 = load i8, i8* %117, align 1, !tbaa !26
  br label %125

119:                                              ; preds = %112
  call void @_ZNKSt5ctypeIcE13_M_widen_initEv(%"class.std::ctype"* nonnull align 8 dereferenceable(570) %109)
  %120 = bitcast %"class.std::ctype"* %109 to i8 (%"class.std::ctype"*, i8)***
  %121 = load i8 (%"class.std::ctype"*, i8)**, i8 (%"class.std::ctype"*, i8)*** %120, align 8, !tbaa !20
  %122 = getelementptr inbounds i8 (%"class.std::ctype"*, i8)*, i8 (%"class.std::ctype"*, i8)** %121, i64 6
  %123 = load i8 (%"class.std::ctype"*, i8)*, i8 (%"class.std::ctype"*, i8)** %122, align 8
  %124 = call signext i8 %123(%"class.std::ctype"* nonnull align 8 dereferenceable(570) %109, i8 signext 10)
  br label %125

125:                                              ; preds = %116, %119
  %126 = phi i8 [ %118, %116 ], [ %124, %119 ]
  %127 = call nonnull align 8 dereferenceable(8) %"class.std::basic_ostream"* @_ZNSo3putEc(%"class.std::basic_ostream"* nonnull align 8 dereferenceable(8) @_ZSt4cout, i8 signext %126)
  %128 = call nonnull align 8 dereferenceable(8) %"class.std::basic_ostream"* @_ZNSo5flushEv(%"class.std::basic_ostream"* nonnull align 8 dereferenceable(8) %127)
  %129 = getelementptr inbounds %class.MatrixMultiplication, %class.MatrixMultiplication* %0, i64 0, i32 3
  store double 0.000000e+00, double* %129, align 8, !tbaa !81
  %130 = load i32, i32* %8, align 8, !tbaa !80
  %131 = icmp sgt i32 %130, 0
  br i1 %131, label %132, label %138

132:                                              ; preds = %125, %132
  %133 = phi i32 [ %135, %132 ], [ 0, %125 ]
  %134 = call i32 @_ZN20MatrixMultiplication10runKernelsEv(%class.MatrixMultiplication* nonnull align 8 dereferenceable(200) %0)
  %135 = add nuw nsw i32 %133, 1
  %136 = load i32, i32* %8, align 8, !tbaa !80
  %137 = icmp slt i32 %135, %136
  br i1 %137, label %132, label %138, !llvm.loop !82

138:                                              ; preds = %132, %125
  %139 = load %"class.appsdk::SDKTimer"*, %"class.appsdk::SDKTimer"** %18, align 8, !tbaa !65
  %140 = call i32 @_ZN6appsdk8SDKTimer9stopTimerEi(%"class.appsdk::SDKTimer"* nonnull align 8 dereferenceable(32) %139, i32 %20)
  %141 = load %"class.appsdk::SDKTimer"*, %"class.appsdk::SDKTimer"** %18, align 8, !tbaa !65
  %142 = call contract double @_ZN6appsdk8SDKTimer9readTimerEi(%"class.appsdk::SDKTimer"* nonnull align 8 dereferenceable(32) %141, i32 %20)
  %143 = load i32, i32* %8, align 8, !tbaa !80
  %144 = sitofp i32 %143 to double
  %145 = getelementptr inbounds %class.MatrixMultiplication, %class.MatrixMultiplication* %0, i64 0, i32 2
  %146 = load double, double* %129, align 8, !tbaa !81
  %147 = insertelement <2 x double> poison, double %142, i64 0
  %148 = insertelement <2 x double> %147, double %146, i64 1
  %149 = insertelement <2 x double> poison, double %144, i64 0
  %150 = shufflevector <2 x double> %149, <2 x double> poison, <2 x i32> zeroinitializer
  %151 = fdiv contract <2 x double> %148, %150
  %152 = bitcast double* %145 to <2 x double>*
  store <2 x double> %151, <2 x double>* %152, align 8, !tbaa !83
  %153 = getelementptr inbounds %class.MatrixMultiplication, %class.MatrixMultiplication* %0, i64 0, i32 27
  %154 = bitcast %"class.appsdk::HIPCommandArgs"** %153 to %"class.appsdk::SDKCmdArgsParser"**
  %155 = load %"class.appsdk::SDKCmdArgsParser"*, %"class.appsdk::SDKCmdArgsParser"** %154, align 8, !tbaa !31
  %156 = getelementptr inbounds %"class.appsdk::SDKCmdArgsParser", %"class.appsdk::SDKCmdArgsParser"* %155, i64 0, i32 9
  %157 = load i8, i8* %156, align 4, !tbaa !37, !range !35
  %158 = icmp eq i8 %157, 0
  br i1 %158, label %159, label %192

159:                                              ; preds = %138
  %160 = getelementptr inbounds %"class.std::allocator.0", %"class.std::allocator.0"* %7, i64 0, i32 0
  call void @llvm.lifetime.start.p0i8(i64 1, i8* nonnull %160) #26
  invoke void @_ZNSsC1EPKcRKSaIcE(%"class.std::basic_string"* nonnull align 8 dereferenceable(8) %6, i8* getelementptr inbounds ([7 x i8], [7 x i8]* @.str.33, i64 0, i64 0), %"class.std::allocator.0"* nonnull align 1 dereferenceable(1) %7)
          to label %161 unwind label %186

161:                                              ; preds = %159
  %162 = getelementptr inbounds %class.MatrixMultiplication, %class.MatrixMultiplication* %0, i64 0, i32 10
  %163 = load float*, float** %162, align 8, !tbaa !30
  %164 = getelementptr inbounds %class.MatrixMultiplication, %class.MatrixMultiplication* %0, i64 0, i32 8
  %165 = load i32, i32* %164, align 8, !tbaa !27
  invoke void @_ZN6appsdk10printArrayIfEEvSsPKT_ii(%"class.std::basic_string"* nonnull %6, float* %163, i32 %165, i32 1)
          to label %166 unwind label %188

166:                                              ; preds = %161
  %167 = getelementptr inbounds %"class.std::basic_string", %"class.std::basic_string"* %6, i64 0, i32 0, i32 0
  %168 = load i8*, i8** %167, align 8, !tbaa !16
  %169 = getelementptr inbounds i8, i8* %168, i64 -24
  %170 = bitcast i8* %169 to %"struct.std::basic_string<char>::_Rep"*
  %171 = getelementptr inbounds %"class.std::allocator.0", %"class.std::allocator.0"* %2, i64 0, i32 0
  call void @llvm.lifetime.start.p0i8(i64 1, i8* nonnull %171) #26
  %172 = icmp eq i8* %169, bitcast ([0 x i64]* @_ZNSs4_Rep20_S_empty_rep_storageE to i8*)
  br i1 %172, label %185, label %173, !prof !19

173:                                              ; preds = %166
  %174 = getelementptr inbounds i8, i8* %168, i64 -8
  %175 = bitcast i8* %174 to i32*
  br i1 icmp ne (i8* bitcast (i32 (i32*, void (i8*)*)* @__pthread_key_create to i8*), i8* null), label %176, label %178

176:                                              ; preds = %173
  %177 = atomicrmw volatile add i32* %175, i32 -1 acq_rel, align 4
  br label %181

178:                                              ; preds = %173
  %179 = load i32, i32* %175, align 8, !tbaa !7
  %180 = add nsw i32 %179, -1
  store i32 %180, i32* %175, align 8, !tbaa !7
  br label %181

181:                                              ; preds = %178, %176
  %182 = phi i32 [ %177, %176 ], [ %179, %178 ]
  %183 = icmp slt i32 %182, 1
  br i1 %183, label %184, label %185

184:                                              ; preds = %181
  call void @_ZNSs4_Rep10_M_destroyERKSaIcE(%"struct.std::basic_string<char>::_Rep"* nonnull align 8 dereferenceable(24) %170, %"class.std::allocator.0"* nonnull align 1 dereferenceable(1) %2) #26
  br label %185

185:                                              ; preds = %166, %181, %184
  call void @llvm.lifetime.end.p0i8(i64 1, i8* nonnull %171) #26
  call void @llvm.lifetime.end.p0i8(i64 1, i8* nonnull %160) #26
  br label %192

186:                                              ; preds = %159
  %187 = landingpad { i8*, i32 }
          cleanup
  br label %190

188:                                              ; preds = %161
  %189 = landingpad { i8*, i32 }
          cleanup
  call void @_ZNSsD2Ev(%"class.std::basic_string"* nonnull align 8 dereferenceable(8) %6) #26
  br label %190

190:                                              ; preds = %188, %186
  %191 = phi { i8*, i32 } [ %189, %188 ], [ %187, %186 ]
  call void @llvm.lifetime.end.p0i8(i64 1, i8* nonnull %160) #26
  br label %55

192:                                              ; preds = %185, %138
  ret i32 0
}

; Function Attrs: mustprogress uwtable
define dso_local i32 @_ZN20MatrixMultiplication13verifyResultsEv(%class.MatrixMultiplication* nocapture nonnull readonly align 8 dereferenceable(200) %0) local_unnamed_addr #8 align 2 {
  %2 = getelementptr inbounds %class.MatrixMultiplication, %class.MatrixMultiplication* %0, i64 0, i32 27
  %3 = bitcast %"class.appsdk::HIPCommandArgs"** %2 to %"class.appsdk::SDKCmdArgsParser"**
  %4 = load %"class.appsdk::SDKCmdArgsParser"*, %"class.appsdk::SDKCmdArgsParser"** %3, align 8, !tbaa !31
  %5 = getelementptr inbounds %"class.appsdk::SDKCmdArgsParser", %"class.appsdk::SDKCmdArgsParser"* %4, i64 0, i32 10
  %6 = load i8, i8* %5, align 1, !tbaa !32, !range !35
  %7 = icmp eq i8 %6, 0
  br i1 %7, label %217, label %8

8:                                                ; preds = %1
  %9 = getelementptr inbounds %class.MatrixMultiplication, %class.MatrixMultiplication* %0, i64 0, i32 11
  %10 = load float*, float** %9, align 8, !tbaa !36
  %11 = getelementptr inbounds %class.MatrixMultiplication, %class.MatrixMultiplication* %0, i64 0, i32 4
  %12 = load float*, float** %11, align 8, !tbaa !15
  %13 = getelementptr inbounds %class.MatrixMultiplication, %class.MatrixMultiplication* %0, i64 0, i32 7
  %14 = load float*, float** %13, align 8, !tbaa !29
  %15 = getelementptr inbounds %class.MatrixMultiplication, %class.MatrixMultiplication* %0, i64 0, i32 6
  %16 = load i32, i32* %15, align 4, !tbaa !14
  %17 = getelementptr inbounds %class.MatrixMultiplication, %class.MatrixMultiplication* %0, i64 0, i32 5
  %18 = load i32, i32* %17, align 8, !tbaa !9
  %19 = getelementptr inbounds %class.MatrixMultiplication, %class.MatrixMultiplication* %0, i64 0, i32 8
  %20 = load i32, i32* %19, align 8, !tbaa !27
  %21 = icmp eq i32 %18, 0
  %22 = icmp eq i32 %16, 0
  %23 = icmp eq i32 %20, 0
  %24 = select i1 %22, i1 true, i1 %23
  %25 = select i1 %24, i1 true, i1 %21
  br i1 %25, label %98, label %26

26:                                               ; preds = %8
  %27 = zext i32 %20 to i64
  %28 = zext i32 %18 to i64
  %29 = and i64 %28, 1
  %30 = icmp eq i32 %18, 1
  %31 = and i64 %28, 4294967294
  %32 = icmp eq i64 %29, 0
  br label %33

33:                                               ; preds = %95, %26
  %34 = phi i32 [ %96, %95 ], [ 0, %26 ]
  %35 = mul i32 %34, %18
  %36 = mul i32 %34, %20
  br label %37

37:                                               ; preds = %92, %33
  %38 = phi i64 [ %93, %92 ], [ 0, %33 ]
  %39 = trunc i64 %38 to i32
  %40 = add i32 %36, %39
  %41 = zext i32 %40 to i64
  %42 = getelementptr inbounds float, float* %10, i64 %41
  %43 = load float, float* %42, align 4, !tbaa !40
  br i1 %30, label %76, label %44

44:                                               ; preds = %37, %44
  %45 = phi float [ %72, %44 ], [ %43, %37 ]
  %46 = phi i64 [ %73, %44 ], [ 0, %37 ]
  %47 = phi i64 [ %74, %44 ], [ 0, %37 ]
  %48 = trunc i64 %46 to i32
  %49 = add i32 %35, %48
  %50 = zext i32 %49 to i64
  %51 = getelementptr inbounds float, float* %12, i64 %50
  %52 = load float, float* %51, align 4, !tbaa !40
  %53 = mul i32 %20, %48
  %54 = add i32 %53, %39
  %55 = zext i32 %54 to i64
  %56 = getelementptr inbounds float, float* %14, i64 %55
  %57 = load float, float* %56, align 4, !tbaa !40
  %58 = fmul contract float %52, %57
  %59 = fadd contract float %45, %58
  store float %59, float* %42, align 4, !tbaa !40
  %60 = trunc i64 %46 to i32
  %61 = or i32 %60, 1
  %62 = add i32 %35, %61
  %63 = zext i32 %62 to i64
  %64 = getelementptr inbounds float, float* %12, i64 %63
  %65 = load float, float* %64, align 4, !tbaa !40
  %66 = mul i32 %20, %61
  %67 = add i32 %66, %39
  %68 = zext i32 %67 to i64
  %69 = getelementptr inbounds float, float* %14, i64 %68
  %70 = load float, float* %69, align 4, !tbaa !40
  %71 = fmul contract float %65, %70
  %72 = fadd contract float %59, %71
  store float %72, float* %42, align 4, !tbaa !40
  %73 = add nuw nsw i64 %46, 2
  %74 = add i64 %47, 2
  %75 = icmp eq i64 %74, %31
  br i1 %75, label %76, label %44, !llvm.loop !51

76:                                               ; preds = %44, %37
  %77 = phi float [ %43, %37 ], [ %72, %44 ]
  %78 = phi i64 [ 0, %37 ], [ %73, %44 ]
  br i1 %32, label %92, label %79

79:                                               ; preds = %76
  %80 = trunc i64 %78 to i32
  %81 = add i32 %35, %80
  %82 = zext i32 %81 to i64
  %83 = getelementptr inbounds float, float* %12, i64 %82
  %84 = load float, float* %83, align 4, !tbaa !40
  %85 = mul i32 %20, %80
  %86 = add i32 %85, %39
  %87 = zext i32 %86 to i64
  %88 = getelementptr inbounds float, float* %14, i64 %87
  %89 = load float, float* %88, align 4, !tbaa !40
  %90 = fmul contract float %84, %89
  %91 = fadd contract float %77, %90
  store float %91, float* %42, align 4, !tbaa !40
  br label %92

92:                                               ; preds = %76, %79
  %93 = add nuw nsw i64 %38, 1
  %94 = icmp eq i64 %93, %27
  br i1 %94, label %95, label %37, !llvm.loop !52

95:                                               ; preds = %92
  %96 = add nuw i32 %34, 1
  %97 = icmp eq i32 %96, %16
  br i1 %97, label %98, label %33, !llvm.loop !53

98:                                               ; preds = %95, %8
  %99 = getelementptr inbounds %class.MatrixMultiplication, %class.MatrixMultiplication* %0, i64 0, i32 10
  %100 = load float*, float** %99, align 8, !tbaa !30
  %101 = mul nsw i32 %20, %16
  %102 = icmp sgt i32 %101, 1
  br i1 %102, label %103, label %125

103:                                              ; preds = %98
  %104 = zext i32 %101 to i64
  %105 = add nsw i64 %104, -1
  %106 = and i64 %105, 1
  %107 = icmp eq i32 %101, 2
  br i1 %107, label %110, label %108

108:                                              ; preds = %103
  %109 = and i64 %105, -2
  br label %131

110:                                              ; preds = %131, %103
  %111 = phi <2 x float> [ undef, %103 ], [ %153, %131 ]
  %112 = phi i64 [ 1, %103 ], [ %154, %131 ]
  %113 = phi <2 x float> [ zeroinitializer, %103 ], [ %153, %131 ]
  %114 = icmp eq i64 %106, 0
  br i1 %114, label %125, label %115

115:                                              ; preds = %110
  %116 = getelementptr inbounds float, float* %100, i64 %112
  %117 = load float, float* %116, align 4, !tbaa !40
  %118 = getelementptr inbounds float, float* %10, i64 %112
  %119 = load float, float* %118, align 4, !tbaa !40
  %120 = fsub contract float %117, %119
  %121 = insertelement <2 x float> poison, float %117, i64 0
  %122 = insertelement <2 x float> %121, float %120, i64 1
  %123 = fmul contract <2 x float> %122, %122
  %124 = fadd contract <2 x float> %113, %123
  br label %125

125:                                              ; preds = %115, %110, %98
  %126 = phi <2 x float> [ zeroinitializer, %98 ], [ %111, %110 ], [ %124, %115 ]
  %127 = extractelement <2 x float> %126, i64 0
  %128 = tail call contract float @sqrtf(float %127) #26
  %129 = tail call contract float @llvm.fabs.f32(float %127) #26
  %130 = fcmp contract olt float %129, 0x3E7AD7F2A0000000
  br i1 %130, label %187, label %157

131:                                              ; preds = %131, %108
  %132 = phi i64 [ 1, %108 ], [ %154, %131 ]
  %133 = phi <2 x float> [ zeroinitializer, %108 ], [ %153, %131 ]
  %134 = phi i64 [ 0, %108 ], [ %155, %131 ]
  %135 = getelementptr inbounds float, float* %100, i64 %132
  %136 = load float, float* %135, align 4, !tbaa !40
  %137 = getelementptr inbounds float, float* %10, i64 %132
  %138 = load float, float* %137, align 4, !tbaa !40
  %139 = fsub contract float %136, %138
  %140 = insertelement <2 x float> poison, float %136, i64 0
  %141 = insertelement <2 x float> %140, float %139, i64 1
  %142 = fmul contract <2 x float> %141, %141
  %143 = fadd contract <2 x float> %133, %142
  %144 = add nuw nsw i64 %132, 1
  %145 = getelementptr inbounds float, float* %100, i64 %144
  %146 = load float, float* %145, align 4, !tbaa !40
  %147 = getelementptr inbounds float, float* %10, i64 %144
  %148 = load float, float* %147, align 4, !tbaa !40
  %149 = fsub contract float %146, %148
  %150 = insertelement <2 x float> poison, float %146, i64 0
  %151 = insertelement <2 x float> %150, float %149, i64 1
  %152 = fmul contract <2 x float> %151, %151
  %153 = fadd contract <2 x float> %143, %152
  %154 = add nuw nsw i64 %132, 2
  %155 = add i64 %134, 2
  %156 = icmp eq i64 %155, %109
  br i1 %156, label %110, label %131, !llvm.loop !84

157:                                              ; preds = %125
  %158 = extractelement <2 x float> %126, i64 1
  %159 = tail call contract float @sqrtf(float %158) #26
  %160 = fdiv contract float %159, %128
  %161 = fcmp contract olt float %160, 0x3EB0C6F7A0000000
  br i1 %161, label %162, label %187

162:                                              ; preds = %157
  %163 = tail call nonnull align 8 dereferenceable(8) %"class.std::basic_ostream"* @_ZSt16__ostream_insertIcSt11char_traitsIcEERSt13basic_ostreamIT_T0_ES6_PKS3_l(%"class.std::basic_ostream"* nonnull align 8 dereferenceable(8) @_ZSt4cout, i8* nonnull getelementptr inbounds ([9 x i8], [9 x i8]* @.str.34, i64 0, i64 0), i64 8)
  %164 = load i8*, i8** bitcast (%"class.std::basic_ostream"* @_ZSt4cout to i8**), align 8, !tbaa !20
  %165 = getelementptr i8, i8* %164, i64 -24
  %166 = bitcast i8* %165 to i64*
  %167 = load i64, i64* %166, align 8
  %168 = getelementptr inbounds i8, i8* bitcast (%"class.std::basic_ostream"* @_ZSt4cout to i8*), i64 %167
  %169 = getelementptr inbounds i8, i8* %168, i64 240
  %170 = bitcast i8* %169 to %"class.std::ctype"**
  %171 = load %"class.std::ctype"*, %"class.std::ctype"** %170, align 8, !tbaa !22
  %172 = icmp eq %"class.std::ctype"* %171, null
  br i1 %172, label %173, label %174

173:                                              ; preds = %162
  tail call void @_ZSt16__throw_bad_castv() #27
  unreachable

174:                                              ; preds = %162
  %175 = getelementptr inbounds %"class.std::ctype", %"class.std::ctype"* %171, i64 0, i32 8
  %176 = load i8, i8* %175, align 8, !tbaa !24
  %177 = icmp eq i8 %176, 0
  br i1 %177, label %181, label %178

178:                                              ; preds = %174
  %179 = getelementptr inbounds %"class.std::ctype", %"class.std::ctype"* %171, i64 0, i32 9, i64 10
  %180 = load i8, i8* %179, align 1, !tbaa !26
  br label %212

181:                                              ; preds = %174
  tail call void @_ZNKSt5ctypeIcE13_M_widen_initEv(%"class.std::ctype"* nonnull align 8 dereferenceable(570) %171)
  %182 = bitcast %"class.std::ctype"* %171 to i8 (%"class.std::ctype"*, i8)***
  %183 = load i8 (%"class.std::ctype"*, i8)**, i8 (%"class.std::ctype"*, i8)*** %182, align 8, !tbaa !20
  %184 = getelementptr inbounds i8 (%"class.std::ctype"*, i8)*, i8 (%"class.std::ctype"*, i8)** %183, i64 6
  %185 = load i8 (%"class.std::ctype"*, i8)*, i8 (%"class.std::ctype"*, i8)** %184, align 8
  %186 = tail call signext i8 %185(%"class.std::ctype"* nonnull align 8 dereferenceable(570) %171, i8 signext 10)
  br label %212

187:                                              ; preds = %125, %157
  %188 = tail call nonnull align 8 dereferenceable(8) %"class.std::basic_ostream"* @_ZSt16__ostream_insertIcSt11char_traitsIcEERSt13basic_ostreamIT_T0_ES6_PKS3_l(%"class.std::basic_ostream"* nonnull align 8 dereferenceable(8) @_ZSt4cout, i8* nonnull getelementptr inbounds ([8 x i8], [8 x i8]* @.str.35, i64 0, i64 0), i64 7)
  %189 = load i8*, i8** bitcast (%"class.std::basic_ostream"* @_ZSt4cout to i8**), align 8, !tbaa !20
  %190 = getelementptr i8, i8* %189, i64 -24
  %191 = bitcast i8* %190 to i64*
  %192 = load i64, i64* %191, align 8
  %193 = getelementptr inbounds i8, i8* bitcast (%"class.std::basic_ostream"* @_ZSt4cout to i8*), i64 %192
  %194 = getelementptr inbounds i8, i8* %193, i64 240
  %195 = bitcast i8* %194 to %"class.std::ctype"**
  %196 = load %"class.std::ctype"*, %"class.std::ctype"** %195, align 8, !tbaa !22
  %197 = icmp eq %"class.std::ctype"* %196, null
  br i1 %197, label %198, label %199

198:                                              ; preds = %187
  tail call void @_ZSt16__throw_bad_castv() #27
  unreachable

199:                                              ; preds = %187
  %200 = getelementptr inbounds %"class.std::ctype", %"class.std::ctype"* %196, i64 0, i32 8
  %201 = load i8, i8* %200, align 8, !tbaa !24
  %202 = icmp eq i8 %201, 0
  br i1 %202, label %206, label %203

203:                                              ; preds = %199
  %204 = getelementptr inbounds %"class.std::ctype", %"class.std::ctype"* %196, i64 0, i32 9, i64 10
  %205 = load i8, i8* %204, align 1, !tbaa !26
  br label %212

206:                                              ; preds = %199
  tail call void @_ZNKSt5ctypeIcE13_M_widen_initEv(%"class.std::ctype"* nonnull align 8 dereferenceable(570) %196)
  %207 = bitcast %"class.std::ctype"* %196 to i8 (%"class.std::ctype"*, i8)***
  %208 = load i8 (%"class.std::ctype"*, i8)**, i8 (%"class.std::ctype"*, i8)*** %207, align 8, !tbaa !20
  %209 = getelementptr inbounds i8 (%"class.std::ctype"*, i8)*, i8 (%"class.std::ctype"*, i8)** %208, i64 6
  %210 = load i8 (%"class.std::ctype"*, i8)*, i8 (%"class.std::ctype"*, i8)** %209, align 8
  %211 = tail call signext i8 %210(%"class.std::ctype"* nonnull align 8 dereferenceable(570) %196, i8 signext 10)
  br label %212

212:                                              ; preds = %206, %203, %181, %178
  %213 = phi i8 [ %180, %178 ], [ %186, %181 ], [ %205, %203 ], [ %211, %206 ]
  %214 = phi i32 [ 0, %178 ], [ 0, %181 ], [ 1, %203 ], [ 1, %206 ]
  %215 = tail call nonnull align 8 dereferenceable(8) %"class.std::basic_ostream"* @_ZNSo3putEc(%"class.std::basic_ostream"* nonnull align 8 dereferenceable(8) @_ZSt4cout, i8 signext %213)
  %216 = tail call nonnull align 8 dereferenceable(8) %"class.std::basic_ostream"* @_ZNSo5flushEv(%"class.std::basic_ostream"* nonnull align 8 dereferenceable(8) %215)
  br label %217

217:                                              ; preds = %212, %1
  %218 = phi i32 [ 0, %1 ], [ %214, %212 ]
  ret i32 %218
}

; Function Attrs: uwtable
define dso_local void @_ZN20MatrixMultiplication10printStatsEv(%class.MatrixMultiplication* nocapture nonnull readonly align 8 dereferenceable(200) %0) local_unnamed_addr #5 align 2 personality i8* bitcast (i32 (...)* @__gxx_personality_v0 to i8*) {
  %2 = alloca %"class.std::allocator.0", align 1
  %3 = alloca %"class.std::allocator.0", align 1
  %4 = alloca %"class.std::allocator.0", align 1
  %5 = alloca %"class.std::allocator.0", align 1
  %6 = alloca %"class.std::basic_ostringstream", align 8
  %7 = alloca %"class.std::allocator.0", align 1
  %8 = alloca %"class.std::allocator.0", align 1
  %9 = alloca %"class.std::basic_ostringstream", align 8
  %10 = alloca %"class.std::allocator.0", align 1
  %11 = alloca %"class.std::allocator.0", align 1
  %12 = alloca %"class.std::allocator.0", align 1
  %13 = alloca %"class.std::allocator.0", align 1
  %14 = alloca %"class.std::allocator.0", align 1
  %15 = alloca %"class.std::basic_ostringstream", align 8
  %16 = alloca %"class.std::allocator.0", align 1
  %17 = alloca %"class.std::basic_ostringstream", align 8
  %18 = alloca %"class.std::allocator.0", align 1
  %19 = alloca %"class.std::allocator.0", align 1
  %20 = alloca %"class.std::allocator.0", align 1
  %21 = alloca %"class.std::allocator.0", align 1
  %22 = alloca %"class.std::allocator.0", align 1
  %23 = alloca %"class.std::basic_ostringstream", align 8
  %24 = alloca %"class.std::allocator.0", align 1
  %25 = alloca %"class.std::basic_ostringstream", align 8
  %26 = alloca %"class.std::allocator.0", align 1
  %27 = alloca %"class.std::allocator.0", align 1
  %28 = alloca %"class.std::allocator.0", align 1
  %29 = alloca %"class.std::allocator.0", align 1
  %30 = alloca %"class.std::basic_ostringstream", align 8
  %31 = alloca %"class.std::allocator.0", align 1
  %32 = alloca %"class.std::allocator.0", align 1
  %33 = alloca %"class.std::basic_ostringstream", align 8
  %34 = alloca %"class.std::allocator.0", align 1
  %35 = alloca %"class.std::allocator.0", align 1
  %36 = alloca %"class.std::allocator.0", align 1
  %37 = alloca %"class.std::allocator.0", align 1
  %38 = alloca %"class.std::allocator.0", align 1
  %39 = alloca %"class.std::basic_ostringstream", align 8
  %40 = alloca %"class.std::allocator.0", align 1
  %41 = alloca %"class.std::basic_ostringstream", align 8
  %42 = alloca %"class.std::allocator.0", align 1
  %43 = alloca %"class.std::allocator.0", align 1
  %44 = alloca %"class.std::allocator.0", align 1
  %45 = alloca %"class.std::allocator.0", align 1
  %46 = alloca %"class.std::allocator.0", align 1
  %47 = alloca %"class.std::basic_ostringstream", align 8
  %48 = alloca %"class.std::allocator.0", align 1
  %49 = alloca %"class.std::basic_ostringstream", align 8
  %50 = alloca [4 x %"class.std::basic_string"], align 16
  %51 = alloca %"class.std::allocator.0", align 1
  %52 = alloca %"class.std::allocator.0", align 1
  %53 = alloca %"class.std::allocator.0", align 1
  %54 = alloca %"class.std::allocator.0", align 1
  %55 = alloca [4 x %"class.std::basic_string"], align 16
  %56 = alloca %"class.std::basic_string", align 8
  %57 = alloca %"class.std::basic_string", align 8
  %58 = alloca %"class.std::basic_string", align 8
  %59 = alloca %"class.std::basic_string", align 8
  %60 = alloca %"class.std::basic_string", align 8
  %61 = alloca %"class.std::basic_string", align 8
  %62 = alloca %"class.std::basic_string", align 8
  %63 = alloca %"class.std::basic_string", align 8
  %64 = alloca %"class.std::basic_string", align 8
  %65 = alloca %"class.std::basic_string", align 8
  %66 = alloca [4 x %"class.std::basic_string"], align 16
  %67 = alloca %"class.std::allocator.0", align 1
  %68 = alloca %"class.std::allocator.0", align 1
  %69 = alloca %"class.std::allocator.0", align 1
  %70 = alloca %"class.std::allocator.0", align 1
  %71 = alloca [4 x %"class.std::basic_string"], align 16
  %72 = alloca %"class.std::basic_string", align 8
  %73 = alloca %"class.std::basic_string", align 8
  %74 = alloca %"class.std::basic_string", align 8
  %75 = alloca %"class.std::basic_string", align 8
  %76 = alloca %"class.std::basic_string", align 8
  %77 = alloca %"class.std::basic_string", align 8
  %78 = alloca %"class.std::basic_string", align 8
  %79 = alloca %"class.std::basic_string", align 8
  %80 = alloca %"class.std::basic_string", align 8
  %81 = alloca %"class.std::basic_string", align 8
  %82 = getelementptr inbounds %class.MatrixMultiplication, %class.MatrixMultiplication* %0, i64 0, i32 27
  %83 = bitcast %"class.appsdk::HIPCommandArgs"** %82 to %"class.appsdk::SDKCmdArgsParser"**
  %84 = load %"class.appsdk::SDKCmdArgsParser"*, %"class.appsdk::SDKCmdArgsParser"** %83, align 8, !tbaa !31
  %85 = getelementptr inbounds %"class.appsdk::SDKCmdArgsParser", %"class.appsdk::SDKCmdArgsParser"* %84, i64 0, i32 11
  %86 = load i8, i8* %85, align 2, !tbaa !85, !range !35
  %87 = icmp eq i8 %86, 0
  br i1 %87, label %1898, label %88

88:                                               ; preds = %1
  %89 = getelementptr inbounds %class.MatrixMultiplication, %class.MatrixMultiplication* %0, i64 0, i32 25
  %90 = load i8, i8* %89, align 4, !tbaa !86, !range !35
  %91 = icmp eq i8 %90, 0
  br i1 %91, label %995, label %92

92:                                               ; preds = %88
  %93 = bitcast [4 x %"class.std::basic_string"]* %50 to i8*
  call void @llvm.lifetime.start.p0i8(i64 32, i8* nonnull %93) #26
  %94 = getelementptr inbounds [4 x %"class.std::basic_string"], [4 x %"class.std::basic_string"]* %50, i64 0, i64 0
  %95 = getelementptr inbounds %"class.std::allocator.0", %"class.std::allocator.0"* %51, i64 0, i32 0
  call void @llvm.lifetime.start.p0i8(i64 1, i8* nonnull %95) #26
  invoke void @_ZNSsC1EPKcRKSaIcE(%"class.std::basic_string"* nonnull align 8 dereferenceable(8) %94, i8* getelementptr inbounds ([8 x i8], [8 x i8]* @.str.36, i64 0, i64 0), %"class.std::allocator.0"* nonnull align 1 dereferenceable(1) %51)
          to label %96 unwind label %204

96:                                               ; preds = %92
  %97 = getelementptr inbounds [4 x %"class.std::basic_string"], [4 x %"class.std::basic_string"]* %50, i64 0, i64 1
  %98 = getelementptr inbounds %"class.std::allocator.0", %"class.std::allocator.0"* %52, i64 0, i32 0
  call void @llvm.lifetime.start.p0i8(i64 1, i8* nonnull %98) #26
  invoke void @_ZNSsC1EPKcRKSaIcE(%"class.std::basic_string"* nonnull align 8 dereferenceable(8) %97, i8* getelementptr inbounds ([8 x i8], [8 x i8]* @.str.37, i64 0, i64 0), %"class.std::allocator.0"* nonnull align 1 dereferenceable(1) %52)
          to label %99 unwind label %206

99:                                               ; preds = %96
  %100 = getelementptr inbounds [4 x %"class.std::basic_string"], [4 x %"class.std::basic_string"]* %50, i64 0, i64 2
  %101 = getelementptr inbounds %"class.std::allocator.0", %"class.std::allocator.0"* %53, i64 0, i32 0
  call void @llvm.lifetime.start.p0i8(i64 1, i8* nonnull %101) #26
  invoke void @_ZNSsC1EPKcRKSaIcE(%"class.std::basic_string"* nonnull align 8 dereferenceable(8) %100, i8* getelementptr inbounds ([10 x i8], [10 x i8]* @.str.38, i64 0, i64 0), %"class.std::allocator.0"* nonnull align 1 dereferenceable(1) %53)
          to label %102 unwind label %208

102:                                              ; preds = %99
  %103 = getelementptr inbounds [4 x %"class.std::basic_string"], [4 x %"class.std::basic_string"]* %50, i64 0, i64 3
  %104 = getelementptr inbounds %"class.std::allocator.0", %"class.std::allocator.0"* %54, i64 0, i32 0
  call void @llvm.lifetime.start.p0i8(i64 1, i8* nonnull %104) #26
  invoke void @_ZNSsC1EPKcRKSaIcE(%"class.std::basic_string"* nonnull align 8 dereferenceable(8) %103, i8* getelementptr inbounds ([27 x i8], [27 x i8]* @.str.39, i64 0, i64 0), %"class.std::allocator.0"* nonnull align 1 dereferenceable(1) %54)
          to label %105 unwind label %210

105:                                              ; preds = %102
  call void @llvm.lifetime.end.p0i8(i64 1, i8* nonnull %104) #26
  call void @llvm.lifetime.end.p0i8(i64 1, i8* nonnull %101) #26
  call void @llvm.lifetime.end.p0i8(i64 1, i8* nonnull %98) #26
  call void @llvm.lifetime.end.p0i8(i64 1, i8* nonnull %95) #26
  %106 = bitcast [4 x %"class.std::basic_string"]* %55 to i8*
  call void @llvm.lifetime.start.p0i8(i64 32, i8* nonnull %106) #26
  %107 = getelementptr inbounds [4 x %"class.std::basic_string"], [4 x %"class.std::basic_string"]* %55, i64 0, i64 0
  %108 = getelementptr inbounds [4 x %"class.std::basic_string"], [4 x %"class.std::basic_string"]* %55, i64 0, i64 0, i32 0, i32 0
  store i8* bitcast (i64* getelementptr inbounds ([0 x i64], [0 x i64]* @_ZNSs4_Rep20_S_empty_rep_storageE, i64 0, i64 3) to i8*), i8** %108, align 16, !tbaa !54
  %109 = getelementptr inbounds [4 x %"class.std::basic_string"], [4 x %"class.std::basic_string"]* %55, i64 0, i64 1, i32 0, i32 0
  store i8* bitcast (i64* getelementptr inbounds ([0 x i64], [0 x i64]* @_ZNSs4_Rep20_S_empty_rep_storageE, i64 0, i64 3) to i8*), i8** %109, align 8, !tbaa !54
  %110 = getelementptr inbounds [4 x %"class.std::basic_string"], [4 x %"class.std::basic_string"]* %55, i64 0, i64 2, i32 0, i32 0
  store i8* bitcast (i64* getelementptr inbounds ([0 x i64], [0 x i64]* @_ZNSs4_Rep20_S_empty_rep_storageE, i64 0, i64 3) to i8*), i8** %110, align 16, !tbaa !54
  %111 = getelementptr inbounds [4 x %"class.std::basic_string"], [4 x %"class.std::basic_string"]* %55, i64 0, i64 3, i32 0, i32 0
  store i8* bitcast (i64* getelementptr inbounds ([0 x i64], [0 x i64]* @_ZNSs4_Rep20_S_empty_rep_storageE, i64 0, i64 3) to i8*), i8** %111, align 8, !tbaa !54
  %112 = getelementptr inbounds %class.MatrixMultiplication, %class.MatrixMultiplication* %0, i64 0, i32 5
  %113 = load i32, i32* %112, align 8, !tbaa !9
  %114 = shl nsw i32 %113, 1
  %115 = getelementptr inbounds %class.MatrixMultiplication, %class.MatrixMultiplication* %0, i64 0, i32 8
  %116 = load i32, i32* %115, align 8, !tbaa !27
  %117 = mul nsw i32 %114, %116
  %118 = sitofp i32 %117 to double
  %119 = getelementptr inbounds %class.MatrixMultiplication, %class.MatrixMultiplication* %0, i64 0, i32 2
  %120 = load double, double* %119, align 8, !tbaa !87
  %121 = fdiv contract double %118, %120
  %122 = getelementptr inbounds %class.MatrixMultiplication, %class.MatrixMultiplication* %0, i64 0, i32 6
  %123 = load i32, i32* %122, align 4, !tbaa !14
  %124 = sitofp i32 %123 to double
  %125 = fmul contract double %121, %124
  %126 = fmul contract double %125, 1.000000e-09
  %127 = load %"class.appsdk::SDKCmdArgsParser"*, %"class.appsdk::SDKCmdArgsParser"** %83, align 8, !tbaa !31
  %128 = getelementptr inbounds %"class.appsdk::SDKCmdArgsParser", %"class.appsdk::SDKCmdArgsParser"* %127, i64 0, i32 11
  %129 = load i8, i8* %128, align 2, !tbaa !85, !range !35
  %130 = icmp eq i8 %129, 0
  br i1 %130, label %224, label %131

131:                                              ; preds = %105
  %132 = invoke nonnull align 8 dereferenceable(8) %"class.std::basic_ostream"* @_ZSt16__ostream_insertIcSt11char_traitsIcEERSt13basic_ostreamIT_T0_ES6_PKS3_l(%"class.std::basic_ostream"* nonnull align 8 dereferenceable(8) @_ZSt4cout, i8* nonnull getelementptr inbounds ([19 x i8], [19 x i8]* @.str.40, i64 0, i64 0), i64 18)
          to label %133 unwind label %222

133:                                              ; preds = %131
  %134 = invoke nonnull align 8 dereferenceable(8) %"class.std::basic_ostream"* @_ZNSo9_M_insertIdEERSoT_(%"class.std::basic_ostream"* nonnull align 8 dereferenceable(8) @_ZSt4cout, double %126)
          to label %135 unwind label %222

135:                                              ; preds = %133
  %136 = bitcast %"class.std::basic_ostream"* %134 to i8**
  %137 = load i8*, i8** %136, align 8, !tbaa !20
  %138 = getelementptr i8, i8* %137, i64 -24
  %139 = bitcast i8* %138 to i64*
  %140 = load i64, i64* %139, align 8
  %141 = bitcast %"class.std::basic_ostream"* %134 to i8*
  %142 = getelementptr inbounds i8, i8* %141, i64 %140
  %143 = getelementptr inbounds i8, i8* %142, i64 240
  %144 = bitcast i8* %143 to %"class.std::ctype"**
  %145 = load %"class.std::ctype"*, %"class.std::ctype"** %144, align 8, !tbaa !22
  %146 = icmp eq %"class.std::ctype"* %145, null
  br i1 %146, label %147, label %149

147:                                              ; preds = %135
  invoke void @_ZSt16__throw_bad_castv() #27
          to label %148 unwind label %222

148:                                              ; preds = %147
  unreachable

149:                                              ; preds = %135
  %150 = getelementptr inbounds %"class.std::ctype", %"class.std::ctype"* %145, i64 0, i32 8
  %151 = load i8, i8* %150, align 8, !tbaa !24
  %152 = icmp eq i8 %151, 0
  br i1 %152, label %156, label %153

153:                                              ; preds = %149
  %154 = getelementptr inbounds %"class.std::ctype", %"class.std::ctype"* %145, i64 0, i32 9, i64 10
  %155 = load i8, i8* %154, align 1, !tbaa !26
  br label %163

156:                                              ; preds = %149
  invoke void @_ZNKSt5ctypeIcE13_M_widen_initEv(%"class.std::ctype"* nonnull align 8 dereferenceable(570) %145)
          to label %157 unwind label %222

157:                                              ; preds = %156
  %158 = bitcast %"class.std::ctype"* %145 to i8 (%"class.std::ctype"*, i8)***
  %159 = load i8 (%"class.std::ctype"*, i8)**, i8 (%"class.std::ctype"*, i8)*** %158, align 8, !tbaa !20
  %160 = getelementptr inbounds i8 (%"class.std::ctype"*, i8)*, i8 (%"class.std::ctype"*, i8)** %159, i64 6
  %161 = load i8 (%"class.std::ctype"*, i8)*, i8 (%"class.std::ctype"*, i8)** %160, align 8
  %162 = invoke signext i8 %161(%"class.std::ctype"* nonnull align 8 dereferenceable(570) %145, i8 signext 10)
          to label %163 unwind label %222

163:                                              ; preds = %157, %153
  %164 = phi i8 [ %155, %153 ], [ %162, %157 ]
  %165 = invoke nonnull align 8 dereferenceable(8) %"class.std::basic_ostream"* @_ZNSo3putEc(%"class.std::basic_ostream"* nonnull align 8 dereferenceable(8) %134, i8 signext %164)
          to label %166 unwind label %222

166:                                              ; preds = %163
  %167 = invoke nonnull align 8 dereferenceable(8) %"class.std::basic_ostream"* @_ZNSo5flushEv(%"class.std::basic_ostream"* nonnull align 8 dereferenceable(8) %165)
          to label %168 unwind label %222

168:                                              ; preds = %166
  %169 = bitcast %"class.std::basic_ostream"* %167 to i8**
  %170 = load i8*, i8** %169, align 8, !tbaa !20
  %171 = getelementptr i8, i8* %170, i64 -24
  %172 = bitcast i8* %171 to i64*
  %173 = load i64, i64* %172, align 8
  %174 = bitcast %"class.std::basic_ostream"* %167 to i8*
  %175 = getelementptr inbounds i8, i8* %174, i64 %173
  %176 = getelementptr inbounds i8, i8* %175, i64 240
  %177 = bitcast i8* %176 to %"class.std::ctype"**
  %178 = load %"class.std::ctype"*, %"class.std::ctype"** %177, align 8, !tbaa !22
  %179 = icmp eq %"class.std::ctype"* %178, null
  br i1 %179, label %180, label %182

180:                                              ; preds = %168
  invoke void @_ZSt16__throw_bad_castv() #27
          to label %181 unwind label %222

181:                                              ; preds = %180
  unreachable

182:                                              ; preds = %168
  %183 = getelementptr inbounds %"class.std::ctype", %"class.std::ctype"* %178, i64 0, i32 8
  %184 = load i8, i8* %183, align 8, !tbaa !24
  %185 = icmp eq i8 %184, 0
  br i1 %185, label %189, label %186

186:                                              ; preds = %182
  %187 = getelementptr inbounds %"class.std::ctype", %"class.std::ctype"* %178, i64 0, i32 9, i64 10
  %188 = load i8, i8* %187, align 1, !tbaa !26
  br label %196

189:                                              ; preds = %182
  invoke void @_ZNKSt5ctypeIcE13_M_widen_initEv(%"class.std::ctype"* nonnull align 8 dereferenceable(570) %178)
          to label %190 unwind label %222

190:                                              ; preds = %189
  %191 = bitcast %"class.std::ctype"* %178 to i8 (%"class.std::ctype"*, i8)***
  %192 = load i8 (%"class.std::ctype"*, i8)**, i8 (%"class.std::ctype"*, i8)*** %191, align 8, !tbaa !20
  %193 = getelementptr inbounds i8 (%"class.std::ctype"*, i8)*, i8 (%"class.std::ctype"*, i8)** %192, i64 6
  %194 = load i8 (%"class.std::ctype"*, i8)*, i8 (%"class.std::ctype"*, i8)** %193, align 8
  %195 = invoke signext i8 %194(%"class.std::ctype"* nonnull align 8 dereferenceable(570) %178, i8 signext 10)
          to label %196 unwind label %222

196:                                              ; preds = %190, %186
  %197 = phi i8 [ %188, %186 ], [ %195, %190 ]
  %198 = invoke nonnull align 8 dereferenceable(8) %"class.std::basic_ostream"* @_ZNSo3putEc(%"class.std::basic_ostream"* nonnull align 8 dereferenceable(8) %167, i8 signext %197)
          to label %199 unwind label %222

199:                                              ; preds = %196
  %200 = invoke nonnull align 8 dereferenceable(8) %"class.std::basic_ostream"* @_ZNSo5flushEv(%"class.std::basic_ostream"* nonnull align 8 dereferenceable(8) %198)
          to label %201 unwind label %222

201:                                              ; preds = %199
  %202 = load double, double* %119, align 8, !tbaa !87
  %203 = load i32, i32* %122, align 4, !tbaa !14
  br label %224

204:                                              ; preds = %92
  %205 = landingpad { i8*, i32 }
          cleanup
  call void @llvm.lifetime.end.p0i8(i64 1, i8* nonnull %95) #26
  br label %993

206:                                              ; preds = %96
  %207 = landingpad { i8*, i32 }
          cleanup
  br label %215

208:                                              ; preds = %99
  %209 = landingpad { i8*, i32 }
          cleanup
  br label %212

210:                                              ; preds = %102
  %211 = landingpad { i8*, i32 }
          cleanup
  call void @llvm.lifetime.end.p0i8(i64 1, i8* nonnull %104) #26
  br label %212

212:                                              ; preds = %210, %208
  %213 = phi { i8*, i32 } [ %211, %210 ], [ %209, %208 ]
  %214 = phi %"class.std::basic_string"* [ %103, %210 ], [ %100, %208 ]
  call void @llvm.lifetime.end.p0i8(i64 1, i8* nonnull %101) #26
  br label %215

215:                                              ; preds = %206, %212
  %216 = phi { i8*, i32 } [ %213, %212 ], [ %207, %206 ]
  %217 = phi %"class.std::basic_string"* [ %214, %212 ], [ %97, %206 ]
  call void @llvm.lifetime.end.p0i8(i64 1, i8* nonnull %98) #26
  call void @llvm.lifetime.end.p0i8(i64 1, i8* nonnull %95) #26
  br label %218

218:                                              ; preds = %215, %218
  %219 = phi %"class.std::basic_string"* [ %220, %218 ], [ %217, %215 ]
  %220 = getelementptr inbounds %"class.std::basic_string", %"class.std::basic_string"* %219, i64 -1
  call void @_ZNSsD2Ev(%"class.std::basic_string"* nonnull align 8 dereferenceable(8) %220) #26
  %221 = icmp eq %"class.std::basic_string"* %220, %94
  br i1 %221, label %993, label %218

222:                                              ; preds = %199, %196, %190, %189, %180, %166, %163, %157, %156, %147, %133, %131, %787
  %223 = landingpad { i8*, i32 }
          cleanup
  br label %983

224:                                              ; preds = %201, %105
  %225 = phi i32 [ %203, %201 ], [ %123, %105 ]
  %226 = phi double [ %202, %201 ], [ %120, %105 ]
  %227 = getelementptr inbounds %class.MatrixMultiplication, %class.MatrixMultiplication* %0, i64 0, i32 1
  %228 = load double, double* %227, align 8, !tbaa !70
  %229 = fadd contract double %228, %226
  %230 = getelementptr inbounds %class.MatrixMultiplication, %class.MatrixMultiplication* %0, i64 0, i32 26
  %231 = load %"class.appsdk::SDKTimer"*, %"class.appsdk::SDKTimer"** %230, align 8, !tbaa !65
  %232 = getelementptr inbounds %"class.appsdk::SDKTimer", %"class.appsdk::SDKTimer"* %231, i64 0, i32 1
  store double %229, double* %232, align 8, !tbaa !88
  %233 = bitcast %"class.std::basic_string"* %56 to i8*
  call void @llvm.lifetime.start.p0i8(i64 8, i8* nonnull %233) #26
  %234 = bitcast %"class.std::basic_string"* %57 to i8*
  call void @llvm.lifetime.start.p0i8(i64 8, i8* nonnull %234) #26
  %235 = bitcast %"class.std::basic_string"* %58 to i8*
  call void @llvm.lifetime.start.p0i8(i64 8, i8* nonnull %235) #26
  %236 = bitcast %"class.std::basic_ostringstream"* %49 to i8*
  call void @llvm.lifetime.start.p0i8(i64 352, i8* nonnull %236) #26, !noalias !91
  invoke void @_ZNSt19basic_ostringstreamIcSt11char_traitsIcESaIcEEC1ESt13_Ios_Openmode(%"class.std::basic_ostringstream"* nonnull align 8 dereferenceable(88) %49, i32 16)
          to label %237 unwind label %935

237:                                              ; preds = %224
  %238 = bitcast %"class.std::basic_ostringstream"* %49 to i8**
  %239 = load i8*, i8** %238, align 8, !tbaa !20, !noalias !91
  %240 = getelementptr i8, i8* %239, i64 -24
  %241 = bitcast i8* %240 to i64*
  %242 = load i64, i64* %241, align 8, !noalias !91
  %243 = getelementptr inbounds i8, i8* %236, i64 %242
  %244 = getelementptr inbounds i8, i8* %243, i64 24
  %245 = bitcast i8* %244 to i32*
  %246 = load i32, i32* %245, align 8, !tbaa !94, !noalias !91
  %247 = and i32 %246, -75
  %248 = or i32 %247, 2
  store i32 %248, i32* %245, align 8, !tbaa !100, !noalias !91
  %249 = bitcast %"class.std::basic_ostringstream"* %49 to %"class.std::basic_ostream"*
  %250 = invoke nonnull align 8 dereferenceable(8) %"class.std::basic_ostream"* @_ZNSolsEi(%"class.std::basic_ostream"* nonnull align 8 dereferenceable(8) %249, i32 %225)
          to label %251 unwind label %281, !noalias !91

251:                                              ; preds = %237
  %252 = getelementptr inbounds %"class.std::basic_ostringstream", %"class.std::basic_ostringstream"* %49, i64 0, i32 1
  invoke void @_ZNKSt15basic_stringbufIcSt11char_traitsIcESaIcEE3strEv(%"class.std::basic_string"* nonnull sret(%"class.std::basic_string") align 8 %58, %"class.std::basic_stringbuf"* nonnull align 8 dereferenceable(80) %252)
          to label %253 unwind label %281

253:                                              ; preds = %251
  %254 = load i32 (...)**, i32 (...)*** bitcast ([4 x i8*]* @_ZTTSt19basic_ostringstreamIcSt11char_traitsIcESaIcEE to i32 (...)***), align 8
  %255 = getelementptr inbounds %"class.std::basic_ostringstream", %"class.std::basic_ostringstream"* %49, i64 0, i32 0, i32 0
  store i32 (...)** %254, i32 (...)*** %255, align 8, !tbaa !20, !noalias !91
  %256 = load i32 (...)**, i32 (...)*** bitcast (i8** getelementptr inbounds ([4 x i8*], [4 x i8*]* @_ZTTSt19basic_ostringstreamIcSt11char_traitsIcESaIcEE, i64 0, i64 3) to i32 (...)***), align 8
  %257 = getelementptr i32 (...)*, i32 (...)** %254, i64 -3
  %258 = bitcast i32 (...)** %257 to i64*
  %259 = load i64, i64* %258, align 8
  %260 = getelementptr inbounds i8, i8* %236, i64 %259
  %261 = bitcast i8* %260 to i32 (...)***
  store i32 (...)** %256, i32 (...)*** %261, align 8, !tbaa !20, !noalias !91
  %262 = getelementptr inbounds %"class.std::basic_ostringstream", %"class.std::basic_ostringstream"* %49, i64 0, i32 1, i32 0, i32 0
  store i32 (...)** bitcast (i8** getelementptr inbounds ({ [16 x i8*] }, { [16 x i8*] }* @_ZTVSt15basic_stringbufIcSt11char_traitsIcESaIcEE, i64 0, inrange i32 0, i64 2) to i32 (...)**), i32 (...)*** %262, align 8, !tbaa !20, !noalias !91
  %263 = getelementptr inbounds %"class.std::basic_ostringstream", %"class.std::basic_ostringstream"* %49, i64 0, i32 1, i32 2, i32 0, i32 0
  %264 = load i8*, i8** %263, align 8, !tbaa !16, !noalias !91
  %265 = getelementptr inbounds i8, i8* %264, i64 -24
  %266 = bitcast i8* %265 to %"struct.std::basic_string<char>::_Rep"*
  %267 = getelementptr inbounds %"class.std::allocator.0", %"class.std::allocator.0"* %48, i64 0, i32 0
  call void @llvm.lifetime.start.p0i8(i64 1, i8* nonnull %267) #26, !noalias !91
  %268 = icmp eq i8* %265, bitcast ([0 x i64]* @_ZNSs4_Rep20_S_empty_rep_storageE to i8*)
  br i1 %268, label %283, label %269, !prof !19

269:                                              ; preds = %253
  %270 = getelementptr inbounds i8, i8* %264, i64 -8
  %271 = bitcast i8* %270 to i32*
  br i1 icmp ne (i8* bitcast (i32 (i32*, void (i8*)*)* @__pthread_key_create to i8*), i8* null), label %272, label %274

272:                                              ; preds = %269
  %273 = atomicrmw volatile add i32* %271, i32 -1 acq_rel, align 4
  br label %277

274:                                              ; preds = %269
  %275 = load i32, i32* %271, align 8, !tbaa !7
  %276 = add nsw i32 %275, -1
  store i32 %276, i32* %271, align 8, !tbaa !7
  br label %277

277:                                              ; preds = %274, %272
  %278 = phi i32 [ %273, %272 ], [ %275, %274 ]
  %279 = icmp slt i32 %278, 1
  br i1 %279, label %280, label %283

280:                                              ; preds = %277
  call void @_ZNSs4_Rep10_M_destroyERKSaIcE(%"struct.std::basic_string<char>::_Rep"* nonnull align 8 dereferenceable(24) %266, %"class.std::allocator.0"* nonnull align 1 dereferenceable(1) %48) #26
  br label %283

281:                                              ; preds = %251, %237
  %282 = landingpad { i8*, i32 }
          cleanup
  call void @_ZNSt19basic_ostringstreamIcSt11char_traitsIcESaIcEED1Ev(%"class.std::basic_ostringstream"* nonnull align 8 dereferenceable(88) %49) #26
  call void @llvm.lifetime.end.p0i8(i64 352, i8* nonnull %236) #26, !noalias !91
  br label %951

283:                                              ; preds = %280, %277, %253
  call void @llvm.lifetime.end.p0i8(i64 1, i8* nonnull %267) #26, !noalias !91
  store i32 (...)** bitcast (i8** getelementptr inbounds ({ [16 x i8*] }, { [16 x i8*] }* @_ZTVSt15basic_streambufIcSt11char_traitsIcEE, i64 0, inrange i32 0, i64 2) to i32 (...)**), i32 (...)*** %262, align 8, !tbaa !20, !noalias !91
  %284 = getelementptr inbounds %"class.std::basic_ostringstream", %"class.std::basic_ostringstream"* %49, i64 0, i32 1, i32 0, i32 7
  call void @_ZNSt6localeD1Ev(%"class.std::locale"* nonnull align 8 dereferenceable(8) %284) #26
  %285 = getelementptr inbounds %"class.std::basic_ostringstream", %"class.std::basic_ostringstream"* %49, i64 0, i32 2, i32 0
  call void @_ZNSt8ios_baseD2Ev(%"class.std::ios_base"* nonnull align 8 dereferenceable(216) %285) #26
  call void @llvm.lifetime.end.p0i8(i64 352, i8* nonnull %236) #26, !noalias !91
  call void @llvm.experimental.noalias.scope.decl(metadata !101)
  %286 = invoke nonnull align 8 dereferenceable(8) %"class.std::basic_string"* @_ZNSs6appendEPKcm(%"class.std::basic_string"* nonnull align 8 dereferenceable(8) %58, i8* getelementptr inbounds ([2 x i8], [2 x i8]* @.str.11, i64 0, i64 0), i64 1)
          to label %287 unwind label %937

287:                                              ; preds = %283
  %288 = getelementptr inbounds %"class.std::basic_string", %"class.std::basic_string"* %57, i64 0, i32 0, i32 0
  %289 = getelementptr inbounds %"class.std::basic_string", %"class.std::basic_string"* %286, i64 0, i32 0, i32 0
  %290 = load i8*, i8** %289, align 8, !tbaa !54, !noalias !101
  store i8* %290, i8** %288, align 8, !tbaa !54, !alias.scope !101
  store i8* bitcast (i64* getelementptr inbounds ([0 x i64], [0 x i64]* @_ZNSs4_Rep20_S_empty_rep_storageE, i64 0, i64 3) to i8*), i8** %289, align 8, !tbaa !16, !noalias !101
  %291 = bitcast %"class.std::basic_string"* %59 to i8*
  call void @llvm.lifetime.start.p0i8(i64 8, i8* nonnull %291) #26
  %292 = load i32, i32* %112, align 8, !tbaa !9
  %293 = bitcast %"class.std::basic_ostringstream"* %47 to i8*
  call void @llvm.lifetime.start.p0i8(i64 352, i8* nonnull %293) #26, !noalias !104
  invoke void @_ZNSt19basic_ostringstreamIcSt11char_traitsIcESaIcEEC1ESt13_Ios_Openmode(%"class.std::basic_ostringstream"* nonnull align 8 dereferenceable(88) %47, i32 16)
          to label %294 unwind label %939

294:                                              ; preds = %287
  %295 = bitcast %"class.std::basic_ostringstream"* %47 to i8**
  %296 = load i8*, i8** %295, align 8, !tbaa !20, !noalias !104
  %297 = getelementptr i8, i8* %296, i64 -24
  %298 = bitcast i8* %297 to i64*
  %299 = load i64, i64* %298, align 8, !noalias !104
  %300 = getelementptr inbounds i8, i8* %293, i64 %299
  %301 = getelementptr inbounds i8, i8* %300, i64 24
  %302 = bitcast i8* %301 to i32*
  %303 = load i32, i32* %302, align 8, !tbaa !94, !noalias !104
  %304 = and i32 %303, -75
  %305 = or i32 %304, 2
  store i32 %305, i32* %302, align 8, !tbaa !100, !noalias !104
  %306 = bitcast %"class.std::basic_ostringstream"* %47 to %"class.std::basic_ostream"*
  %307 = invoke nonnull align 8 dereferenceable(8) %"class.std::basic_ostream"* @_ZNSolsEi(%"class.std::basic_ostream"* nonnull align 8 dereferenceable(8) %306, i32 %292)
          to label %308 unwind label %334, !noalias !104

308:                                              ; preds = %294
  %309 = getelementptr inbounds %"class.std::basic_ostringstream", %"class.std::basic_ostringstream"* %47, i64 0, i32 1
  invoke void @_ZNKSt15basic_stringbufIcSt11char_traitsIcESaIcEE3strEv(%"class.std::basic_string"* nonnull sret(%"class.std::basic_string") align 8 %59, %"class.std::basic_stringbuf"* nonnull align 8 dereferenceable(80) %309)
          to label %310 unwind label %334

310:                                              ; preds = %308
  %311 = getelementptr inbounds %"class.std::basic_ostringstream", %"class.std::basic_ostringstream"* %47, i64 0, i32 0, i32 0
  store i32 (...)** %254, i32 (...)*** %311, align 8, !tbaa !20, !noalias !104
  %312 = load i64, i64* %258, align 8
  %313 = getelementptr inbounds i8, i8* %293, i64 %312
  %314 = bitcast i8* %313 to i32 (...)***
  store i32 (...)** %256, i32 (...)*** %314, align 8, !tbaa !20, !noalias !104
  %315 = getelementptr inbounds %"class.std::basic_ostringstream", %"class.std::basic_ostringstream"* %47, i64 0, i32 1, i32 0, i32 0
  store i32 (...)** bitcast (i8** getelementptr inbounds ({ [16 x i8*] }, { [16 x i8*] }* @_ZTVSt15basic_stringbufIcSt11char_traitsIcESaIcEE, i64 0, inrange i32 0, i64 2) to i32 (...)**), i32 (...)*** %315, align 8, !tbaa !20, !noalias !104
  %316 = getelementptr inbounds %"class.std::basic_ostringstream", %"class.std::basic_ostringstream"* %47, i64 0, i32 1, i32 2, i32 0, i32 0
  %317 = load i8*, i8** %316, align 8, !tbaa !16, !noalias !104
  %318 = getelementptr inbounds i8, i8* %317, i64 -24
  %319 = bitcast i8* %318 to %"struct.std::basic_string<char>::_Rep"*
  %320 = getelementptr inbounds %"class.std::allocator.0", %"class.std::allocator.0"* %46, i64 0, i32 0
  call void @llvm.lifetime.start.p0i8(i64 1, i8* nonnull %320) #26, !noalias !104
  %321 = icmp eq i8* %318, bitcast ([0 x i64]* @_ZNSs4_Rep20_S_empty_rep_storageE to i8*)
  br i1 %321, label %336, label %322, !prof !19

322:                                              ; preds = %310
  %323 = getelementptr inbounds i8, i8* %317, i64 -8
  %324 = bitcast i8* %323 to i32*
  br i1 icmp ne (i8* bitcast (i32 (i32*, void (i8*)*)* @__pthread_key_create to i8*), i8* null), label %325, label %327

325:                                              ; preds = %322
  %326 = atomicrmw volatile add i32* %324, i32 -1 acq_rel, align 4
  br label %330

327:                                              ; preds = %322
  %328 = load i32, i32* %324, align 8, !tbaa !7
  %329 = add nsw i32 %328, -1
  store i32 %329, i32* %324, align 8, !tbaa !7
  br label %330

330:                                              ; preds = %327, %325
  %331 = phi i32 [ %326, %325 ], [ %328, %327 ]
  %332 = icmp slt i32 %331, 1
  br i1 %332, label %333, label %336

333:                                              ; preds = %330
  call void @_ZNSs4_Rep10_M_destroyERKSaIcE(%"struct.std::basic_string<char>::_Rep"* nonnull align 8 dereferenceable(24) %319, %"class.std::allocator.0"* nonnull align 1 dereferenceable(1) %46) #26
  br label %336

334:                                              ; preds = %308, %294
  %335 = landingpad { i8*, i32 }
          cleanup
  call void @_ZNSt19basic_ostringstreamIcSt11char_traitsIcESaIcEED1Ev(%"class.std::basic_ostringstream"* nonnull align 8 dereferenceable(88) %47) #26
  call void @llvm.lifetime.end.p0i8(i64 352, i8* nonnull %293) #26, !noalias !104
  br label %947

336:                                              ; preds = %333, %330, %310
  call void @llvm.lifetime.end.p0i8(i64 1, i8* nonnull %320) #26, !noalias !104
  store i32 (...)** bitcast (i8** getelementptr inbounds ({ [16 x i8*] }, { [16 x i8*] }* @_ZTVSt15basic_streambufIcSt11char_traitsIcEE, i64 0, inrange i32 0, i64 2) to i32 (...)**), i32 (...)*** %315, align 8, !tbaa !20, !noalias !104
  %337 = getelementptr inbounds %"class.std::basic_ostringstream", %"class.std::basic_ostringstream"* %47, i64 0, i32 1, i32 0, i32 7
  call void @_ZNSt6localeD1Ev(%"class.std::locale"* nonnull align 8 dereferenceable(8) %337) #26
  %338 = getelementptr inbounds %"class.std::basic_ostringstream", %"class.std::basic_ostringstream"* %47, i64 0, i32 2, i32 0
  call void @_ZNSt8ios_baseD2Ev(%"class.std::ios_base"* nonnull align 8 dereferenceable(216) %338) #26
  call void @llvm.lifetime.end.p0i8(i64 352, i8* nonnull %293) #26, !noalias !104
  call void @llvm.experimental.noalias.scope.decl(metadata !107)
  %339 = load i8*, i8** %288, align 8, !tbaa !16, !noalias !107
  %340 = getelementptr inbounds i8, i8* %339, i64 -24
  %341 = bitcast i8* %340 to i64*
  %342 = load i64, i64* %341, align 8, !tbaa !38, !noalias !107
  %343 = getelementptr inbounds %"class.std::basic_string", %"class.std::basic_string"* %59, i64 0, i32 0, i32 0
  %344 = load i8*, i8** %343, align 8, !tbaa !16, !noalias !107
  %345 = getelementptr inbounds i8, i8* %344, i64 -24
  %346 = bitcast i8* %345 to i64*
  %347 = load i64, i64* %346, align 8, !tbaa !38, !noalias !107
  %348 = add i64 %347, %342
  %349 = getelementptr inbounds i8, i8* %339, i64 -16
  %350 = bitcast i8* %349 to i64*
  %351 = load i64, i64* %350, align 8, !tbaa !110, !noalias !107
  %352 = icmp ugt i64 %348, %351
  br i1 %352, label %353, label %360

353:                                              ; preds = %336
  %354 = getelementptr inbounds i8, i8* %344, i64 -16
  %355 = bitcast i8* %354 to i64*
  %356 = load i64, i64* %355, align 8, !tbaa !110, !noalias !107
  %357 = icmp ugt i64 %348, %356
  br i1 %357, label %360, label %358

358:                                              ; preds = %353
  %359 = invoke nonnull align 8 dereferenceable(8) %"class.std::basic_string"* @_ZNSs6insertEmPKcm(%"class.std::basic_string"* nonnull align 8 dereferenceable(8) %59, i64 0, i8* nonnull %339, i64 %342)
          to label %362 unwind label %941

360:                                              ; preds = %353, %336
  %361 = invoke nonnull align 8 dereferenceable(8) %"class.std::basic_string"* @_ZNSs6appendERKSs(%"class.std::basic_string"* nonnull align 8 dereferenceable(8) %57, %"class.std::basic_string"* nonnull align 8 dereferenceable(8) %59)
          to label %362 unwind label %941

362:                                              ; preds = %358, %360
  %363 = phi %"class.std::basic_string"* [ %359, %358 ], [ %361, %360 ]
  %364 = getelementptr inbounds %"class.std::basic_string", %"class.std::basic_string"* %56, i64 0, i32 0, i32 0
  %365 = getelementptr inbounds %"class.std::basic_string", %"class.std::basic_string"* %363, i64 0, i32 0, i32 0
  %366 = load i8*, i8** %365, align 8, !tbaa !54, !noalias !107
  store i8* %366, i8** %364, align 8, !tbaa !54, !alias.scope !107
  store i8* bitcast (i64* getelementptr inbounds ([0 x i64], [0 x i64]* @_ZNSs4_Rep20_S_empty_rep_storageE, i64 0, i64 3) to i8*), i8** %365, align 8, !tbaa !16, !noalias !107
  invoke void @_ZNSs4swapERSs(%"class.std::basic_string"* nonnull align 8 dereferenceable(8) %107, %"class.std::basic_string"* nonnull align 8 dereferenceable(8) %56)
          to label %367 unwind label %943

367:                                              ; preds = %362
  %368 = load i8*, i8** %364, align 8, !tbaa !16
  %369 = getelementptr inbounds i8, i8* %368, i64 -24
  %370 = bitcast i8* %369 to %"struct.std::basic_string<char>::_Rep"*
  %371 = getelementptr inbounds %"class.std::allocator.0", %"class.std::allocator.0"* %45, i64 0, i32 0
  call void @llvm.lifetime.start.p0i8(i64 1, i8* nonnull %371) #26
  %372 = icmp eq i8* %369, bitcast ([0 x i64]* @_ZNSs4_Rep20_S_empty_rep_storageE to i8*)
  br i1 %372, label %385, label %373, !prof !19

373:                                              ; preds = %367
  %374 = getelementptr inbounds i8, i8* %368, i64 -8
  %375 = bitcast i8* %374 to i32*
  br i1 icmp ne (i8* bitcast (i32 (i32*, void (i8*)*)* @__pthread_key_create to i8*), i8* null), label %376, label %378

376:                                              ; preds = %373
  %377 = atomicrmw volatile add i32* %375, i32 -1 acq_rel, align 4
  br label %381

378:                                              ; preds = %373
  %379 = load i32, i32* %375, align 8, !tbaa !7
  %380 = add nsw i32 %379, -1
  store i32 %380, i32* %375, align 8, !tbaa !7
  br label %381

381:                                              ; preds = %378, %376
  %382 = phi i32 [ %377, %376 ], [ %379, %378 ]
  %383 = icmp slt i32 %382, 1
  br i1 %383, label %384, label %385

384:                                              ; preds = %381
  call void @_ZNSs4_Rep10_M_destroyERKSaIcE(%"struct.std::basic_string<char>::_Rep"* nonnull align 8 dereferenceable(24) %370, %"class.std::allocator.0"* nonnull align 1 dereferenceable(1) %45) #26
  br label %385

385:                                              ; preds = %367, %381, %384
  call void @llvm.lifetime.end.p0i8(i64 1, i8* nonnull %371) #26
  %386 = load i8*, i8** %343, align 8, !tbaa !16
  %387 = getelementptr inbounds i8, i8* %386, i64 -24
  %388 = bitcast i8* %387 to %"struct.std::basic_string<char>::_Rep"*
  %389 = getelementptr inbounds %"class.std::allocator.0", %"class.std::allocator.0"* %44, i64 0, i32 0
  call void @llvm.lifetime.start.p0i8(i64 1, i8* nonnull %389) #26
  %390 = icmp eq i8* %387, bitcast ([0 x i64]* @_ZNSs4_Rep20_S_empty_rep_storageE to i8*)
  br i1 %390, label %403, label %391, !prof !19

391:                                              ; preds = %385
  %392 = getelementptr inbounds i8, i8* %386, i64 -8
  %393 = bitcast i8* %392 to i32*
  br i1 icmp ne (i8* bitcast (i32 (i32*, void (i8*)*)* @__pthread_key_create to i8*), i8* null), label %394, label %396

394:                                              ; preds = %391
  %395 = atomicrmw volatile add i32* %393, i32 -1 acq_rel, align 4
  br label %399

396:                                              ; preds = %391
  %397 = load i32, i32* %393, align 8, !tbaa !7
  %398 = add nsw i32 %397, -1
  store i32 %398, i32* %393, align 8, !tbaa !7
  br label %399

399:                                              ; preds = %396, %394
  %400 = phi i32 [ %395, %394 ], [ %397, %396 ]
  %401 = icmp slt i32 %400, 1
  br i1 %401, label %402, label %403

402:                                              ; preds = %399
  call void @_ZNSs4_Rep10_M_destroyERKSaIcE(%"struct.std::basic_string<char>::_Rep"* nonnull align 8 dereferenceable(24) %388, %"class.std::allocator.0"* nonnull align 1 dereferenceable(1) %44) #26
  br label %403

403:                                              ; preds = %385, %399, %402
  call void @llvm.lifetime.end.p0i8(i64 1, i8* nonnull %389) #26
  call void @llvm.lifetime.end.p0i8(i64 8, i8* nonnull %291) #26
  %404 = load i8*, i8** %288, align 8, !tbaa !16
  %405 = getelementptr inbounds i8, i8* %404, i64 -24
  %406 = bitcast i8* %405 to %"struct.std::basic_string<char>::_Rep"*
  %407 = getelementptr inbounds %"class.std::allocator.0", %"class.std::allocator.0"* %43, i64 0, i32 0
  call void @llvm.lifetime.start.p0i8(i64 1, i8* nonnull %407) #26
  %408 = icmp eq i8* %405, bitcast ([0 x i64]* @_ZNSs4_Rep20_S_empty_rep_storageE to i8*)
  br i1 %408, label %421, label %409, !prof !19

409:                                              ; preds = %403
  %410 = getelementptr inbounds i8, i8* %404, i64 -8
  %411 = bitcast i8* %410 to i32*
  br i1 icmp ne (i8* bitcast (i32 (i32*, void (i8*)*)* @__pthread_key_create to i8*), i8* null), label %412, label %414

412:                                              ; preds = %409
  %413 = atomicrmw volatile add i32* %411, i32 -1 acq_rel, align 4
  br label %417

414:                                              ; preds = %409
  %415 = load i32, i32* %411, align 8, !tbaa !7
  %416 = add nsw i32 %415, -1
  store i32 %416, i32* %411, align 8, !tbaa !7
  br label %417

417:                                              ; preds = %414, %412
  %418 = phi i32 [ %413, %412 ], [ %415, %414 ]
  %419 = icmp slt i32 %418, 1
  br i1 %419, label %420, label %421

420:                                              ; preds = %417
  call void @_ZNSs4_Rep10_M_destroyERKSaIcE(%"struct.std::basic_string<char>::_Rep"* nonnull align 8 dereferenceable(24) %406, %"class.std::allocator.0"* nonnull align 1 dereferenceable(1) %43) #26
  br label %421

421:                                              ; preds = %403, %417, %420
  call void @llvm.lifetime.end.p0i8(i64 1, i8* nonnull %407) #26
  %422 = getelementptr inbounds %"class.std::basic_string", %"class.std::basic_string"* %58, i64 0, i32 0, i32 0
  %423 = load i8*, i8** %422, align 8, !tbaa !16
  %424 = getelementptr inbounds i8, i8* %423, i64 -24
  %425 = bitcast i8* %424 to %"struct.std::basic_string<char>::_Rep"*
  %426 = getelementptr inbounds %"class.std::allocator.0", %"class.std::allocator.0"* %42, i64 0, i32 0
  call void @llvm.lifetime.start.p0i8(i64 1, i8* nonnull %426) #26
  %427 = icmp eq i8* %424, bitcast ([0 x i64]* @_ZNSs4_Rep20_S_empty_rep_storageE to i8*)
  br i1 %427, label %440, label %428, !prof !19

428:                                              ; preds = %421
  %429 = getelementptr inbounds i8, i8* %423, i64 -8
  %430 = bitcast i8* %429 to i32*
  br i1 icmp ne (i8* bitcast (i32 (i32*, void (i8*)*)* @__pthread_key_create to i8*), i8* null), label %431, label %433

431:                                              ; preds = %428
  %432 = atomicrmw volatile add i32* %430, i32 -1 acq_rel, align 4
  br label %436

433:                                              ; preds = %428
  %434 = load i32, i32* %430, align 8, !tbaa !7
  %435 = add nsw i32 %434, -1
  store i32 %435, i32* %430, align 8, !tbaa !7
  br label %436

436:                                              ; preds = %433, %431
  %437 = phi i32 [ %432, %431 ], [ %434, %433 ]
  %438 = icmp slt i32 %437, 1
  br i1 %438, label %439, label %440

439:                                              ; preds = %436
  call void @_ZNSs4_Rep10_M_destroyERKSaIcE(%"struct.std::basic_string<char>::_Rep"* nonnull align 8 dereferenceable(24) %425, %"class.std::allocator.0"* nonnull align 1 dereferenceable(1) %42) #26
  br label %440

440:                                              ; preds = %421, %436, %439
  call void @llvm.lifetime.end.p0i8(i64 1, i8* nonnull %426) #26
  call void @llvm.lifetime.end.p0i8(i64 8, i8* nonnull %235) #26
  call void @llvm.lifetime.end.p0i8(i64 8, i8* nonnull %234) #26
  call void @llvm.lifetime.end.p0i8(i64 8, i8* nonnull %233) #26
  %441 = bitcast %"class.std::basic_string"* %60 to i8*
  call void @llvm.lifetime.start.p0i8(i64 8, i8* nonnull %441) #26
  %442 = bitcast %"class.std::basic_string"* %61 to i8*
  call void @llvm.lifetime.start.p0i8(i64 8, i8* nonnull %442) #26
  %443 = bitcast %"class.std::basic_string"* %62 to i8*
  call void @llvm.lifetime.start.p0i8(i64 8, i8* nonnull %443) #26
  %444 = getelementptr inbounds %class.MatrixMultiplication, %class.MatrixMultiplication* %0, i64 0, i32 9
  %445 = load i32, i32* %444, align 4, !tbaa !28
  %446 = bitcast %"class.std::basic_ostringstream"* %41 to i8*
  call void @llvm.lifetime.start.p0i8(i64 352, i8* nonnull %446) #26, !noalias !111
  invoke void @_ZNSt19basic_ostringstreamIcSt11char_traitsIcESaIcEEC1ESt13_Ios_Openmode(%"class.std::basic_ostringstream"* nonnull align 8 dereferenceable(88) %41, i32 16)
