; ModuleID = 'histogram/histogram.cpp'
source_filename = "histogram/histogram.cpp"
target datalayout = "e-m:e-p270:32:32-p271:32:32-p272:64:64-i64:64-f80:128-n8:16:32:64-S128"
target triple = "x86_64-unknown-linux-gnu"

%"class.std::ios_base::Init" = type { i8 }
%"class.std::basic_ostream" = type { i32 (...)**, %"class.std::basic_ios" }
%"class.std::basic_ios" = type { %"class.std::ios_base", %"class.std::basic_ostream"*, i8, i8, %"class.std::basic_streambuf"*, %"class.std::ctype"*, %"class.std::num_put"*, %"class.std::num_get"* }
%"class.std::ios_base" = type { i32 (...)**, i64, i64, i32, i32, i32, %"struct.std::ios_base::_Callback_list"*, %"struct.std::ios_base::_Words", [8 x %"struct.std::ios_base::_Words"], i32, %"struct.std::ios_base::_Words"*, %"class.std::locale" }
%"struct.std::ios_base::_Callback_list" = type { %"struct.std::ios_base::_Callback_list"*, void (i32, %"class.std::ios_base"*, i32)*, i32, i32 }
%"struct.std::ios_base::_Words" = type { i8*, i64 }
%"class.std::locale" = type { %"class.std::locale::_Impl"* }
%"class.std::locale::_Impl" = type { i32, %"class.std::locale::facet"**, i64, %"class.std::locale::facet"**, i8** }
%"class.std::locale::facet" = type <{ i32 (...)**, i32, [4 x i8] }>
%"class.std::basic_streambuf" = type { i32 (...)**, i8*, i8*, i8*, i8*, i8*, i8*, %"class.std::locale" }
%"class.std::ctype" = type <{ %"class.std::locale::facet.base", [4 x i8], %struct.__locale_struct*, i8, [7 x i8], i32*, i32*, i16*, i8, [256 x i8], [256 x i8], i8, [6 x i8] }>
%"class.std::locale::facet.base" = type <{ i32 (...)**, i32 }>
%struct.__locale_struct = type { [13 x %struct.__locale_data*], i16*, i32*, i32*, [13 x i8*] }
%struct.__locale_data = type opaque
%"class.std::num_put" = type { %"class.std::locale::facet.base", [4 x i8] }
%"class.std::num_get" = type { %"class.std::locale::facet.base", [4 x i8] }
%struct.dim3 = type { i32, i32, i32 }
%struct.ihipStream_t = type opaque
%class.Histogram = type { i32, i32, i32, i32*, i32, i32, i32*, i32*, i32*, double, double, i64, i64, i32*, i32*, i32, i8, i8, i32, i32, i32, i32, %"class.appsdk::SDKTimer"*, %"class.appsdk::HIPCommandArgs"* }
%"class.appsdk::SDKTimer" = type { %"class.std::vector", double }
%"class.std::vector" = type { %"struct.std::_Vector_base" }
%"struct.std::_Vector_base" = type { %"struct.std::_Vector_base<appsdk::SDKTimer::Timer *, std::allocator<appsdk::SDKTimer::Timer *>>::_Vector_impl" }
%"struct.std::_Vector_base<appsdk::SDKTimer::Timer *, std::allocator<appsdk::SDKTimer::Timer *>>::_Vector_impl" = type { %"struct.appsdk::SDKTimer::Timer"**, %"struct.appsdk::SDKTimer::Timer"**, %"struct.appsdk::SDKTimer::Timer"** }
%"struct.appsdk::SDKTimer::Timer" = type { %"class.std::basic_string", i64, i64, i64 }
%"class.std::basic_string" = type { %"struct.std::basic_string<char>::_Alloc_hider" }
%"struct.std::basic_string<char>::_Alloc_hider" = type { i8* }
%"class.appsdk::HIPCommandArgs" = type <{ %"class.appsdk::SDKCmdArgsParser", i32, i8, [3 x i8] }>
%"class.appsdk::SDKCmdArgsParser" = type { i32 (...)**, i32, i32, i32, i8**, %"struct.appsdk::Option"*, i8, %"class.std::basic_string", %"struct.appsdk::sdkVersionStr", i8, i8, i8, %"class.std::basic_string" }
%"struct.appsdk::Option" = type { %"class.std::basic_string", %"class.std::basic_string", %"class.std::basic_string", %"class.std::basic_string", i32, i8* }
%"struct.appsdk::sdkVersionStr" = type { i32, i32, i32, i32, i32 }
%"class.std::allocator.0" = type { i8 }
%"struct.std::basic_string<char>::_Rep" = type { %"struct.std::basic_string<char>::_Rep_base" }
%"struct.std::basic_string<char>::_Rep_base" = type { i64, i64, i32 }
%struct.hipDeviceProp_t = type { [256 x i8], i64, i64, i32, i32, i32, [3 x i32], [3 x i32], i32, i32, i32, i64, i32, i32, i32, i32, i32, i32, i32, %struct.hipDeviceArch_t, i32, i32, i32, i32, i64, i32, i32, i32, [256 x i8], i32, i32, i32, i32, i32, [2 x i32], [3 x i32], i32*, i32*, i64, i64, i64, i32, i32, i32, i32, i32, i32, i32, i32, i32, i32, i32, i32, i32, i32 }
%struct.hipDeviceArch_t = type { i32 }
%struct.ihipEvent_t = type opaque
%struct.timeval = type { i64, i64 }
%struct.timezone = type { i32, i32 }
%"class.std::basic_ostringstream" = type { %"class.std::basic_ostream.base", %"class.std::basic_stringbuf", %"class.std::basic_ios" }
%"class.std::basic_ostream.base" = type { i32 (...)** }
%"class.std::basic_stringbuf" = type { %"class.std::basic_streambuf", i32, %"class.std::basic_string" }

$_ZN6appsdk14HIPCommandArgs10initializeEv = comdat any

$_ZN6appsdk16SDKCmdArgsParser9AddOptionEPNS_6OptionE = comdat any

$_ZN6appsdk6OptionD2Ev = comdat any

$_ZN6appsdk8SDKTimer11createTimerEv = comdat any

$_ZN6appsdk8SDKTimer10startTimerEi = comdat any

$_ZN6appsdk8SDKTimer9stopTimerEi = comdat any

$_ZN6appsdk8SDKTimer9readTimerEi = comdat any

$_ZN6appsdk10printArrayIjEEvSsPKT_ii = comdat any

$_ZN6appsdk14HIPCommandArgs16parseCommandLineEiPPc = comdat any

$_ZN6appsdk16SDKCmdArgsParserD2Ev = comdat any

$_ZN6appsdk14HIPCommandArgsD0Ev = comdat any

$_ZN6appsdk16SDKCmdArgsParser5usageEv = comdat any

$_ZN6appsdk16SDKCmdArgsParser5matchEPPci = comdat any

$_ZN6appsdk16SDKCmdArgsParser4helpEv = comdat any

$_ZTVN6appsdk14HIPCommandArgsE = comdat any

$_ZTSN6appsdk14HIPCommandArgsE = comdat any

$_ZTSN6appsdk16SDKCmdArgsParserE = comdat any

$_ZTIN6appsdk16SDKCmdArgsParserE = comdat any

$_ZTIN6appsdk14HIPCommandArgsE = comdat any

$_ZTVN6appsdk16SDKCmdArgsParserE = comdat any

$__hip_gpubin_handle = comdat any

@_ZStL8__ioinit = internal global %"class.std::ios_base::Init" zeroinitializer, align 1
@__dso_handle = external hidden global i8
@_Z12histogram256PjS_ = dso_local constant void (i32*, i32*)* @_Z27__device_stub__histogram256PjS_, align 8
@.str = private unnamed_addr constant [42 x i8] c"Failed to allocate host memory. (hostBin)\00", align 1
@_ZSt4cout = external dso_local global %"class.std::basic_ostream", align 8
@.str.2 = private unnamed_addr constant [12 x i8] c"Location : \00", align 1
@.str.3 = private unnamed_addr constant [24 x i8] c"histogram/histogram.cpp\00", align 1
@.str.4 = private unnamed_addr constant [2 x i8] c":\00", align 1
@.str.5 = private unnamed_addr constant [44 x i8] c"Failed to allocate host memory. (deviceBin)\00", align 1
@.str.6 = private unnamed_addr constant [78 x i8] c"Ignoring --scalar and --vector option and using the default vector width of 4\00", align 1
@.str.7 = private unnamed_addr constant [25 x i8] c"Selecting scalar kernel\0A\00", align 1
@.str.8 = private unnamed_addr constant [25 x i8] c"Selecting vector kernel\0A\00", align 1
@.str.9 = private unnamed_addr constant [15 x i8] c" System minor \00", align 1
@.str.10 = private unnamed_addr constant [15 x i8] c" System major \00", align 1
@.str.11 = private unnamed_addr constant [18 x i8] c" agent prop name \00", align 1
@.str.12 = private unnamed_addr constant [44 x i8] c"kernel_time (hipEventElapsedTime) =%6.3fms\0A\00", align 1
@.str.14 = private unnamed_addr constant [2 x i8] c"x\00", align 1
@.str.15 = private unnamed_addr constant [6 x i8] c"width\00", align 1
@.str.16 = private unnamed_addr constant [19 x i8] c"Width of the input\00", align 1
@.str.17 = private unnamed_addr constant [2 x i8] c"y\00", align 1
@.str.18 = private unnamed_addr constant [7 x i8] c"height\00", align 1
@.str.19 = private unnamed_addr constant [20 x i8] c"Height of the input\00", align 1
@.str.20 = private unnamed_addr constant [2 x i8] c"i\00", align 1
@.str.21 = private unnamed_addr constant [11 x i8] c"iterations\00", align 1
@.str.22 = private unnamed_addr constant [39 x i8] c"Number of iterations to execute kernel\00", align 1
@.str.23 = private unnamed_addr constant [1 x i8] zeroinitializer, align 1
@.str.24 = private unnamed_addr constant [7 x i8] c"scalar\00", align 1
@.str.25 = private unnamed_addr constant [88 x i8] c"Run scalar version of the kernel (--scalar and --vector options are mutually exclusive)\00", align 1
@.str.26 = private unnamed_addr constant [7 x i8] c"vector\00", align 1
@.str.27 = private unnamed_addr constant [88 x i8] c"Run vector version of the kernel (--scalar and --vector options are mutually exclusive)\00", align 1
@.str.28 = private unnamed_addr constant [54 x i8] c"Error, iterations cannot be 0 or negative. Exiting..\0A\00", align 1
@.str.29 = private unnamed_addr constant [29 x i8] c"Sample Resource Setup Failed\00", align 1
@.str.30 = private unnamed_addr constant [22 x i8] c"Executing kernel for \00", align 1
@.str.31 = private unnamed_addr constant [12 x i8] c" iterations\00", align 1
@.str.32 = private unnamed_addr constant [44 x i8] c"-------------------------------------------\00", align 1
@.str.33 = private unnamed_addr constant [10 x i8] c"deviceBin\00", align 1
@.str.34 = private unnamed_addr constant [8 x i8] c"hostBin\00", align 1
@.str.35 = private unnamed_addr constant [9 x i8] c"Passed!\0A\00", align 1
@.str.36 = private unnamed_addr constant [8 x i8] c"Failed\0A\00", align 1
@.str.37 = private unnamed_addr constant [6 x i8] c"Width\00", align 1
@.str.38 = private unnamed_addr constant [7 x i8] c"Height\00", align 1
@.str.39 = private unnamed_addr constant [16 x i8] c"Setup Time(sec)\00", align 1
@.str.40 = private unnamed_addr constant [23 x i8] c"Avg. Kernel Time (sec)\00", align 1
@.str.41 = private unnamed_addr constant [13 x i8] c"Elements/sec\00", align 1
@.str.42 = private unnamed_addr constant [8 x i8] c"Error: \00", align 1
@.str.45 = private unnamed_addr constant [2 x i8] c"q\00", align 1
@.str.46 = private unnamed_addr constant [6 x i8] c"quiet\00", align 1
@.str.47 = private unnamed_addr constant [38 x i8] c"Quiet mode. Suppress all text output.\00", align 1
@.str.48 = private unnamed_addr constant [2 x i8] c"e\00", align 1
@.str.49 = private unnamed_addr constant [7 x i8] c"verify\00", align 1
@.str.50 = private unnamed_addr constant [49 x i8] c"Verify results against reference implementation.\00", align 1
@.str.51 = private unnamed_addr constant [2 x i8] c"t\00", align 1
@.str.52 = private unnamed_addr constant [7 x i8] c"timing\00", align 1
@.str.53 = private unnamed_addr constant [14 x i8] c"Print timing.\00", align 1
@.str.54 = private unnamed_addr constant [2 x i8] c"v\00", align 1
@.str.55 = private unnamed_addr constant [8 x i8] c"version\00", align 1
@.str.56 = private unnamed_addr constant [28 x i8] c"AMD APP SDK version string.\00", align 1
@.str.57 = private unnamed_addr constant [2 x i8] c"d\00", align 1
@.str.58 = private unnamed_addr constant [9 x i8] c"deviceId\00", align 1
@.str.59 = private unnamed_addr constant [74 x i8] c"Select deviceId to be used[0 to N-1 where N is number devices available].\00", align 1
@.str.60 = private unnamed_addr constant [37 x i8] c"Error. Cannot add option, NULL input\00", align 1
@.str.64 = private unnamed_addr constant [36 x i8] c"Cannot reset timer. Invalid handle.\00", align 1
@.str.65 = private unnamed_addr constant [35 x i8] c"Cannot read timer. Invalid handle.\00", align 1
@.str.66 = private unnamed_addr constant [2 x i8] c"|\00", align 1
@.str.67 = private unnamed_addr constant [2 x i8] c" \00", align 1
@.str.68 = private unnamed_addr constant [2 x i8] c"-\00", align 1
@.str.69 = private unnamed_addr constant [31 x i8] c"HIP-Examples-Applications-v1.0\00", align 1
@_ZTVN6appsdk14HIPCommandArgsE = linkonce_odr dso_local unnamed_addr constant { [5 x i8*] } { [5 x i8*] [i8* null, i8* bitcast ({ i8*, i8*, i8* }* @_ZTIN6appsdk14HIPCommandArgsE to i8*), i8* bitcast (i32 (%"class.appsdk::HIPCommandArgs"*, i32, i8**)* @_ZN6appsdk14HIPCommandArgs16parseCommandLineEiPPc to i8*), i8* bitcast (void (%"class.appsdk::SDKCmdArgsParser"*)* @_ZN6appsdk16SDKCmdArgsParserD2Ev to i8*), i8* bitcast (void (%"class.appsdk::HIPCommandArgs"*)* @_ZN6appsdk14HIPCommandArgsD0Ev to i8*)] }, comdat, align 8
@_ZTVN10__cxxabiv120__si_class_type_infoE = external dso_local global i8*
@_ZTSN6appsdk14HIPCommandArgsE = linkonce_odr dso_local constant [26 x i8] c"N6appsdk14HIPCommandArgsE\00", comdat, align 1
@_ZTVN10__cxxabiv117__class_type_infoE = external dso_local global i8*
@_ZTSN6appsdk16SDKCmdArgsParserE = linkonce_odr dso_local constant [28 x i8] c"N6appsdk16SDKCmdArgsParserE\00", comdat, align 1
@_ZTIN6appsdk16SDKCmdArgsParserE = linkonce_odr dso_local constant { i8*, i8* } { i8* bitcast (i8** getelementptr inbounds (i8*, i8** @_ZTVN10__cxxabiv117__class_type_infoE, i64 2) to i8*), i8* getelementptr inbounds ([28 x i8], [28 x i8]* @_ZTSN6appsdk16SDKCmdArgsParserE, i32 0, i32 0) }, comdat, align 8
@_ZTIN6appsdk14HIPCommandArgsE = linkonce_odr dso_local constant { i8*, i8*, i8* } { i8* bitcast (i8** getelementptr inbounds (i8*, i8** @_ZTVN10__cxxabiv120__si_class_type_infoE, i64 2) to i8*), i8* getelementptr inbounds ([26 x i8], [26 x i8]* @_ZTSN6appsdk14HIPCommandArgsE, i32 0, i32 0), i8* bitcast ({ i8*, i8* }* @_ZTIN6appsdk16SDKCmdArgsParserE to i8*) }, comdat, align 8
@_ZTVN6appsdk16SDKCmdArgsParserE = linkonce_odr dso_local unnamed_addr constant { [3 x i8*] } { [3 x i8*] [i8* null, i8* bitcast ({ i8*, i8* }* @_ZTIN6appsdk16SDKCmdArgsParserE to i8*), i8* bitcast (void ()* @__cxa_pure_virtual to i8*)] }, comdat, align 8
@.str.70 = private unnamed_addr constant [2 x i8] c"h\00", align 1
@.str.71 = private unnamed_addr constant [15 x i8] c"SDK version : \00", align 1
@.str.72 = private unnamed_addr constant [3 x i8] c"%f\00", align 1
@.str.73 = private unnamed_addr constant [30 x i8] c"Error. Missing argument for \22\00", align 1
@.str.74 = private unnamed_addr constant [3 x i8] c"\22\0A\00", align 1
@.str.75 = private unnamed_addr constant [4 x i8] c"%lf\00", align 1
@.str.76 = private unnamed_addr constant [3 x i8] c"%d\00", align 1
@_ZNSs4_Rep20_S_empty_rep_storageE = external dso_local global [0 x i64], align 8
@.str.77 = private unnamed_addr constant [7 x i8] c"Usage\0A\00", align 1
@.str.78 = private unnamed_addr constant [5 x i8] c"-h, \00", align 1
@.str.79 = private unnamed_addr constant [7 x i8] c"--help\00", align 1
@.str.80 = private unnamed_addr constant [26 x i8] c"Display this information\0A\00", align 1
@.str.81 = private unnamed_addr constant [3 x i8] c", \00", align 1
@.str.82 = private unnamed_addr constant [5 x i8] c"    \00", align 1
@.str.83 = private unnamed_addr constant [3 x i8] c"--\00", align 1
@.str.84 = private unnamed_addr constant [2 x i8] c"\0A\00", align 1
@_ZTTSt19basic_ostringstreamIcSt11char_traitsIcESaIcEE = external unnamed_addr constant [4 x i8*], align 8
@_ZTVSt15basic_stringbufIcSt11char_traitsIcESaIcEE = external dso_local unnamed_addr constant { [16 x i8*] }, align 8
@_ZTVSt15basic_streambufIcSt11char_traitsIcEE = external dso_local unnamed_addr constant { [16 x i8*] }, align 8
@0 = private unnamed_addr constant [21 x i8] c"_Z12histogram256PjS_\00", align 1
@__hip_fatbin = external constant i8, section ".hip_fatbin"
@__hip_fatbin_wrapper = internal constant { i32, i32, i8*, i8* } { i32 1212764230, i32 1, i8* @__hip_fatbin, i8* null }, section ".hipFatBinSegment", align 8
@__hip_gpubin_handle = linkonce hidden local_unnamed_addr global i8** null, comdat, align 8
@llvm.global_ctors = appending global [2 x { i32, void ()*, i8* }] [{ i32, void ()*, i8* } { i32 65535, void ()* @_GLOBAL__sub_I_histogram.cpp, i8* null }, { i32, void ()*, i8* } { i32 65535, void ()* bitcast (void (i8*)* @__hip_module_ctor to void ()*), i8* null }]

declare dso_local void @_ZNSt8ios_base4InitC1Ev(%"class.std::ios_base::Init"* nonnull align 1 dereferenceable(1)) unnamed_addr #0

; Function Attrs: nounwind
declare dso_local void @_ZNSt8ios_base4InitD1Ev(%"class.std::ios_base::Init"* nonnull align 1 dereferenceable(1)) unnamed_addr #1

; Function Attrs: nofree nounwind
declare dso_local i32 @__cxa_atexit(void (i8*)*, i8*, i8*) local_unnamed_addr #2

; Function Attrs: norecurse uwtable
define dso_local void @_Z27__device_stub__histogram256PjS_(i32* %0, i32* %1) #3 {
  %3 = alloca i32*, align 8
  %4 = alloca i32*, align 8
  %5 = alloca %struct.dim3, align 8
  %6 = alloca %struct.dim3, align 8
  %7 = alloca i64, align 8
  %8 = alloca i8*, align 8
  store i32* %0, i32** %3, align 8, !tbaa !3
  store i32* %1, i32** %4, align 8, !tbaa !3
  %9 = alloca [2 x i8*], align 16
  %10 = getelementptr inbounds [2 x i8*], [2 x i8*]* %9, i64 0, i64 0
  %11 = bitcast [2 x i8*]* %9 to i32***
  store i32** %3, i32*** %11, align 16
  %12 = getelementptr inbounds [2 x i8*], [2 x i8*]* %9, i64 0, i64 1
  %13 = bitcast i8** %12 to i32***
  store i32** %4, i32*** %13, align 8
  %14 = call i32 @__hipPopCallConfiguration(%struct.dim3* nonnull %5, %struct.dim3* nonnull %6, i64* nonnull %7, i8** nonnull %8)
  %15 = load i64, i64* %7, align 8
  %16 = bitcast i8** %8 to %struct.ihipStream_t**
  %17 = load %struct.ihipStream_t*, %struct.ihipStream_t** %16, align 8
  %18 = bitcast %struct.dim3* %5 to i64*
  %19 = load i64, i64* %18, align 8
  %20 = getelementptr inbounds %struct.dim3, %struct.dim3* %5, i64 0, i32 2
  %21 = load i32, i32* %20, align 8
  %22 = bitcast %struct.dim3* %6 to i64*
  %23 = load i64, i64* %22, align 8
  %24 = getelementptr inbounds %struct.dim3, %struct.dim3* %6, i64 0, i32 2
  %25 = load i32, i32* %24, align 8
  %26 = call i32 @hipLaunchKernel(i8* bitcast (void (i32*, i32*)** @_Z12histogram256PjS_ to i8*), i64 %19, i32 %21, i64 %23, i32 %25, i8** nonnull %10, i64 %15, %struct.ihipStream_t* %17)
  ret void
}

declare dso_local i32 @__hipPopCallConfiguration(%struct.dim3*, %struct.dim3*, i64*, i8**) local_unnamed_addr

declare dso_local i32 @hipLaunchKernel(i8*, i64, i32, i64, i32, i8**, i64, %struct.ihipStream_t*) local_unnamed_addr

; Function Attrs: argmemonly mustprogress nofree nounwind willreturn
declare void @llvm.memcpy.p0i8.p0i8.i64(i8* noalias nocapture writeonly, i8* noalias nocapture readonly, i64, i1 immarg) #4

; Function Attrs: mustprogress nofree norecurse nosync nounwind uwtable
define dso_local i32 @_ZN9Histogram16calculateHostBinEv(%class.Histogram* nocapture nonnull readonly align 8 dereferenceable(144) %0) local_unnamed_addr #5 align 2 {
  %2 = getelementptr inbounds %class.Histogram, %class.Histogram* %0, i64 0, i32 5
  %3 = getelementptr inbounds %class.Histogram, %class.Histogram* %0, i64 0, i32 4
  %4 = getelementptr inbounds %class.Histogram, %class.Histogram* %0, i64 0, i32 6
  %5 = getelementptr inbounds %class.Histogram, %class.Histogram* %0, i64 0, i32 3
  %6 = load i32, i32* %2, align 4, !tbaa !7
  %7 = icmp sgt i32 %6, 0
  %8 = load i32, i32* %3, align 8
  %9 = icmp sgt i32 %8, 0
  %10 = select i1 %7, i1 %9, i1 false
  br i1 %10, label %11, label %18

11:                                               ; preds = %1, %21
  %12 = phi i32 [ %22, %21 ], [ %6, %1 ]
  %13 = phi i32 [ %23, %21 ], [ %8, %1 ]
  %14 = phi i32 [ %24, %21 ], [ 0, %1 ]
  %15 = load i32*, i32** %4, align 8
  %16 = load i32*, i32** %5, align 8
  %17 = icmp sgt i32 %13, 0
  br i1 %17, label %26, label %21

18:                                               ; preds = %21, %1
  ret i32 0

19:                                               ; preds = %26
  %20 = load i32, i32* %2, align 4, !tbaa !7
  br label %21

21:                                               ; preds = %19, %11
  %22 = phi i32 [ %20, %19 ], [ %12, %11 ]
  %23 = phi i32 [ %39, %19 ], [ %13, %11 ]
  %24 = add nuw nsw i32 %14, 1
  %25 = icmp slt i32 %24, %22
  br i1 %25, label %11, label %18, !llvm.loop !13

26:                                               ; preds = %11, %26
  %27 = phi i32 [ %39, %26 ], [ %13, %11 ]
  %28 = phi i32 [ %38, %26 ], [ 0, %11 ]
  %29 = mul nsw i32 %27, %14
  %30 = add nsw i32 %29, %28
  %31 = sext i32 %30 to i64
  %32 = getelementptr inbounds i32, i32* %16, i64 %31
  %33 = load i32, i32* %32, align 4, !tbaa !16
  %34 = zext i32 %33 to i64
  %35 = getelementptr inbounds i32, i32* %15, i64 %34
  %36 = load i32, i32* %35, align 4, !tbaa !16
  %37 = add i32 %36, 1
  store i32 %37, i32* %35, align 4, !tbaa !16
  %38 = add nuw nsw i32 %28, 1
  %39 = load i32, i32* %3, align 8, !tbaa !17
  %40 = icmp slt i32 %38, %39
  br i1 %40, label %26, label %19, !llvm.loop !18
}

; Function Attrs: argmemonly mustprogress nofree nosync nounwind willreturn
declare void @llvm.lifetime.start.p0i8(i64 immarg, i8* nocapture) #6

; Function Attrs: argmemonly mustprogress nofree nosync nounwind willreturn
declare void @llvm.lifetime.end.p0i8(i64 immarg, i8* nocapture) #6

; Function Attrs: uwtable
define dso_local i32 @_ZN9Histogram14setupHistogramEv(%class.Histogram* nocapture nonnull align 8 dereferenceable(144) %0) local_unnamed_addr #7 align 2 personality i8* bitcast (i32 (...)* @__gxx_personality_v0 to i8*) {
  %2 = alloca %"class.std::allocator.0", align 1
  %3 = alloca %"class.std::allocator.0", align 1
  %4 = alloca %"class.std::basic_string", align 8
  %5 = alloca %"class.std::allocator.0", align 1
  %6 = alloca %"class.std::basic_string", align 8
  %7 = alloca %"class.std::allocator.0", align 1
  %8 = getelementptr inbounds %class.Histogram, %class.Histogram* %0, i64 0, i32 4
  %9 = load i32, i32* %8, align 8, !tbaa !17
  %10 = sext i32 %9 to i64
  %11 = shl nsw i64 %10, 2
  %12 = getelementptr inbounds %class.Histogram, %class.Histogram* %0, i64 0, i32 5
  %13 = load i32, i32* %12, align 4, !tbaa !7
  %14 = sext i32 %13 to i64
  %15 = mul i64 %11, %14
  %16 = tail call noalias align 16 i8* @malloc(i64 %15) #24
  %17 = getelementptr inbounds %class.Histogram, %class.Histogram* %0, i64 0, i32 3
  %18 = bitcast i32** %17 to i8**
  store i8* %16, i8** %18, align 8, !tbaa !19
  %19 = getelementptr inbounds %class.Histogram, %class.Histogram* %0, i64 0, i32 0
  %20 = mul nsw i32 %13, %9
  %21 = icmp sgt i32 %20, 0
  br i1 %21, label %22, label %35

22:                                               ; preds = %1, %22
  %23 = phi i64 [ %29, %22 ], [ 0, %1 ]
  %24 = tail call i32 @rand() #24
  %25 = load i32, i32* %19, align 8, !tbaa !20
  %26 = urem i32 %24, %25
  %27 = load i32*, i32** %17, align 8, !tbaa !19
  %28 = getelementptr inbounds i32, i32* %27, i64 %23
  store i32 %26, i32* %28, align 4, !tbaa !16
  %29 = add nuw nsw i64 %23, 1
  %30 = load i32, i32* %8, align 8, !tbaa !17
  %31 = load i32, i32* %12, align 4, !tbaa !7
  %32 = mul nsw i32 %31, %30
  %33 = sext i32 %32 to i64
  %34 = icmp slt i64 %29, %33
  br i1 %34, label %22, label %35, !llvm.loop !21

35:                                               ; preds = %22, %1
  %36 = load i32, i32* %19, align 8, !tbaa !20
  %37 = sext i32 %36 to i64
  %38 = shl nsw i64 %37, 2
  %39 = call i8* @calloc(i64 1, i64 %38)
  %40 = getelementptr inbounds %class.Histogram, %class.Histogram* %0, i64 0, i32 6
  %41 = bitcast i32** %40 to i8**
  store i8* %39, i8** %41, align 8, !tbaa !22
  %42 = icmp eq i8* %39, null
  br i1 %42, label %43, label %105

43:                                               ; preds = %35
  %44 = getelementptr inbounds %"class.std::allocator.0", %"class.std::allocator.0"* %5, i64 0, i32 0
  call void @llvm.lifetime.start.p0i8(i64 1, i8* nonnull %44) #24
  invoke void @_ZNSsC1EPKcRKSaIcE(%"class.std::basic_string"* nonnull align 8 dereferenceable(8) %4, i8* getelementptr inbounds ([42 x i8], [42 x i8]* @.str, i64 0, i64 0), %"class.std::allocator.0"* nonnull align 1 dereferenceable(1) %5)
          to label %45 unwind label %99

45:                                               ; preds = %43
  invoke fastcc void @_ZN6appsdkL9sdk_errorESs(%"class.std::basic_string"* nonnull %4)
          to label %46 unwind label %101

46:                                               ; preds = %45
  %47 = getelementptr inbounds %"class.std::basic_string", %"class.std::basic_string"* %4, i64 0, i32 0, i32 0
  %48 = load i8*, i8** %47, align 8, !tbaa !23
  %49 = getelementptr inbounds i8, i8* %48, i64 -24
  %50 = bitcast i8* %49 to %"struct.std::basic_string<char>::_Rep"*
  %51 = getelementptr inbounds %"class.std::allocator.0", %"class.std::allocator.0"* %3, i64 0, i32 0
  call void @llvm.lifetime.start.p0i8(i64 1, i8* nonnull %51) #24
  %52 = icmp eq i8* %49, bitcast ([0 x i64]* @_ZNSs4_Rep20_S_empty_rep_storageE to i8*)
  br i1 %52, label %65, label %53, !prof !26

53:                                               ; preds = %46
  %54 = getelementptr inbounds i8, i8* %48, i64 -8
  %55 = bitcast i8* %54 to i32*
  br i1 icmp ne (i8* bitcast (i32 (i32*, void (i8*)*)* @__pthread_key_create to i8*), i8* null), label %56, label %58

56:                                               ; preds = %53
  %57 = atomicrmw volatile add i32* %55, i32 -1 acq_rel, align 4
  br label %61

58:                                               ; preds = %53
  %59 = load i32, i32* %55, align 8, !tbaa !16
  %60 = add nsw i32 %59, -1
  store i32 %60, i32* %55, align 8, !tbaa !16
  br label %61

61:                                               ; preds = %58, %56
  %62 = phi i32 [ %57, %56 ], [ %59, %58 ]
  %63 = icmp slt i32 %62, 1
  br i1 %63, label %64, label %65

64:                                               ; preds = %61
  call void @_ZNSs4_Rep10_M_destroyERKSaIcE(%"struct.std::basic_string<char>::_Rep"* nonnull align 8 dereferenceable(24) %50, %"class.std::allocator.0"* nonnull align 1 dereferenceable(1) %3) #24
  br label %65

65:                                               ; preds = %46, %61, %64
  call void @llvm.lifetime.end.p0i8(i64 1, i8* nonnull %51) #24
  call void @llvm.lifetime.end.p0i8(i64 1, i8* nonnull %44) #24
  %66 = call nonnull align 8 dereferenceable(8) %"class.std::basic_ostream"* @_ZSt16__ostream_insertIcSt11char_traitsIcEERSt13basic_ostreamIT_T0_ES6_PKS3_l(%"class.std::basic_ostream"* nonnull align 8 dereferenceable(8) @_ZSt4cout, i8* nonnull getelementptr inbounds ([12 x i8], [12 x i8]* @.str.2, i64 0, i64 0), i64 11)
  %67 = call nonnull align 8 dereferenceable(8) %"class.std::basic_ostream"* @_ZSt16__ostream_insertIcSt11char_traitsIcEERSt13basic_ostreamIT_T0_ES6_PKS3_l(%"class.std::basic_ostream"* nonnull align 8 dereferenceable(8) @_ZSt4cout, i8* nonnull getelementptr inbounds ([24 x i8], [24 x i8]* @.str.3, i64 0, i64 0), i64 23)
  %68 = call nonnull align 8 dereferenceable(8) %"class.std::basic_ostream"* @_ZSt16__ostream_insertIcSt11char_traitsIcEERSt13basic_ostreamIT_T0_ES6_PKS3_l(%"class.std::basic_ostream"* nonnull align 8 dereferenceable(8) @_ZSt4cout, i8* nonnull getelementptr inbounds ([2 x i8], [2 x i8]* @.str.4, i64 0, i64 0), i64 1)
  %69 = call nonnull align 8 dereferenceable(8) %"class.std::basic_ostream"* @_ZNSolsEi(%"class.std::basic_ostream"* nonnull align 8 dereferenceable(8) @_ZSt4cout, i32 309)
  %70 = bitcast %"class.std::basic_ostream"* %69 to i8**
  %71 = load i8*, i8** %70, align 8, !tbaa !27
  %72 = getelementptr i8, i8* %71, i64 -24
  %73 = bitcast i8* %72 to i64*
  %74 = load i64, i64* %73, align 8
  %75 = bitcast %"class.std::basic_ostream"* %69 to i8*
  %76 = getelementptr inbounds i8, i8* %75, i64 %74
  %77 = getelementptr inbounds i8, i8* %76, i64 240
  %78 = bitcast i8* %77 to %"class.std::ctype"**
  %79 = load %"class.std::ctype"*, %"class.std::ctype"** %78, align 8, !tbaa !29
  %80 = icmp eq %"class.std::ctype"* %79, null
  br i1 %80, label %81, label %82

81:                                               ; preds = %65
  call void @_ZSt16__throw_bad_castv() #25
  unreachable

82:                                               ; preds = %65
  %83 = getelementptr inbounds %"class.std::ctype", %"class.std::ctype"* %79, i64 0, i32 8
  %84 = load i8, i8* %83, align 8, !tbaa !31
  %85 = icmp eq i8 %84, 0
  br i1 %85, label %89, label %86

86:                                               ; preds = %82
  %87 = getelementptr inbounds %"class.std::ctype", %"class.std::ctype"* %79, i64 0, i32 9, i64 10
  %88 = load i8, i8* %87, align 1, !tbaa !33
  br label %95

89:                                               ; preds = %82
  call void @_ZNKSt5ctypeIcE13_M_widen_initEv(%"class.std::ctype"* nonnull align 8 dereferenceable(570) %79)
  %90 = bitcast %"class.std::ctype"* %79 to i8 (%"class.std::ctype"*, i8)***
  %91 = load i8 (%"class.std::ctype"*, i8)**, i8 (%"class.std::ctype"*, i8)*** %90, align 8, !tbaa !27
  %92 = getelementptr inbounds i8 (%"class.std::ctype"*, i8)*, i8 (%"class.std::ctype"*, i8)** %91, i64 6
  %93 = load i8 (%"class.std::ctype"*, i8)*, i8 (%"class.std::ctype"*, i8)** %92, align 8
  %94 = call signext i8 %93(%"class.std::ctype"* nonnull align 8 dereferenceable(570) %79, i8 signext 10)
  br label %95

95:                                               ; preds = %86, %89
  %96 = phi i8 [ %88, %86 ], [ %94, %89 ]
  %97 = call nonnull align 8 dereferenceable(8) %"class.std::basic_ostream"* @_ZNSo3putEc(%"class.std::basic_ostream"* nonnull align 8 dereferenceable(8) %69, i8 signext %96)
  %98 = call nonnull align 8 dereferenceable(8) %"class.std::basic_ostream"* @_ZNSo5flushEv(%"class.std::basic_ostream"* nonnull align 8 dereferenceable(8) %97)
  br label %291

99:                                               ; preds = %43
  %100 = landingpad { i8*, i32 }
          cleanup
  br label %103

101:                                              ; preds = %45
  %102 = landingpad { i8*, i32 }
          cleanup
  call void @_ZNSsD2Ev(%"class.std::basic_string"* nonnull align 8 dereferenceable(8) %4) #24
  br label %103

103:                                              ; preds = %101, %99
  %104 = phi { i8*, i32 } [ %102, %101 ], [ %100, %99 ]
  call void @llvm.lifetime.end.p0i8(i64 1, i8* nonnull %44) #24
  br label %293

105:                                              ; preds = %35
  %106 = call i8* @calloc(i64 1, i64 %38)
  %107 = getelementptr inbounds %class.Histogram, %class.Histogram* %0, i64 0, i32 8
  %108 = bitcast i32** %107 to i8**
  store i8* %106, i8** %108, align 8, !tbaa !34
  %109 = icmp eq i8* %106, null
  br i1 %109, label %110, label %172

110:                                              ; preds = %105
  %111 = getelementptr inbounds %"class.std::allocator.0", %"class.std::allocator.0"* %7, i64 0, i32 0
  call void @llvm.lifetime.start.p0i8(i64 1, i8* nonnull %111) #24
  invoke void @_ZNSsC1EPKcRKSaIcE(%"class.std::basic_string"* nonnull align 8 dereferenceable(8) %6, i8* getelementptr inbounds ([44 x i8], [44 x i8]* @.str.5, i64 0, i64 0), %"class.std::allocator.0"* nonnull align 1 dereferenceable(1) %7)
          to label %112 unwind label %166

112:                                              ; preds = %110
  invoke fastcc void @_ZN6appsdkL9sdk_errorESs(%"class.std::basic_string"* nonnull %6)
          to label %113 unwind label %168

113:                                              ; preds = %112
  %114 = getelementptr inbounds %"class.std::basic_string", %"class.std::basic_string"* %6, i64 0, i32 0, i32 0
  %115 = load i8*, i8** %114, align 8, !tbaa !23
  %116 = getelementptr inbounds i8, i8* %115, i64 -24
  %117 = bitcast i8* %116 to %"struct.std::basic_string<char>::_Rep"*
  %118 = getelementptr inbounds %"class.std::allocator.0", %"class.std::allocator.0"* %2, i64 0, i32 0
  call void @llvm.lifetime.start.p0i8(i64 1, i8* nonnull %118) #24
  %119 = icmp eq i8* %116, bitcast ([0 x i64]* @_ZNSs4_Rep20_S_empty_rep_storageE to i8*)
  br i1 %119, label %132, label %120, !prof !26

120:                                              ; preds = %113
  %121 = getelementptr inbounds i8, i8* %115, i64 -8
  %122 = bitcast i8* %121 to i32*
  br i1 icmp ne (i8* bitcast (i32 (i32*, void (i8*)*)* @__pthread_key_create to i8*), i8* null), label %123, label %125

123:                                              ; preds = %120
  %124 = atomicrmw volatile add i32* %122, i32 -1 acq_rel, align 4
  br label %128

125:                                              ; preds = %120
  %126 = load i32, i32* %122, align 8, !tbaa !16
  %127 = add nsw i32 %126, -1
  store i32 %127, i32* %122, align 8, !tbaa !16
  br label %128

128:                                              ; preds = %125, %123
  %129 = phi i32 [ %124, %123 ], [ %126, %125 ]
  %130 = icmp slt i32 %129, 1
  br i1 %130, label %131, label %132

131:                                              ; preds = %128
  call void @_ZNSs4_Rep10_M_destroyERKSaIcE(%"struct.std::basic_string<char>::_Rep"* nonnull align 8 dereferenceable(24) %117, %"class.std::allocator.0"* nonnull align 1 dereferenceable(1) %2) #24
  br label %132

132:                                              ; preds = %113, %128, %131
  call void @llvm.lifetime.end.p0i8(i64 1, i8* nonnull %118) #24
  call void @llvm.lifetime.end.p0i8(i64 1, i8* nonnull %111) #24
  %133 = call nonnull align 8 dereferenceable(8) %"class.std::basic_ostream"* @_ZSt16__ostream_insertIcSt11char_traitsIcEERSt13basic_ostreamIT_T0_ES6_PKS3_l(%"class.std::basic_ostream"* nonnull align 8 dereferenceable(8) @_ZSt4cout, i8* nonnull getelementptr inbounds ([12 x i8], [12 x i8]* @.str.2, i64 0, i64 0), i64 11)
  %134 = call nonnull align 8 dereferenceable(8) %"class.std::basic_ostream"* @_ZSt16__ostream_insertIcSt11char_traitsIcEERSt13basic_ostreamIT_T0_ES6_PKS3_l(%"class.std::basic_ostream"* nonnull align 8 dereferenceable(8) @_ZSt4cout, i8* nonnull getelementptr inbounds ([24 x i8], [24 x i8]* @.str.3, i64 0, i64 0), i64 23)
  %135 = call nonnull align 8 dereferenceable(8) %"class.std::basic_ostream"* @_ZSt16__ostream_insertIcSt11char_traitsIcEERSt13basic_ostreamIT_T0_ES6_PKS3_l(%"class.std::basic_ostream"* nonnull align 8 dereferenceable(8) @_ZSt4cout, i8* nonnull getelementptr inbounds ([2 x i8], [2 x i8]* @.str.4, i64 0, i64 0), i64 1)
  %136 = call nonnull align 8 dereferenceable(8) %"class.std::basic_ostream"* @_ZNSolsEi(%"class.std::basic_ostream"* nonnull align 8 dereferenceable(8) @_ZSt4cout, i32 314)
  %137 = bitcast %"class.std::basic_ostream"* %136 to i8**
  %138 = load i8*, i8** %137, align 8, !tbaa !27
  %139 = getelementptr i8, i8* %138, i64 -24
  %140 = bitcast i8* %139 to i64*
  %141 = load i64, i64* %140, align 8
  %142 = bitcast %"class.std::basic_ostream"* %136 to i8*
  %143 = getelementptr inbounds i8, i8* %142, i64 %141
  %144 = getelementptr inbounds i8, i8* %143, i64 240
  %145 = bitcast i8* %144 to %"class.std::ctype"**
  %146 = load %"class.std::ctype"*, %"class.std::ctype"** %145, align 8, !tbaa !29
  %147 = icmp eq %"class.std::ctype"* %146, null
  br i1 %147, label %148, label %149

148:                                              ; preds = %132
  call void @_ZSt16__throw_bad_castv() #25
  unreachable

149:                                              ; preds = %132
  %150 = getelementptr inbounds %"class.std::ctype", %"class.std::ctype"* %146, i64 0, i32 8
  %151 = load i8, i8* %150, align 8, !tbaa !31
  %152 = icmp eq i8 %151, 0
  br i1 %152, label %156, label %153

153:                                              ; preds = %149
  %154 = getelementptr inbounds %"class.std::ctype", %"class.std::ctype"* %146, i64 0, i32 9, i64 10
  %155 = load i8, i8* %154, align 1, !tbaa !33
  br label %162

156:                                              ; preds = %149
  call void @_ZNKSt5ctypeIcE13_M_widen_initEv(%"class.std::ctype"* nonnull align 8 dereferenceable(570) %146)
  %157 = bitcast %"class.std::ctype"* %146 to i8 (%"class.std::ctype"*, i8)***
  %158 = load i8 (%"class.std::ctype"*, i8)**, i8 (%"class.std::ctype"*, i8)*** %157, align 8, !tbaa !27
  %159 = getelementptr inbounds i8 (%"class.std::ctype"*, i8)*, i8 (%"class.std::ctype"*, i8)** %158, i64 6
  %160 = load i8 (%"class.std::ctype"*, i8)*, i8 (%"class.std::ctype"*, i8)** %159, align 8
  %161 = call signext i8 %160(%"class.std::ctype"* nonnull align 8 dereferenceable(570) %146, i8 signext 10)
  br label %162

162:                                              ; preds = %153, %156
  %163 = phi i8 [ %155, %153 ], [ %161, %156 ]
  %164 = call nonnull align 8 dereferenceable(8) %"class.std::basic_ostream"* @_ZNSo3putEc(%"class.std::basic_ostream"* nonnull align 8 dereferenceable(8) %136, i8 signext %163)
  %165 = call nonnull align 8 dereferenceable(8) %"class.std::basic_ostream"* @_ZNSo5flushEv(%"class.std::basic_ostream"* nonnull align 8 dereferenceable(8) %164)
  br label %291

166:                                              ; preds = %110
  %167 = landingpad { i8*, i32 }
          cleanup
  br label %170

168:                                              ; preds = %112
  %169 = landingpad { i8*, i32 }
          cleanup
  call void @_ZNSsD2Ev(%"class.std::basic_string"* nonnull align 8 dereferenceable(8) %6) #24
  br label %170

170:                                              ; preds = %168, %166
  %171 = phi { i8*, i32 } [ %169, %168 ], [ %167, %166 ]
  call void @llvm.lifetime.end.p0i8(i64 1, i8* nonnull %111) #24
  br label %293

172:                                              ; preds = %105
  %173 = getelementptr inbounds %class.Histogram, %class.Histogram* %0, i64 0, i32 2
  %174 = load i32, i32* %173, align 8, !tbaa !35
  %175 = sext i32 %174 to i64
  %176 = mul i64 %38, %175
  %177 = tail call noalias align 16 i8* @malloc(i64 %176) #24
  %178 = getelementptr inbounds %class.Histogram, %class.Histogram* %0, i64 0, i32 7
  %179 = bitcast i32** %178 to i8**
  store i8* %177, i8** %179, align 8, !tbaa !36
  %180 = getelementptr inbounds %class.Histogram, %class.Histogram* %0, i64 0, i32 16
  %181 = load i8, i8* %180, align 4, !tbaa !37, !range !38
  %182 = icmp eq i8 %181, 0
  %183 = getelementptr inbounds %class.Histogram, %class.Histogram* %0, i64 0, i32 17
  %184 = load i8, i8* %183, align 1
  %185 = icmp eq i8 %184, 0
  %186 = select i1 %182, i1 true, i1 %185
  br i1 %186, label %216, label %187

187:                                              ; preds = %172
  %188 = tail call nonnull align 8 dereferenceable(8) %"class.std::basic_ostream"* @_ZSt16__ostream_insertIcSt11char_traitsIcEERSt13basic_ostreamIT_T0_ES6_PKS3_l(%"class.std::basic_ostream"* nonnull align 8 dereferenceable(8) @_ZSt4cout, i8* nonnull getelementptr inbounds ([78 x i8], [78 x i8]* @.str.6, i64 0, i64 0), i64 77)
  %189 = load i8*, i8** bitcast (%"class.std::basic_ostream"* @_ZSt4cout to i8**), align 8, !tbaa !27
  %190 = getelementptr i8, i8* %189, i64 -24
  %191 = bitcast i8* %190 to i64*
  %192 = load i64, i64* %191, align 8
  %193 = getelementptr inbounds i8, i8* bitcast (%"class.std::basic_ostream"* @_ZSt4cout to i8*), i64 %192
  %194 = getelementptr inbounds i8, i8* %193, i64 240
  %195 = bitcast i8* %194 to %"class.std::ctype"**
  %196 = load %"class.std::ctype"*, %"class.std::ctype"** %195, align 8, !tbaa !29
  %197 = icmp eq %"class.std::ctype"* %196, null
  br i1 %197, label %198, label %199

198:                                              ; preds = %187
  tail call void @_ZSt16__throw_bad_castv() #25
  unreachable

199:                                              ; preds = %187
  %200 = getelementptr inbounds %"class.std::ctype", %"class.std::ctype"* %196, i64 0, i32 8
  %201 = load i8, i8* %200, align 8, !tbaa !31
  %202 = icmp eq i8 %201, 0
  br i1 %202, label %206, label %203

203:                                              ; preds = %199
  %204 = getelementptr inbounds %"class.std::ctype", %"class.std::ctype"* %196, i64 0, i32 9, i64 10
  %205 = load i8, i8* %204, align 1, !tbaa !33
  br label %212

206:                                              ; preds = %199
  tail call void @_ZNKSt5ctypeIcE13_M_widen_initEv(%"class.std::ctype"* nonnull align 8 dereferenceable(570) %196)
  %207 = bitcast %"class.std::ctype"* %196 to i8 (%"class.std::ctype"*, i8)***
  %208 = load i8 (%"class.std::ctype"*, i8)**, i8 (%"class.std::ctype"*, i8)*** %207, align 8, !tbaa !27
  %209 = getelementptr inbounds i8 (%"class.std::ctype"*, i8)*, i8 (%"class.std::ctype"*, i8)** %208, i64 6
  %210 = load i8 (%"class.std::ctype"*, i8)*, i8 (%"class.std::ctype"*, i8)** %209, align 8
  %211 = tail call signext i8 %210(%"class.std::ctype"* nonnull align 8 dereferenceable(570) %196, i8 signext 10)
  br label %212

212:                                              ; preds = %203, %206
  %213 = phi i8 [ %205, %203 ], [ %211, %206 ]
  %214 = tail call nonnull align 8 dereferenceable(8) %"class.std::basic_ostream"* @_ZNSo3putEc(%"class.std::basic_ostream"* nonnull align 8 dereferenceable(8) @_ZSt4cout, i8 signext %213)
  %215 = tail call nonnull align 8 dereferenceable(8) %"class.std::basic_ostream"* @_ZNSo5flushEv(%"class.std::basic_ostream"* nonnull align 8 dereferenceable(8) %214)
  br label %222

216:                                              ; preds = %172
  %217 = getelementptr inbounds %class.Histogram, %class.Histogram* %0, i64 0, i32 18
  br i1 %182, label %219, label %218

218:                                              ; preds = %216
  store i32 1, i32* %217, align 8, !tbaa !39
  br label %222

219:                                              ; preds = %216
  br i1 %185, label %221, label %220

220:                                              ; preds = %219
  store i32 4, i32* %217, align 8, !tbaa !39
  br label %222

221:                                              ; preds = %219
  store i32 1, i32* %217, align 8, !tbaa !39
  br label %222

222:                                              ; preds = %218, %221, %220, %212
  %223 = getelementptr inbounds %class.Histogram, %class.Histogram* %0, i64 0, i32 23
  %224 = bitcast %"class.appsdk::HIPCommandArgs"** %223 to %"class.appsdk::SDKCmdArgsParser"**
  %225 = load %"class.appsdk::SDKCmdArgsParser"*, %"class.appsdk::SDKCmdArgsParser"** %224, align 8, !tbaa !40
  %226 = getelementptr inbounds %"class.appsdk::SDKCmdArgsParser", %"class.appsdk::SDKCmdArgsParser"* %225, i64 0, i32 9
  %227 = load i8, i8* %226, align 4, !tbaa !41, !range !38
  %228 = icmp eq i8 %227, 0
  br i1 %228, label %229, label %291

229:                                              ; preds = %222
  %230 = getelementptr inbounds %class.Histogram, %class.Histogram* %0, i64 0, i32 18
  %231 = load i32, i32* %230, align 8, !tbaa !39
  %232 = icmp eq i32 %231, 4
  br i1 %232, label %233, label %262

233:                                              ; preds = %229
  %234 = tail call nonnull align 8 dereferenceable(8) %"class.std::basic_ostream"* @_ZSt16__ostream_insertIcSt11char_traitsIcEERSt13basic_ostreamIT_T0_ES6_PKS3_l(%"class.std::basic_ostream"* nonnull align 8 dereferenceable(8) @_ZSt4cout, i8* nonnull getelementptr inbounds ([25 x i8], [25 x i8]* @.str.7, i64 0, i64 0), i64 24)
  %235 = load i8*, i8** bitcast (%"class.std::basic_ostream"* @_ZSt4cout to i8**), align 8, !tbaa !27
  %236 = getelementptr i8, i8* %235, i64 -24
  %237 = bitcast i8* %236 to i64*
  %238 = load i64, i64* %237, align 8
  %239 = getelementptr inbounds i8, i8* bitcast (%"class.std::basic_ostream"* @_ZSt4cout to i8*), i64 %238
  %240 = getelementptr inbounds i8, i8* %239, i64 240
  %241 = bitcast i8* %240 to %"class.std::ctype"**
  %242 = load %"class.std::ctype"*, %"class.std::ctype"** %241, align 8, !tbaa !29
  %243 = icmp eq %"class.std::ctype"* %242, null
  br i1 %243, label %244, label %245

244:                                              ; preds = %233
  tail call void @_ZSt16__throw_bad_castv() #25
  unreachable

245:                                              ; preds = %233
  %246 = getelementptr inbounds %"class.std::ctype", %"class.std::ctype"* %242, i64 0, i32 8
  %247 = load i8, i8* %246, align 8, !tbaa !31
  %248 = icmp eq i8 %247, 0
  br i1 %248, label %252, label %249

249:                                              ; preds = %245
  %250 = getelementptr inbounds %"class.std::ctype", %"class.std::ctype"* %242, i64 0, i32 9, i64 10
  %251 = load i8, i8* %250, align 1, !tbaa !33
  br label %258

252:                                              ; preds = %245
  tail call void @_ZNKSt5ctypeIcE13_M_widen_initEv(%"class.std::ctype"* nonnull align 8 dereferenceable(570) %242)
  %253 = bitcast %"class.std::ctype"* %242 to i8 (%"class.std::ctype"*, i8)***
  %254 = load i8 (%"class.std::ctype"*, i8)**, i8 (%"class.std::ctype"*, i8)*** %253, align 8, !tbaa !27
  %255 = getelementptr inbounds i8 (%"class.std::ctype"*, i8)*, i8 (%"class.std::ctype"*, i8)** %254, i64 6
  %256 = load i8 (%"class.std::ctype"*, i8)*, i8 (%"class.std::ctype"*, i8)** %255, align 8
  %257 = tail call signext i8 %256(%"class.std::ctype"* nonnull align 8 dereferenceable(570) %242, i8 signext 10)
  br label %258

258:                                              ; preds = %249, %252
  %259 = phi i8 [ %251, %249 ], [ %257, %252 ]
  %260 = tail call nonnull align 8 dereferenceable(8) %"class.std::basic_ostream"* @_ZNSo3putEc(%"class.std::basic_ostream"* nonnull align 8 dereferenceable(8) @_ZSt4cout, i8 signext %259)
  %261 = tail call nonnull align 8 dereferenceable(8) %"class.std::basic_ostream"* @_ZNSo5flushEv(%"class.std::basic_ostream"* nonnull align 8 dereferenceable(8) %260)
  br label %291

262:                                              ; preds = %229
  %263 = tail call nonnull align 8 dereferenceable(8) %"class.std::basic_ostream"* @_ZSt16__ostream_insertIcSt11char_traitsIcEERSt13basic_ostreamIT_T0_ES6_PKS3_l(%"class.std::basic_ostream"* nonnull align 8 dereferenceable(8) @_ZSt4cout, i8* nonnull getelementptr inbounds ([25 x i8], [25 x i8]* @.str.8, i64 0, i64 0), i64 24)
  %264 = load i8*, i8** bitcast (%"class.std::basic_ostream"* @_ZSt4cout to i8**), align 8, !tbaa !27
  %265 = getelementptr i8, i8* %264, i64 -24
  %266 = bitcast i8* %265 to i64*
  %267 = load i64, i64* %266, align 8
  %268 = getelementptr inbounds i8, i8* bitcast (%"class.std::basic_ostream"* @_ZSt4cout to i8*), i64 %267
  %269 = getelementptr inbounds i8, i8* %268, i64 240
  %270 = bitcast i8* %269 to %"class.std::ctype"**
  %271 = load %"class.std::ctype"*, %"class.std::ctype"** %270, align 8, !tbaa !29
  %272 = icmp eq %"class.std::ctype"* %271, null
  br i1 %272, label %273, label %274

273:                                              ; preds = %262
  tail call void @_ZSt16__throw_bad_castv() #25
  unreachable

274:                                              ; preds = %262
  %275 = getelementptr inbounds %"class.std::ctype", %"class.std::ctype"* %271, i64 0, i32 8
  %276 = load i8, i8* %275, align 8, !tbaa !31
  %277 = icmp eq i8 %276, 0
  br i1 %277, label %281, label %278

278:                                              ; preds = %274
  %279 = getelementptr inbounds %"class.std::ctype", %"class.std::ctype"* %271, i64 0, i32 9, i64 10
  %280 = load i8, i8* %279, align 1, !tbaa !33
  br label %287

281:                                              ; preds = %274
  tail call void @_ZNKSt5ctypeIcE13_M_widen_initEv(%"class.std::ctype"* nonnull align 8 dereferenceable(570) %271)
  %282 = bitcast %"class.std::ctype"* %271 to i8 (%"class.std::ctype"*, i8)***
  %283 = load i8 (%"class.std::ctype"*, i8)**, i8 (%"class.std::ctype"*, i8)*** %282, align 8, !tbaa !27
  %284 = getelementptr inbounds i8 (%"class.std::ctype"*, i8)*, i8 (%"class.std::ctype"*, i8)** %283, i64 6
  %285 = load i8 (%"class.std::ctype"*, i8)*, i8 (%"class.std::ctype"*, i8)** %284, align 8
  %286 = tail call signext i8 %285(%"class.std::ctype"* nonnull align 8 dereferenceable(570) %271, i8 signext 10)
  br label %287

287:                                              ; preds = %278, %281
  %288 = phi i8 [ %280, %278 ], [ %286, %281 ]
  %289 = tail call nonnull align 8 dereferenceable(8) %"class.std::basic_ostream"* @_ZNSo3putEc(%"class.std::basic_ostream"* nonnull align 8 dereferenceable(8) @_ZSt4cout, i8 signext %288)
  %290 = tail call nonnull align 8 dereferenceable(8) %"class.std::basic_ostream"* @_ZNSo5flushEv(%"class.std::basic_ostream"* nonnull align 8 dereferenceable(8) %289)
  br label %291

291:                                              ; preds = %222, %287, %258, %162, %95
  %292 = phi i32 [ 1, %95 ], [ 1, %162 ], [ 0, %258 ], [ 0, %287 ], [ 0, %222 ]
  ret i32 %292

293:                                              ; preds = %170, %103
  %294 = phi { i8*, i32 } [ %104, %103 ], [ %171, %170 ]
  resume { i8*, i32 } %294
}

; Function Attrs: inaccessiblememonly mustprogress nofree nounwind willreturn
declare dso_local noalias noundef i8* @malloc(i64 noundef) local_unnamed_addr #8

; Function Attrs: nounwind
declare dso_local i32 @rand() local_unnamed_addr #1

; Function Attrs: mustprogress uwtable
define internal fastcc void @_ZN6appsdkL9sdk_errorESs(%"class.std::basic_string"* nocapture readonly %0) unnamed_addr #9 {
  %2 = tail call nonnull align 8 dereferenceable(8) %"class.std::basic_ostream"* @_ZSt16__ostream_insertIcSt11char_traitsIcEERSt13basic_ostreamIT_T0_ES6_PKS3_l(%"class.std::basic_ostream"* nonnull align 8 dereferenceable(8) @_ZSt4cout, i8* nonnull getelementptr inbounds ([8 x i8], [8 x i8]* @.str.42, i64 0, i64 0), i64 7)
  %3 = getelementptr inbounds %"class.std::basic_string", %"class.std::basic_string"* %0, i64 0, i32 0, i32 0
  %4 = load i8*, i8** %3, align 8, !tbaa !23
  %5 = getelementptr inbounds i8, i8* %4, i64 -24
  %6 = bitcast i8* %5 to i64*
  %7 = load i64, i64* %6, align 8, !tbaa !44
  %8 = tail call nonnull align 8 dereferenceable(8) %"class.std::basic_ostream"* @_ZSt16__ostream_insertIcSt11char_traitsIcEERSt13basic_ostreamIT_T0_ES6_PKS3_l(%"class.std::basic_ostream"* nonnull align 8 dereferenceable(8) @_ZSt4cout, i8* %4, i64 %7)
  %9 = bitcast %"class.std::basic_ostream"* %8 to i8**
  %10 = load i8*, i8** %9, align 8, !tbaa !27
  %11 = getelementptr i8, i8* %10, i64 -24
  %12 = bitcast i8* %11 to i64*
  %13 = load i64, i64* %12, align 8
  %14 = bitcast %"class.std::basic_ostream"* %8 to i8*
  %15 = getelementptr inbounds i8, i8* %14, i64 %13
  %16 = getelementptr inbounds i8, i8* %15, i64 240
  %17 = bitcast i8* %16 to %"class.std::ctype"**
  %18 = load %"class.std::ctype"*, %"class.std::ctype"** %17, align 8, !tbaa !29
  %19 = icmp eq %"class.std::ctype"* %18, null
  br i1 %19, label %20, label %21

20:                                               ; preds = %1
  tail call void @_ZSt16__throw_bad_castv() #25
  unreachable

21:                                               ; preds = %1
  %22 = getelementptr inbounds %"class.std::ctype", %"class.std::ctype"* %18, i64 0, i32 8
  %23 = load i8, i8* %22, align 8, !tbaa !31
  %24 = icmp eq i8 %23, 0
  br i1 %24, label %28, label %25

25:                                               ; preds = %21
  %26 = getelementptr inbounds %"class.std::ctype", %"class.std::ctype"* %18, i64 0, i32 9, i64 10
  %27 = load i8, i8* %26, align 1, !tbaa !33
  br label %34

28:                                               ; preds = %21
  tail call void @_ZNKSt5ctypeIcE13_M_widen_initEv(%"class.std::ctype"* nonnull align 8 dereferenceable(570) %18)
  %29 = bitcast %"class.std::ctype"* %18 to i8 (%"class.std::ctype"*, i8)***
  %30 = load i8 (%"class.std::ctype"*, i8)**, i8 (%"class.std::ctype"*, i8)*** %29, align 8, !tbaa !27
  %31 = getelementptr inbounds i8 (%"class.std::ctype"*, i8)*, i8 (%"class.std::ctype"*, i8)** %30, i64 6
  %32 = load i8 (%"class.std::ctype"*, i8)*, i8 (%"class.std::ctype"*, i8)** %31, align 8
  %33 = tail call signext i8 %32(%"class.std::ctype"* nonnull align 8 dereferenceable(570) %18, i8 signext 10)
  br label %34

34:                                               ; preds = %25, %28
  %35 = phi i8 [ %27, %25 ], [ %33, %28 ]
  %36 = tail call nonnull align 8 dereferenceable(8) %"class.std::basic_ostream"* @_ZNSo3putEc(%"class.std::basic_ostream"* nonnull align 8 dereferenceable(8) %8, i8 signext %35)
  %37 = tail call nonnull align 8 dereferenceable(8) %"class.std::basic_ostream"* @_ZNSo5flushEv(%"class.std::basic_ostream"* nonnull align 8 dereferenceable(8) %36)
  ret void
}

declare dso_local void @_ZNSsC1EPKcRKSaIcE(%"class.std::basic_string"* nonnull align 8 dereferenceable(8), i8*, %"class.std::allocator.0"* nonnull align 1 dereferenceable(1)) unnamed_addr #0

declare dso_local i32 @__gxx_personality_v0(...)

; Function Attrs: nounwind uwtable
declare dso_local void @_ZNSsD2Ev(%"class.std::basic_string"* nonnull align 8 dereferenceable(8)) unnamed_addr #10 align 2

; Function Attrs: inlinehint mustprogress uwtable
declare dso_local nonnull align 8 dereferenceable(8) %"class.std::basic_ostream"* @_ZStlsISt11char_traitsIcEERSt13basic_ostreamIcT_ES5_PKc(%"class.std::basic_ostream"* nonnull align 8 dereferenceable(8), i8*) local_unnamed_addr #11

declare dso_local nonnull align 8 dereferenceable(8) %"class.std::basic_ostream"* @_ZNSolsEi(%"class.std::basic_ostream"* nonnull align 8 dereferenceable(8), i32) local_unnamed_addr #0

; Function Attrs: inlinehint mustprogress uwtable
declare dso_local nonnull align 8 dereferenceable(8) %"class.std::basic_ostream"* @_ZSt4endlIcSt11char_traitsIcEERSt13basic_ostreamIT_T0_ES6_(%"class.std::basic_ostream"* nonnull align 8 dereferenceable(8)) local_unnamed_addr #11

; Function Attrs: argmemonly mustprogress nofree nounwind willreturn writeonly
declare void @llvm.memset.p0i8.i64(i8* nocapture writeonly, i8, i64, i1 immarg) #12

; Function Attrs: mustprogress uwtable
define dso_local i32 @_ZN9Histogram8setupHIPEv(%class.Histogram* nocapture nonnull readnone align 8 %0) local_unnamed_addr #9 align 2 {
  %2 = alloca %struct.hipDeviceProp_t, align 8
  %3 = getelementptr inbounds %struct.hipDeviceProp_t, %struct.hipDeviceProp_t* %2, i64 0, i32 0, i64 0
  call void @llvm.lifetime.start.p0i8(i64 792, i8* nonnull %3) #24
  %4 = call i32 @hipGetDeviceProperties(%struct.hipDeviceProp_t* nonnull %2, i32 0)
  %5 = call nonnull align 8 dereferenceable(8) %"class.std::basic_ostream"* @_ZSt16__ostream_insertIcSt11char_traitsIcEERSt13basic_ostreamIT_T0_ES6_PKS3_l(%"class.std::basic_ostream"* nonnull align 8 dereferenceable(8) @_ZSt4cout, i8* nonnull getelementptr inbounds ([15 x i8], [15 x i8]* @.str.9, i64 0, i64 0), i64 14)
  %6 = getelementptr inbounds %struct.hipDeviceProp_t, %struct.hipDeviceProp_t* %2, i64 0, i32 13
  %7 = load i32, i32* %6, align 4, !tbaa !46
  %8 = call nonnull align 8 dereferenceable(8) %"class.std::basic_ostream"* @_ZNSolsEi(%"class.std::basic_ostream"* nonnull align 8 dereferenceable(8) @_ZSt4cout, i32 %7)
  %9 = bitcast %"class.std::basic_ostream"* %8 to i8**
  %10 = load i8*, i8** %9, align 8, !tbaa !27
  %11 = getelementptr i8, i8* %10, i64 -24
  %12 = bitcast i8* %11 to i64*
  %13 = load i64, i64* %12, align 8
  %14 = bitcast %"class.std::basic_ostream"* %8 to i8*
  %15 = getelementptr inbounds i8, i8* %14, i64 %13
  %16 = getelementptr inbounds i8, i8* %15, i64 240
  %17 = bitcast i8* %16 to %"class.std::ctype"**
  %18 = load %"class.std::ctype"*, %"class.std::ctype"** %17, align 8, !tbaa !29
  %19 = icmp eq %"class.std::ctype"* %18, null
  br i1 %19, label %20, label %21

20:                                               ; preds = %1
  call void @_ZSt16__throw_bad_castv() #25
  unreachable

21:                                               ; preds = %1
  %22 = getelementptr inbounds %"class.std::ctype", %"class.std::ctype"* %18, i64 0, i32 8
  %23 = load i8, i8* %22, align 8, !tbaa !31
  %24 = icmp eq i8 %23, 0
  br i1 %24, label %28, label %25

25:                                               ; preds = %21
  %26 = getelementptr inbounds %"class.std::ctype", %"class.std::ctype"* %18, i64 0, i32 9, i64 10
  %27 = load i8, i8* %26, align 1, !tbaa !33
  br label %34

28:                                               ; preds = %21
  call void @_ZNKSt5ctypeIcE13_M_widen_initEv(%"class.std::ctype"* nonnull align 8 dereferenceable(570) %18)
  %29 = bitcast %"class.std::ctype"* %18 to i8 (%"class.std::ctype"*, i8)***
  %30 = load i8 (%"class.std::ctype"*, i8)**, i8 (%"class.std::ctype"*, i8)*** %29, align 8, !tbaa !27
  %31 = getelementptr inbounds i8 (%"class.std::ctype"*, i8)*, i8 (%"class.std::ctype"*, i8)** %30, i64 6
  %32 = load i8 (%"class.std::ctype"*, i8)*, i8 (%"class.std::ctype"*, i8)** %31, align 8
  %33 = call signext i8 %32(%"class.std::ctype"* nonnull align 8 dereferenceable(570) %18, i8 signext 10)
  br label %34

34:                                               ; preds = %25, %28
  %35 = phi i8 [ %27, %25 ], [ %33, %28 ]
  %36 = call nonnull align 8 dereferenceable(8) %"class.std::basic_ostream"* @_ZNSo3putEc(%"class.std::basic_ostream"* nonnull align 8 dereferenceable(8) %8, i8 signext %35)
  %37 = call nonnull align 8 dereferenceable(8) %"class.std::basic_ostream"* @_ZNSo5flushEv(%"class.std::basic_ostream"* nonnull align 8 dereferenceable(8) %36)
  %38 = call nonnull align 8 dereferenceable(8) %"class.std::basic_ostream"* @_ZSt16__ostream_insertIcSt11char_traitsIcEERSt13basic_ostreamIT_T0_ES6_PKS3_l(%"class.std::basic_ostream"* nonnull align 8 dereferenceable(8) @_ZSt4cout, i8* nonnull getelementptr inbounds ([15 x i8], [15 x i8]* @.str.10, i64 0, i64 0), i64 14)
  %39 = getelementptr inbounds %struct.hipDeviceProp_t, %struct.hipDeviceProp_t* %2, i64 0, i32 12
  %40 = load i32, i32* %39, align 8, !tbaa !49
  %41 = call nonnull align 8 dereferenceable(8) %"class.std::basic_ostream"* @_ZNSolsEi(%"class.std::basic_ostream"* nonnull align 8 dereferenceable(8) @_ZSt4cout, i32 %40)
  %42 = bitcast %"class.std::basic_ostream"* %41 to i8**
  %43 = load i8*, i8** %42, align 8, !tbaa !27
  %44 = getelementptr i8, i8* %43, i64 -24
  %45 = bitcast i8* %44 to i64*
  %46 = load i64, i64* %45, align 8
  %47 = bitcast %"class.std::basic_ostream"* %41 to i8*
  %48 = getelementptr inbounds i8, i8* %47, i64 %46
  %49 = getelementptr inbounds i8, i8* %48, i64 240
  %50 = bitcast i8* %49 to %"class.std::ctype"**
  %51 = load %"class.std::ctype"*, %"class.std::ctype"** %50, align 8, !tbaa !29
  %52 = icmp eq %"class.std::ctype"* %51, null
  br i1 %52, label %53, label %54

53:                                               ; preds = %34
  call void @_ZSt16__throw_bad_castv() #25
  unreachable

54:                                               ; preds = %34
  %55 = getelementptr inbounds %"class.std::ctype", %"class.std::ctype"* %51, i64 0, i32 8
  %56 = load i8, i8* %55, align 8, !tbaa !31
  %57 = icmp eq i8 %56, 0
  br i1 %57, label %61, label %58

58:                                               ; preds = %54
  %59 = getelementptr inbounds %"class.std::ctype", %"class.std::ctype"* %51, i64 0, i32 9, i64 10
  %60 = load i8, i8* %59, align 1, !tbaa !33
  br label %67

61:                                               ; preds = %54
  call void @_ZNKSt5ctypeIcE13_M_widen_initEv(%"class.std::ctype"* nonnull align 8 dereferenceable(570) %51)
  %62 = bitcast %"class.std::ctype"* %51 to i8 (%"class.std::ctype"*, i8)***
  %63 = load i8 (%"class.std::ctype"*, i8)**, i8 (%"class.std::ctype"*, i8)*** %62, align 8, !tbaa !27
  %64 = getelementptr inbounds i8 (%"class.std::ctype"*, i8)*, i8 (%"class.std::ctype"*, i8)** %63, i64 6
  %65 = load i8 (%"class.std::ctype"*, i8)*, i8 (%"class.std::ctype"*, i8)** %64, align 8
  %66 = call signext i8 %65(%"class.std::ctype"* nonnull align 8 dereferenceable(570) %51, i8 signext 10)
  br label %67

67:                                               ; preds = %58, %61
  %68 = phi i8 [ %60, %58 ], [ %66, %61 ]
  %69 = call nonnull align 8 dereferenceable(8) %"class.std::basic_ostream"* @_ZNSo3putEc(%"class.std::basic_ostream"* nonnull align 8 dereferenceable(8) %41, i8 signext %68)
  %70 = call nonnull align 8 dereferenceable(8) %"class.std::basic_ostream"* @_ZNSo5flushEv(%"class.std::basic_ostream"* nonnull align 8 dereferenceable(8) %69)
  %71 = call nonnull align 8 dereferenceable(8) %"class.std::basic_ostream"* @_ZSt16__ostream_insertIcSt11char_traitsIcEERSt13basic_ostreamIT_T0_ES6_PKS3_l(%"class.std::basic_ostream"* nonnull align 8 dereferenceable(8) @_ZSt4cout, i8* nonnull getelementptr inbounds ([18 x i8], [18 x i8]* @.str.11, i64 0, i64 0), i64 17)
  %72 = call i64 @strlen(i8* noundef nonnull dereferenceable(1) %3) #24
  %73 = call nonnull align 8 dereferenceable(8) %"class.std::basic_ostream"* @_ZSt16__ostream_insertIcSt11char_traitsIcEERSt13basic_ostreamIT_T0_ES6_PKS3_l(%"class.std::basic_ostream"* nonnull align 8 dereferenceable(8) @_ZSt4cout, i8* nonnull %3, i64 %72)
  %74 = load i8*, i8** bitcast (%"class.std::basic_ostream"* @_ZSt4cout to i8**), align 8, !tbaa !27
  %75 = getelementptr i8, i8* %74, i64 -24
  %76 = bitcast i8* %75 to i64*
  %77 = load i64, i64* %76, align 8
  %78 = getelementptr inbounds i8, i8* bitcast (%"class.std::basic_ostream"* @_ZSt4cout to i8*), i64 %77
  %79 = getelementptr inbounds i8, i8* %78, i64 240
  %80 = bitcast i8* %79 to %"class.std::ctype"**
  %81 = load %"class.std::ctype"*, %"class.std::ctype"** %80, align 8, !tbaa !29
  %82 = icmp eq %"class.std::ctype"* %81, null
  br i1 %82, label %83, label %84

83:                                               ; preds = %67
  call void @_ZSt16__throw_bad_castv() #25
  unreachable

84:                                               ; preds = %67
  %85 = getelementptr inbounds %"class.std::ctype", %"class.std::ctype"* %81, i64 0, i32 8
  %86 = load i8, i8* %85, align 8, !tbaa !31
  %87 = icmp eq i8 %86, 0
  br i1 %87, label %91, label %88

88:                                               ; preds = %84
  %89 = getelementptr inbounds %"class.std::ctype", %"class.std::ctype"* %81, i64 0, i32 9, i64 10
  %90 = load i8, i8* %89, align 1, !tbaa !33
  br label %97

91:                                               ; preds = %84
  call void @_ZNKSt5ctypeIcE13_M_widen_initEv(%"class.std::ctype"* nonnull align 8 dereferenceable(570) %81)
  %92 = bitcast %"class.std::ctype"* %81 to i8 (%"class.std::ctype"*, i8)***
  %93 = load i8 (%"class.std::ctype"*, i8)**, i8 (%"class.std::ctype"*, i8)*** %92, align 8, !tbaa !27
  %94 = getelementptr inbounds i8 (%"class.std::ctype"*, i8)*, i8 (%"class.std::ctype"*, i8)** %93, i64 6
  %95 = load i8 (%"class.std::ctype"*, i8)*, i8 (%"class.std::ctype"*, i8)** %94, align 8
  %96 = call signext i8 %95(%"class.std::ctype"* nonnull align 8 dereferenceable(570) %81, i8 signext 10)
  br label %97

97:                                               ; preds = %88, %91
  %98 = phi i8 [ %90, %88 ], [ %96, %91 ]
  %99 = call nonnull align 8 dereferenceable(8) %"class.std::basic_ostream"* @_ZNSo3putEc(%"class.std::basic_ostream"* nonnull align 8 dereferenceable(8) @_ZSt4cout, i8 signext %98)
  %100 = call nonnull align 8 dereferenceable(8) %"class.std::basic_ostream"* @_ZNSo5flushEv(%"class.std::basic_ostream"* nonnull align 8 dereferenceable(8) %99)
  call void @llvm.lifetime.end.p0i8(i64 792, i8* nonnull %3) #24
  ret i32 0
}

declare dso_local i32 @hipGetDeviceProperties(%struct.hipDeviceProp_t*, i32) local_unnamed_addr #0

; Function Attrs: uwtable
define dso_local i32 @_ZN9Histogram10runKernelsEv(%class.Histogram* nonnull align 8 dereferenceable(144) %0) local_unnamed_addr #7 align 2 {
  %2 = alloca i32*, align 8
  %3 = alloca i32*, align 8
  %4 = alloca %struct.dim3, align 8
  %5 = alloca %struct.dim3, align 8
  %6 = alloca i64, align 8
  %7 = alloca i8*, align 8
  %8 = alloca [2 x i8*], align 16
  %9 = alloca %struct.ihipEvent_t*, align 8
  %10 = alloca %struct.ihipEvent_t*, align 8
  %11 = alloca float, align 4
  %12 = alloca i32*, align 8
  %13 = bitcast %struct.ihipEvent_t** %9 to i8*
  call void @llvm.lifetime.start.p0i8(i64 8, i8* nonnull %13) #24
  %14 = bitcast %struct.ihipEvent_t** %10 to i8*
  call void @llvm.lifetime.start.p0i8(i64 8, i8* nonnull %14) #24
  %15 = call i32 @hipEventCreate(%struct.ihipEvent_t** nonnull %9)
  %16 = call i32 @hipEventCreate(%struct.ihipEvent_t** nonnull %10)
  %17 = bitcast float* %11 to i8*
  call void @llvm.lifetime.start.p0i8(i64 4, i8* nonnull %17) #24
  store float 1.000000e+00, float* %11, align 4, !tbaa !50
  %18 = getelementptr inbounds %class.Histogram, %class.Histogram* %0, i64 0, i32 1
  store i32 128, i32* %18, align 4, !tbaa !52
  %19 = getelementptr inbounds %class.Histogram, %class.Histogram* %0, i64 0, i32 4
  %20 = load i32, i32* %19, align 8, !tbaa !17
  %21 = getelementptr inbounds %class.Histogram, %class.Histogram* %0, i64 0, i32 5
  %22 = load i32, i32* %21, align 4, !tbaa !7
  %23 = mul nsw i32 %22, %20
  %24 = sdiv i32 %23, 128
  %25 = getelementptr inbounds %class.Histogram, %class.Histogram* %0, i64 0, i32 19
  store i32 %24, i32* %25, align 4, !tbaa !53
  %26 = getelementptr inbounds %class.Histogram, %class.Histogram* %0, i64 0, i32 20
  store i32 128, i32* %26, align 8, !tbaa !54
  %27 = getelementptr inbounds %class.Histogram, %class.Histogram* %0, i64 0, i32 13
  %28 = bitcast i32** %27 to i8**
  %29 = sext i32 %20 to i64
  %30 = shl nsw i64 %29, 2
  %31 = sext i32 %22 to i64
  %32 = mul i64 %30, %31
  %33 = call i32 @hipHostMalloc(i8** nonnull %28, i64 %32, i32 0)
  %34 = bitcast i32** %12 to i8*
  call void @llvm.lifetime.start.p0i8(i64 8, i8* nonnull %34) #24
  %35 = bitcast i32** %12 to i8**
  %36 = load i8*, i8** %28, align 8, !tbaa !55
  %37 = call i32 @hipHostGetDevicePointer(i8** nonnull %35, i8* %36, i32 0)
  %38 = load i8*, i8** %35, align 8, !tbaa !3
  %39 = getelementptr inbounds %class.Histogram, %class.Histogram* %0, i64 0, i32 3
  %40 = bitcast i32** %39 to i8**
  %41 = load i8*, i8** %40, align 8, !tbaa !19
  %42 = load i32, i32* %19, align 8, !tbaa !17
  %43 = sext i32 %42 to i64
  %44 = shl nsw i64 %43, 2
  %45 = load i32, i32* %21, align 4, !tbaa !7
  %46 = sext i32 %45 to i64
  %47 = mul i64 %44, %46
  %48 = call i32 @hipMemcpy(i8* %38, i8* %41, i64 %47, i32 1)
  %49 = load i32, i32* %19, align 8, !tbaa !17
  %50 = load i32, i32* %21, align 4, !tbaa !7
  %51 = mul nsw i32 %50, %49
  %52 = load i32, i32* %18, align 4, !tbaa !52
  %53 = getelementptr inbounds %class.Histogram, %class.Histogram* %0, i64 0, i32 21
  %54 = load i32, i32* %53, align 4, !tbaa !56
  %55 = mul nsw i32 %54, %52
  %56 = sdiv i32 %51, %55
  %57 = getelementptr inbounds %class.Histogram, %class.Histogram* %0, i64 0, i32 2
  store i32 %56, i32* %57, align 8, !tbaa !35
  %58 = getelementptr inbounds %class.Histogram, %class.Histogram* %0, i64 0, i32 14
  %59 = bitcast i32** %58 to i8**
  %60 = getelementptr inbounds %class.Histogram, %class.Histogram* %0, i64 0, i32 0
  %61 = load i32, i32* %60, align 8, !tbaa !20
  %62 = sext i32 %61 to i64
  %63 = sext i32 %56 to i64
  %64 = shl nsw i64 %63, 2
  %65 = mul i64 %64, %62
  %66 = call i32 @hipHostMalloc(i8** nonnull %59, i64 %65, i32 0)
  %67 = load %struct.ihipEvent_t*, %struct.ihipEvent_t** %9, align 8, !tbaa !3
  %68 = call i32 @hipEventRecord(%struct.ihipEvent_t* %67, %struct.ihipStream_t* null)
  %69 = load i32, i32* %25, align 4, !tbaa !53
  %70 = load i32, i32* %26, align 8, !tbaa !54
  %71 = udiv i32 %69, %70
  %72 = load i32, i32* %18, align 4, !tbaa !52
  %73 = load i32, i32* %60, align 8, !tbaa !20
  %74 = mul nsw i32 %73, %72
  %75 = sext i32 %74 to i64
  %76 = zext i32 %71 to i64
  %77 = or i64 %76, 4294967296
  %78 = zext i32 %70 to i64
  %79 = or i64 %78, 4294967296
  %80 = call i32 @__hipPushCallConfiguration(i64 %77, i32 1, i64 %79, i32 1, i64 %75, %struct.ihipStream_t* null)
  %81 = icmp eq i32 %80, 0
  br i1 %81, label %82, label %109

82:                                               ; preds = %1
  %83 = load i32*, i32** %27, align 8, !tbaa !55
  %84 = load i32*, i32** %58, align 8, !tbaa !57
  %85 = bitcast i32** %2 to i8*
  call void @llvm.lifetime.start.p0i8(i64 8, i8* nonnull %85)
  %86 = bitcast i32** %3 to i8*
  call void @llvm.lifetime.start.p0i8(i64 8, i8* nonnull %86)
  %87 = bitcast %struct.dim3* %4 to i8*
  call void @llvm.lifetime.start.p0i8(i64 12, i8* nonnull %87)
  %88 = bitcast %struct.dim3* %5 to i8*
  call void @llvm.lifetime.start.p0i8(i64 12, i8* nonnull %88)
  %89 = bitcast i64* %6 to i8*
  call void @llvm.lifetime.start.p0i8(i64 8, i8* nonnull %89)
  %90 = bitcast i8** %7 to i8*
  call void @llvm.lifetime.start.p0i8(i64 8, i8* nonnull %90)
  %91 = bitcast [2 x i8*]* %8 to i8*
  call void @llvm.lifetime.start.p0i8(i64 16, i8* nonnull %91)
  store i32* %83, i32** %2, align 8, !tbaa !3
  store i32* %84, i32** %3, align 8, !tbaa !3
  %92 = getelementptr inbounds [2 x i8*], [2 x i8*]* %8, i64 0, i64 0
  %93 = bitcast [2 x i8*]* %8 to i32***
  store i32** %2, i32*** %93, align 16
  %94 = getelementptr inbounds [2 x i8*], [2 x i8*]* %8, i64 0, i64 1
  %95 = bitcast i8** %94 to i32***
  store i32** %3, i32*** %95, align 8
  %96 = call i32 @__hipPopCallConfiguration(%struct.dim3* nonnull %4, %struct.dim3* nonnull %5, i64* nonnull %6, i8** nonnull %7)
  %97 = load i64, i64* %6, align 8
  %98 = bitcast i8** %7 to %struct.ihipStream_t**
  %99 = load %struct.ihipStream_t*, %struct.ihipStream_t** %98, align 8
  %100 = bitcast %struct.dim3* %4 to i64*
  %101 = load i64, i64* %100, align 8
  %102 = getelementptr inbounds %struct.dim3, %struct.dim3* %4, i64 0, i32 2
  %103 = load i32, i32* %102, align 8
  %104 = bitcast %struct.dim3* %5 to i64*
  %105 = load i64, i64* %104, align 8
  %106 = getelementptr inbounds %struct.dim3, %struct.dim3* %5, i64 0, i32 2
  %107 = load i32, i32* %106, align 8
  %108 = call i32 @hipLaunchKernel(i8* bitcast (void (i32*, i32*)** @_Z12histogram256PjS_ to i8*), i64 %101, i32 %103, i64 %105, i32 %107, i8** nonnull %92, i64 %97, %struct.ihipStream_t* %99)
  call void @llvm.lifetime.end.p0i8(i64 8, i8* nonnull %85)
  call void @llvm.lifetime.end.p0i8(i64 8, i8* nonnull %86)
  call void @llvm.lifetime.end.p0i8(i64 12, i8* nonnull %87)
  call void @llvm.lifetime.end.p0i8(i64 12, i8* nonnull %88)
  call void @llvm.lifetime.end.p0i8(i64 8, i8* nonnull %89)
  call void @llvm.lifetime.end.p0i8(i64 8, i8* nonnull %90)
  call void @llvm.lifetime.end.p0i8(i64 16, i8* nonnull %91)
  br label %109

109:                                              ; preds = %82, %1
  %110 = load %struct.ihipEvent_t*, %struct.ihipEvent_t** %10, align 8, !tbaa !3
  %111 = call i32 @hipEventRecord(%struct.ihipEvent_t* %110, %struct.ihipStream_t* null)
  %112 = load %struct.ihipEvent_t*, %struct.ihipEvent_t** %10, align 8, !tbaa !3
  %113 = call i32 @hipEventSynchronize(%struct.ihipEvent_t* %112)
  %114 = load %struct.ihipEvent_t*, %struct.ihipEvent_t** %9, align 8, !tbaa !3
  %115 = load %struct.ihipEvent_t*, %struct.ihipEvent_t** %10, align 8, !tbaa !3
  %116 = call i32 @hipEventElapsedTime(float* nonnull %11, %struct.ihipEvent_t* %114, %struct.ihipEvent_t* %115)
  %117 = load float, float* %11, align 4, !tbaa !50
  %118 = fpext float %117 to double
  %119 = call i32 (i8*, ...) @printf(i8* nonnull dereferenceable(1) getelementptr inbounds ([44 x i8], [44 x i8]* @.str.12, i64 0, i64 0), double %118)
  %120 = getelementptr inbounds %class.Histogram, %class.Histogram* %0, i64 0, i32 7
  %121 = bitcast i32** %120 to i8**
  %122 = load i8*, i8** %121, align 8, !tbaa !36
  %123 = load i8*, i8** %59, align 8, !tbaa !57
  %124 = load i32, i32* %60, align 8, !tbaa !20
  %125 = sext i32 %124 to i64
  %126 = shl nsw i64 %125, 2
  %127 = load i32, i32* %57, align 8, !tbaa !35
  %128 = sext i32 %127 to i64
  %129 = mul i64 %126, %128
  %130 = call i32 @hipMemcpy(i8* %122, i8* %123, i64 %129, i32 2)
  %131 = getelementptr inbounds %class.Histogram, %class.Histogram* %0, i64 0, i32 8
  %132 = bitcast i32** %131 to i8**
  %133 = load i8*, i8** %132, align 8, !tbaa !34
  %134 = load i32, i32* %60, align 8, !tbaa !20
  %135 = sext i32 %134 to i64
  %136 = shl nsw i64 %135, 2
  call void @llvm.memset.p0i8.i64(i8* align 4 %133, i8 0, i64 %136, i1 false)
  %137 = load i32, i32* %57, align 8, !tbaa !35
  %138 = icmp sgt i32 %137, 0
  %139 = load i32, i32* %60, align 8
  %140 = icmp sgt i32 %139, 0
  %141 = select i1 %138, i1 %140, i1 false
  br i1 %141, label %142, label %149

142:                                              ; preds = %109, %152
  %143 = phi i32 [ %153, %152 ], [ %137, %109 ]
  %144 = phi i32 [ %154, %152 ], [ %139, %109 ]
  %145 = phi i32 [ %155, %152 ], [ 0, %109 ]
  %146 = load i32*, i32** %120, align 8
  %147 = load i32*, i32** %131, align 8
  %148 = icmp sgt i32 %144, 0
  br i1 %148, label %157, label %152

149:                                              ; preds = %152, %109
  call void @llvm.lifetime.end.p0i8(i64 8, i8* nonnull %34) #24
  call void @llvm.lifetime.end.p0i8(i64 4, i8* nonnull %17) #24
  call void @llvm.lifetime.end.p0i8(i64 8, i8* nonnull %14) #24
  call void @llvm.lifetime.end.p0i8(i64 8, i8* nonnull %13) #24
  ret i32 0

150:                                              ; preds = %157
  %151 = load i32, i32* %57, align 8, !tbaa !35
  br label %152

152:                                              ; preds = %150, %142
  %153 = phi i32 [ %151, %150 ], [ %143, %142 ]
  %154 = phi i32 [ %170, %150 ], [ %144, %142 ]
  %155 = add nuw nsw i32 %145, 1
  %156 = icmp slt i32 %155, %153
  br i1 %156, label %142, label %149, !llvm.loop !58

157:                                              ; preds = %142, %157
  %158 = phi i64 [ %169, %157 ], [ 0, %142 ]
  %159 = phi i32 [ %170, %157 ], [ %144, %142 ]
  %160 = mul nsw i32 %159, %145
  %161 = trunc i64 %158 to i32
  %162 = add nsw i32 %160, %161
  %163 = sext i32 %162 to i64
  %164 = getelementptr inbounds i32, i32* %146, i64 %163
  %165 = load i32, i32* %164, align 4, !tbaa !16
  %166 = getelementptr inbounds i32, i32* %147, i64 %158
  %167 = load i32, i32* %166, align 4, !tbaa !16
  %168 = add i32 %167, %165
  store i32 %168, i32* %166, align 4, !tbaa !16
  %169 = add nuw nsw i64 %158, 1
  %170 = load i32, i32* %60, align 8, !tbaa !20
  %171 = sext i32 %170 to i64
  %172 = icmp slt i64 %169, %171
  br i1 %172, label %157, label %150, !llvm.loop !59
}

declare dso_local i32 @hipEventCreate(%struct.ihipEvent_t**) local_unnamed_addr #0

declare dso_local i32 @hipHostMalloc(i8**, i64, i32) local_unnamed_addr #0

declare dso_local i32 @hipHostGetDevicePointer(i8**, i8*, i32) local_unnamed_addr #0

declare dso_local i32 @hipMemcpy(i8*, i8*, i64, i32) local_unnamed_addr #0

declare dso_local i32 @hipEventRecord(%struct.ihipEvent_t*, %struct.ihipStream_t*) local_unnamed_addr #0

declare dso_local i32 @__hipPushCallConfiguration(i64, i32, i64, i32, i64, %struct.ihipStream_t*) local_unnamed_addr #0

declare dso_local i32 @hipEventSynchronize(%struct.ihipEvent_t*) local_unnamed_addr #0

declare dso_local i32 @hipEventElapsedTime(float*, %struct.ihipEvent_t*, %struct.ihipEvent_t*) local_unnamed_addr #0

; Function Attrs: nofree nounwind
declare dso_local noundef i32 @printf(i8* nocapture noundef readonly, ...) local_unnamed_addr #13

; Function Attrs: uwtable
define dso_local i32 @_ZN9Histogram10initializeEv(%class.Histogram* nonnull align 8 dereferenceable(144) %0) local_unnamed_addr #7 align 2 personality i8* bitcast (i32 (...)* @__gxx_personality_v0 to i8*) {
  %2 = getelementptr inbounds %class.Histogram, %class.Histogram* %0, i64 0, i32 23
  %3 = load %"class.appsdk::HIPCommandArgs"*, %"class.appsdk::HIPCommandArgs"** %2, align 8, !tbaa !40
  %4 = tail call i32 @_ZN6appsdk14HIPCommandArgs10initializeEv(%"class.appsdk::HIPCommandArgs"* nonnull align 8 dereferenceable(93) %3)
  %5 = icmp eq i32 %4, 0
  br i1 %5, label %6, label %96

6:                                                ; preds = %1
  %7 = tail call noalias nonnull dereferenceable(48) i8* @_Znwm(i64 48) #26
  %8 = bitcast i8* %7 to %"struct.appsdk::Option"*
  %9 = getelementptr inbounds %"struct.appsdk::Option", %"struct.appsdk::Option"* %8, i64 0, i32 0, i32 0, i32 0
  store i8* bitcast (i64* getelementptr inbounds ([0 x i64], [0 x i64]* @_ZNSs4_Rep20_S_empty_rep_storageE, i64 0, i64 3) to i8*), i8** %9, align 8, !tbaa !60
  %10 = getelementptr inbounds %"struct.appsdk::Option", %"struct.appsdk::Option"* %8, i64 0, i32 1, i32 0, i32 0
  store i8* bitcast (i64* getelementptr inbounds ([0 x i64], [0 x i64]* @_ZNSs4_Rep20_S_empty_rep_storageE, i64 0, i64 3) to i8*), i8** %10, align 8, !tbaa !60
  %11 = getelementptr inbounds %"struct.appsdk::Option", %"struct.appsdk::Option"* %8, i64 0, i32 2, i32 0, i32 0
  store i8* bitcast (i64* getelementptr inbounds ([0 x i64], [0 x i64]* @_ZNSs4_Rep20_S_empty_rep_storageE, i64 0, i64 3) to i8*), i8** %11, align 8, !tbaa !60
  %12 = getelementptr inbounds %"struct.appsdk::Option", %"struct.appsdk::Option"* %8, i64 0, i32 3, i32 0, i32 0
  store i8* bitcast (i64* getelementptr inbounds ([0 x i64], [0 x i64]* @_ZNSs4_Rep20_S_empty_rep_storageE, i64 0, i64 3) to i8*), i8** %12, align 8, !tbaa !60
  %13 = getelementptr inbounds %"struct.appsdk::Option", %"struct.appsdk::Option"* %8, i64 0, i32 0
  %14 = tail call nonnull align 8 dereferenceable(8) %"class.std::basic_string"* @_ZNSs6assignEPKcm(%"class.std::basic_string"* nonnull align 8 dereferenceable(8) %13, i8* getelementptr inbounds ([2 x i8], [2 x i8]* @.str.14, i64 0, i64 0), i64 1)
  %15 = getelementptr inbounds %"struct.appsdk::Option", %"struct.appsdk::Option"* %8, i64 0, i32 1
  %16 = tail call nonnull align 8 dereferenceable(8) %"class.std::basic_string"* @_ZNSs6assignEPKcm(%"class.std::basic_string"* nonnull align 8 dereferenceable(8) %15, i8* getelementptr inbounds ([6 x i8], [6 x i8]* @.str.15, i64 0, i64 0), i64 5)
  %17 = getelementptr inbounds %"struct.appsdk::Option", %"struct.appsdk::Option"* %8, i64 0, i32 2
  %18 = tail call nonnull align 8 dereferenceable(8) %"class.std::basic_string"* @_ZNSs6assignEPKcm(%"class.std::basic_string"* nonnull align 8 dereferenceable(8) %17, i8* getelementptr inbounds ([19 x i8], [19 x i8]* @.str.16, i64 0, i64 0), i64 18)
  %19 = getelementptr inbounds %"struct.appsdk::Option", %"struct.appsdk::Option"* %8, i64 0, i32 4
  store i32 0, i32* %19, align 8, !tbaa !61
  %20 = getelementptr inbounds %class.Histogram, %class.Histogram* %0, i64 0, i32 4
  %21 = getelementptr inbounds %"struct.appsdk::Option", %"struct.appsdk::Option"* %8, i64 0, i32 5
  %22 = bitcast i8** %21 to i32**
  store i32* %20, i32** %22, align 8, !tbaa !64
  %23 = bitcast %"class.appsdk::HIPCommandArgs"** %2 to %"class.appsdk::SDKCmdArgsParser"**
  %24 = load %"class.appsdk::SDKCmdArgsParser"*, %"class.appsdk::SDKCmdArgsParser"** %23, align 8, !tbaa !40
  %25 = tail call i32 @_ZN6appsdk16SDKCmdArgsParser9AddOptionEPNS_6OptionE(%"class.appsdk::SDKCmdArgsParser"* nonnull align 8 dereferenceable(88) %24, %"struct.appsdk::Option"* nonnull %8)
  tail call void @_ZN6appsdk6OptionD2Ev(%"struct.appsdk::Option"* nonnull align 8 dereferenceable(48) %8) #24
  tail call void @_ZdlPv(i8* nonnull %7) #27
  %26 = tail call noalias nonnull dereferenceable(48) i8* @_Znwm(i64 48) #26
  %27 = bitcast i8* %26 to %"struct.appsdk::Option"*
  %28 = getelementptr inbounds %"struct.appsdk::Option", %"struct.appsdk::Option"* %27, i64 0, i32 0, i32 0, i32 0
  store i8* bitcast (i64* getelementptr inbounds ([0 x i64], [0 x i64]* @_ZNSs4_Rep20_S_empty_rep_storageE, i64 0, i64 3) to i8*), i8** %28, align 8, !tbaa !60
  %29 = getelementptr inbounds %"struct.appsdk::Option", %"struct.appsdk::Option"* %27, i64 0, i32 1, i32 0, i32 0
  store i8* bitcast (i64* getelementptr inbounds ([0 x i64], [0 x i64]* @_ZNSs4_Rep20_S_empty_rep_storageE, i64 0, i64 3) to i8*), i8** %29, align 8, !tbaa !60
  %30 = getelementptr inbounds %"struct.appsdk::Option", %"struct.appsdk::Option"* %27, i64 0, i32 2, i32 0, i32 0
  store i8* bitcast (i64* getelementptr inbounds ([0 x i64], [0 x i64]* @_ZNSs4_Rep20_S_empty_rep_storageE, i64 0, i64 3) to i8*), i8** %30, align 8, !tbaa !60
  %31 = getelementptr inbounds %"struct.appsdk::Option", %"struct.appsdk::Option"* %27, i64 0, i32 3, i32 0, i32 0
  store i8* bitcast (i64* getelementptr inbounds ([0 x i64], [0 x i64]* @_ZNSs4_Rep20_S_empty_rep_storageE, i64 0, i64 3) to i8*), i8** %31, align 8, !tbaa !60
  %32 = getelementptr inbounds %"struct.appsdk::Option", %"struct.appsdk::Option"* %27, i64 0, i32 0
  %33 = tail call nonnull align 8 dereferenceable(8) %"class.std::basic_string"* @_ZNSs6assignEPKcm(%"class.std::basic_string"* nonnull align 8 dereferenceable(8) %32, i8* getelementptr inbounds ([2 x i8], [2 x i8]* @.str.17, i64 0, i64 0), i64 1)
  %34 = getelementptr inbounds %"struct.appsdk::Option", %"struct.appsdk::Option"* %27, i64 0, i32 1
  %35 = tail call nonnull align 8 dereferenceable(8) %"class.std::basic_string"* @_ZNSs6assignEPKcm(%"class.std::basic_string"* nonnull align 8 dereferenceable(8) %34, i8* getelementptr inbounds ([7 x i8], [7 x i8]* @.str.18, i64 0, i64 0), i64 6)
  %36 = getelementptr inbounds %"struct.appsdk::Option", %"struct.appsdk::Option"* %27, i64 0, i32 2
  %37 = tail call nonnull align 8 dereferenceable(8) %"class.std::basic_string"* @_ZNSs6assignEPKcm(%"class.std::basic_string"* nonnull align 8 dereferenceable(8) %36, i8* getelementptr inbounds ([20 x i8], [20 x i8]* @.str.19, i64 0, i64 0), i64 19)
  %38 = getelementptr inbounds %"struct.appsdk::Option", %"struct.appsdk::Option"* %27, i64 0, i32 4
  store i32 0, i32* %38, align 8, !tbaa !61
  %39 = getelementptr inbounds %class.Histogram, %class.Histogram* %0, i64 0, i32 5
  %40 = getelementptr inbounds %"struct.appsdk::Option", %"struct.appsdk::Option"* %27, i64 0, i32 5
  %41 = bitcast i8** %40 to i32**
  store i32* %39, i32** %41, align 8, !tbaa !64
  %42 = load %"class.appsdk::SDKCmdArgsParser"*, %"class.appsdk::SDKCmdArgsParser"** %23, align 8, !tbaa !40
  %43 = tail call i32 @_ZN6appsdk16SDKCmdArgsParser9AddOptionEPNS_6OptionE(%"class.appsdk::SDKCmdArgsParser"* nonnull align 8 dereferenceable(88) %42, %"struct.appsdk::Option"* nonnull %27)
  tail call void @_ZN6appsdk6OptionD2Ev(%"struct.appsdk::Option"* nonnull align 8 dereferenceable(48) %27) #24
  tail call void @_ZdlPv(i8* nonnull %26) #27
  %44 = tail call noalias nonnull dereferenceable(48) i8* @_Znwm(i64 48) #26
  %45 = bitcast i8* %44 to %"struct.appsdk::Option"*
  %46 = getelementptr inbounds %"struct.appsdk::Option", %"struct.appsdk::Option"* %45, i64 0, i32 0, i32 0, i32 0
  store i8* bitcast (i64* getelementptr inbounds ([0 x i64], [0 x i64]* @_ZNSs4_Rep20_S_empty_rep_storageE, i64 0, i64 3) to i8*), i8** %46, align 8, !tbaa !60
  %47 = getelementptr inbounds %"struct.appsdk::Option", %"struct.appsdk::Option"* %45, i64 0, i32 1, i32 0, i32 0
  store i8* bitcast (i64* getelementptr inbounds ([0 x i64], [0 x i64]* @_ZNSs4_Rep20_S_empty_rep_storageE, i64 0, i64 3) to i8*), i8** %47, align 8, !tbaa !60
  %48 = getelementptr inbounds %"struct.appsdk::Option", %"struct.appsdk::Option"* %45, i64 0, i32 2, i32 0, i32 0
  store i8* bitcast (i64* getelementptr inbounds ([0 x i64], [0 x i64]* @_ZNSs4_Rep20_S_empty_rep_storageE, i64 0, i64 3) to i8*), i8** %48, align 8, !tbaa !60
  %49 = getelementptr inbounds %"struct.appsdk::Option", %"struct.appsdk::Option"* %45, i64 0, i32 3, i32 0, i32 0
  store i8* bitcast (i64* getelementptr inbounds ([0 x i64], [0 x i64]* @_ZNSs4_Rep20_S_empty_rep_storageE, i64 0, i64 3) to i8*), i8** %49, align 8, !tbaa !60
  %50 = getelementptr inbounds %"struct.appsdk::Option", %"struct.appsdk::Option"* %45, i64 0, i32 0
  %51 = tail call nonnull align 8 dereferenceable(8) %"class.std::basic_string"* @_ZNSs6assignEPKcm(%"class.std::basic_string"* nonnull align 8 dereferenceable(8) %50, i8* getelementptr inbounds ([2 x i8], [2 x i8]* @.str.20, i64 0, i64 0), i64 1)
  %52 = getelementptr inbounds %"struct.appsdk::Option", %"struct.appsdk::Option"* %45, i64 0, i32 1
  %53 = tail call nonnull align 8 dereferenceable(8) %"class.std::basic_string"* @_ZNSs6assignEPKcm(%"class.std::basic_string"* nonnull align 8 dereferenceable(8) %52, i8* getelementptr inbounds ([11 x i8], [11 x i8]* @.str.21, i64 0, i64 0), i64 10)
  %54 = getelementptr inbounds %"struct.appsdk::Option", %"struct.appsdk::Option"* %45, i64 0, i32 2
  %55 = tail call nonnull align 8 dereferenceable(8) %"class.std::basic_string"* @_ZNSs6assignEPKcm(%"class.std::basic_string"* nonnull align 8 dereferenceable(8) %54, i8* getelementptr inbounds ([39 x i8], [39 x i8]* @.str.22, i64 0, i64 0), i64 38)
  %56 = getelementptr inbounds %"struct.appsdk::Option", %"struct.appsdk::Option"* %45, i64 0, i32 4
  store i32 0, i32* %56, align 8, !tbaa !61
  %57 = getelementptr inbounds %class.Histogram, %class.Histogram* %0, i64 0, i32 15
  %58 = getelementptr inbounds %"struct.appsdk::Option", %"struct.appsdk::Option"* %45, i64 0, i32 5
  %59 = bitcast i8** %58 to i32**
  store i32* %57, i32** %59, align 8, !tbaa !64
  %60 = load %"class.appsdk::SDKCmdArgsParser"*, %"class.appsdk::SDKCmdArgsParser"** %23, align 8, !tbaa !40
  %61 = tail call i32 @_ZN6appsdk16SDKCmdArgsParser9AddOptionEPNS_6OptionE(%"class.appsdk::SDKCmdArgsParser"* nonnull align 8 dereferenceable(88) %60, %"struct.appsdk::Option"* nonnull %45)
  tail call void @_ZN6appsdk6OptionD2Ev(%"struct.appsdk::Option"* nonnull align 8 dereferenceable(48) %45) #24
  tail call void @_ZdlPv(i8* nonnull %44) #27
  %62 = tail call noalias nonnull dereferenceable(48) i8* @_Znwm(i64 48) #26
  %63 = bitcast i8* %62 to %"struct.appsdk::Option"*
  %64 = getelementptr inbounds %"struct.appsdk::Option", %"struct.appsdk::Option"* %63, i64 0, i32 0, i32 0, i32 0
  store i8* bitcast (i64* getelementptr inbounds ([0 x i64], [0 x i64]* @_ZNSs4_Rep20_S_empty_rep_storageE, i64 0, i64 3) to i8*), i8** %64, align 8, !tbaa !60
  %65 = getelementptr inbounds %"struct.appsdk::Option", %"struct.appsdk::Option"* %63, i64 0, i32 1, i32 0, i32 0
  store i8* bitcast (i64* getelementptr inbounds ([0 x i64], [0 x i64]* @_ZNSs4_Rep20_S_empty_rep_storageE, i64 0, i64 3) to i8*), i8** %65, align 8, !tbaa !60
  %66 = getelementptr inbounds %"struct.appsdk::Option", %"struct.appsdk::Option"* %63, i64 0, i32 2, i32 0, i32 0
  store i8* bitcast (i64* getelementptr inbounds ([0 x i64], [0 x i64]* @_ZNSs4_Rep20_S_empty_rep_storageE, i64 0, i64 3) to i8*), i8** %66, align 8, !tbaa !60
  %67 = getelementptr inbounds %"struct.appsdk::Option", %"struct.appsdk::Option"* %63, i64 0, i32 3, i32 0, i32 0
  store i8* bitcast (i64* getelementptr inbounds ([0 x i64], [0 x i64]* @_ZNSs4_Rep20_S_empty_rep_storageE, i64 0, i64 3) to i8*), i8** %67, align 8, !tbaa !60
  %68 = getelementptr inbounds %"struct.appsdk::Option", %"struct.appsdk::Option"* %63, i64 0, i32 0
  %69 = tail call nonnull align 8 dereferenceable(8) %"class.std::basic_string"* @_ZNSs6assignEPKcm(%"class.std::basic_string"* nonnull align 8 dereferenceable(8) %68, i8* getelementptr inbounds ([1 x i8], [1 x i8]* @.str.23, i64 0, i64 0), i64 0)
  %70 = getelementptr inbounds %"struct.appsdk::Option", %"struct.appsdk::Option"* %63, i64 0, i32 1
  %71 = tail call nonnull align 8 dereferenceable(8) %"class.std::basic_string"* @_ZNSs6assignEPKcm(%"class.std::basic_string"* nonnull align 8 dereferenceable(8) %70, i8* getelementptr inbounds ([7 x i8], [7 x i8]* @.str.24, i64 0, i64 0), i64 6)
  %72 = getelementptr inbounds %"struct.appsdk::Option", %"struct.appsdk::Option"* %63, i64 0, i32 2
  %73 = tail call nonnull align 8 dereferenceable(8) %"class.std::basic_string"* @_ZNSs6assignEPKcm(%"class.std::basic_string"* nonnull align 8 dereferenceable(8) %72, i8* getelementptr inbounds ([88 x i8], [88 x i8]* @.str.25, i64 0, i64 0), i64 87)
  %74 = getelementptr inbounds %"struct.appsdk::Option", %"struct.appsdk::Option"* %63, i64 0, i32 4
  store i32 4, i32* %74, align 8, !tbaa !61
  %75 = getelementptr inbounds %class.Histogram, %class.Histogram* %0, i64 0, i32 16
  %76 = getelementptr inbounds %"struct.appsdk::Option", %"struct.appsdk::Option"* %63, i64 0, i32 5
  store i8* %75, i8** %76, align 8, !tbaa !64
  %77 = load %"class.appsdk::SDKCmdArgsParser"*, %"class.appsdk::SDKCmdArgsParser"** %23, align 8, !tbaa !40
  %78 = tail call i32 @_ZN6appsdk16SDKCmdArgsParser9AddOptionEPNS_6OptionE(%"class.appsdk::SDKCmdArgsParser"* nonnull align 8 dereferenceable(88) %77, %"struct.appsdk::Option"* nonnull %63)
  tail call void @_ZN6appsdk6OptionD2Ev(%"struct.appsdk::Option"* nonnull align 8 dereferenceable(48) %63) #24
  tail call void @_ZdlPv(i8* nonnull %62) #27
  %79 = tail call noalias nonnull dereferenceable(48) i8* @_Znwm(i64 48) #26
  %80 = bitcast i8* %79 to %"struct.appsdk::Option"*
  %81 = getelementptr inbounds %"struct.appsdk::Option", %"struct.appsdk::Option"* %80, i64 0, i32 0, i32 0, i32 0
  store i8* bitcast (i64* getelementptr inbounds ([0 x i64], [0 x i64]* @_ZNSs4_Rep20_S_empty_rep_storageE, i64 0, i64 3) to i8*), i8** %81, align 8, !tbaa !60
  %82 = getelementptr inbounds %"struct.appsdk::Option", %"struct.appsdk::Option"* %80, i64 0, i32 1, i32 0, i32 0
  store i8* bitcast (i64* getelementptr inbounds ([0 x i64], [0 x i64]* @_ZNSs4_Rep20_S_empty_rep_storageE, i64 0, i64 3) to i8*), i8** %82, align 8, !tbaa !60
  %83 = getelementptr inbounds %"struct.appsdk::Option", %"struct.appsdk::Option"* %80, i64 0, i32 2, i32 0, i32 0
  store i8* bitcast (i64* getelementptr inbounds ([0 x i64], [0 x i64]* @_ZNSs4_Rep20_S_empty_rep_storageE, i64 0, i64 3) to i8*), i8** %83, align 8, !tbaa !60
  %84 = getelementptr inbounds %"struct.appsdk::Option", %"struct.appsdk::Option"* %80, i64 0, i32 3, i32 0, i32 0
  store i8* bitcast (i64* getelementptr inbounds ([0 x i64], [0 x i64]* @_ZNSs4_Rep20_S_empty_rep_storageE, i64 0, i64 3) to i8*), i8** %84, align 8, !tbaa !60
  %85 = getelementptr inbounds %"struct.appsdk::Option", %"struct.appsdk::Option"* %80, i64 0, i32 0
  %86 = tail call nonnull align 8 dereferenceable(8) %"class.std::basic_string"* @_ZNSs6assignEPKcm(%"class.std::basic_string"* nonnull align 8 dereferenceable(8) %85, i8* getelementptr inbounds ([1 x i8], [1 x i8]* @.str.23, i64 0, i64 0), i64 0)
  %87 = getelementptr inbounds %"struct.appsdk::Option", %"struct.appsdk::Option"* %80, i64 0, i32 1
  %88 = tail call nonnull align 8 dereferenceable(8) %"class.std::basic_string"* @_ZNSs6assignEPKcm(%"class.std::basic_string"* nonnull align 8 dereferenceable(8) %87, i8* getelementptr inbounds ([7 x i8], [7 x i8]* @.str.26, i64 0, i64 0), i64 6)
  %89 = getelementptr inbounds %"struct.appsdk::Option", %"struct.appsdk::Option"* %80, i64 0, i32 2
  %90 = tail call nonnull align 8 dereferenceable(8) %"class.std::basic_string"* @_ZNSs6assignEPKcm(%"class.std::basic_string"* nonnull align 8 dereferenceable(8) %89, i8* getelementptr inbounds ([88 x i8], [88 x i8]* @.str.27, i64 0, i64 0), i64 87)
  %91 = getelementptr inbounds %"struct.appsdk::Option", %"struct.appsdk::Option"* %80, i64 0, i32 4
  store i32 4, i32* %91, align 8, !tbaa !61
  %92 = getelementptr inbounds %class.Histogram, %class.Histogram* %0, i64 0, i32 17
  %93 = getelementptr inbounds %"struct.appsdk::Option", %"struct.appsdk::Option"* %80, i64 0, i32 5
  store i8* %92, i8** %93, align 8, !tbaa !64
  %94 = load %"class.appsdk::SDKCmdArgsParser"*, %"class.appsdk::SDKCmdArgsParser"** %23, align 8, !tbaa !40
  %95 = tail call i32 @_ZN6appsdk16SDKCmdArgsParser9AddOptionEPNS_6OptionE(%"class.appsdk::SDKCmdArgsParser"* nonnull align 8 dereferenceable(88) %94, %"struct.appsdk::Option"* nonnull %80)
  tail call void @_ZN6appsdk6OptionD2Ev(%"struct.appsdk::Option"* nonnull align 8 dereferenceable(48) %80) #24
  tail call void @_ZdlPv(i8* nonnull %79) #27
  br label %96

96:                                               ; preds = %1, %6
  %97 = phi i32 [ 0, %6 ], [ 1, %1 ]
  ret i32 %97
}

; Function Attrs: uwtable
define linkonce_odr dso_local i32 @_ZN6appsdk14HIPCommandArgs10initializeEv(%"class.appsdk::HIPCommandArgs"* nonnull align 8 dereferenceable(93) %0) local_unnamed_addr #7 comdat align 2 personality i8* bitcast (i32 (...)* @__gxx_personality_v0 to i8*) {
  %2 = tail call noalias nonnull dereferenceable(248) i8* @_Znam(i64 248) #26
  %3 = bitcast i8* %2 to i64*
  store i64 5, i64* %3, align 16
  %4 = getelementptr inbounds i8, i8* %2, i64 8
  %5 = bitcast i8* %4 to i8**
  store i8* bitcast (i64* getelementptr inbounds ([0 x i64], [0 x i64]* @_ZNSs4_Rep20_S_empty_rep_storageE, i64 0, i64 3) to i8*), i8** %5, align 8, !tbaa !60
  %6 = getelementptr inbounds i8, i8* %2, i64 16
  %7 = bitcast i8* %6 to i8**
  store i8* bitcast (i64* getelementptr inbounds ([0 x i64], [0 x i64]* @_ZNSs4_Rep20_S_empty_rep_storageE, i64 0, i64 3) to i8*), i8** %7, align 8, !tbaa !60
  %8 = getelementptr inbounds i8, i8* %2, i64 24
  %9 = bitcast i8* %8 to i8**
  store i8* bitcast (i64* getelementptr inbounds ([0 x i64], [0 x i64]* @_ZNSs4_Rep20_S_empty_rep_storageE, i64 0, i64 3) to i8*), i8** %9, align 8, !tbaa !60
  %10 = getelementptr inbounds i8, i8* %2, i64 32
  %11 = bitcast i8* %10 to i8**
  store i8* bitcast (i64* getelementptr inbounds ([0 x i64], [0 x i64]* @_ZNSs4_Rep20_S_empty_rep_storageE, i64 0, i64 3) to i8*), i8** %11, align 8, !tbaa !60
  %12 = getelementptr inbounds i8, i8* %2, i64 56
  %13 = bitcast i8* %12 to i8**
  store i8* bitcast (i64* getelementptr inbounds ([0 x i64], [0 x i64]* @_ZNSs4_Rep20_S_empty_rep_storageE, i64 0, i64 3) to i8*), i8** %13, align 8, !tbaa !60
  %14 = getelementptr inbounds i8, i8* %2, i64 64
  %15 = bitcast i8* %14 to i8**
  store i8* bitcast (i64* getelementptr inbounds ([0 x i64], [0 x i64]* @_ZNSs4_Rep20_S_empty_rep_storageE, i64 0, i64 3) to i8*), i8** %15, align 8, !tbaa !60
  %16 = getelementptr inbounds i8, i8* %2, i64 72
  %17 = bitcast i8* %16 to i8**
  store i8* bitcast (i64* getelementptr inbounds ([0 x i64], [0 x i64]* @_ZNSs4_Rep20_S_empty_rep_storageE, i64 0, i64 3) to i8*), i8** %17, align 8, !tbaa !60
  %18 = getelementptr inbounds i8, i8* %2, i64 80
  %19 = bitcast i8* %18 to i8**
  store i8* bitcast (i64* getelementptr inbounds ([0 x i64], [0 x i64]* @_ZNSs4_Rep20_S_empty_rep_storageE, i64 0, i64 3) to i8*), i8** %19, align 8, !tbaa !60
  %20 = getelementptr inbounds i8, i8* %2, i64 104
  %21 = bitcast i8* %20 to i8**
  store i8* bitcast (i64* getelementptr inbounds ([0 x i64], [0 x i64]* @_ZNSs4_Rep20_S_empty_rep_storageE, i64 0, i64 3) to i8*), i8** %21, align 8, !tbaa !60
  %22 = getelementptr inbounds i8, i8* %2, i64 112
  %23 = bitcast i8* %22 to i8**
  store i8* bitcast (i64* getelementptr inbounds ([0 x i64], [0 x i64]* @_ZNSs4_Rep20_S_empty_rep_storageE, i64 0, i64 3) to i8*), i8** %23, align 8, !tbaa !60
  %24 = getelementptr inbounds i8, i8* %2, i64 120
  %25 = bitcast i8* %24 to i8**
  store i8* bitcast (i64* getelementptr inbounds ([0 x i64], [0 x i64]* @_ZNSs4_Rep20_S_empty_rep_storageE, i64 0, i64 3) to i8*), i8** %25, align 8, !tbaa !60
  %26 = getelementptr inbounds i8, i8* %2, i64 128
  %27 = bitcast i8* %26 to i8**
  store i8* bitcast (i64* getelementptr inbounds ([0 x i64], [0 x i64]* @_ZNSs4_Rep20_S_empty_rep_storageE, i64 0, i64 3) to i8*), i8** %27, align 8, !tbaa !60
  %28 = getelementptr inbounds i8, i8* %2, i64 152
  %29 = bitcast i8* %28 to i8**
  store i8* bitcast (i64* getelementptr inbounds ([0 x i64], [0 x i64]* @_ZNSs4_Rep20_S_empty_rep_storageE, i64 0, i64 3) to i8*), i8** %29, align 8, !tbaa !60
  %30 = getelementptr inbounds i8, i8* %2, i64 160
  %31 = bitcast i8* %30 to i8**
  store i8* bitcast (i64* getelementptr inbounds ([0 x i64], [0 x i64]* @_ZNSs4_Rep20_S_empty_rep_storageE, i64 0, i64 3) to i8*), i8** %31, align 8, !tbaa !60
  %32 = getelementptr inbounds i8, i8* %2, i64 168
  %33 = bitcast i8* %32 to i8**
  store i8* bitcast (i64* getelementptr inbounds ([0 x i64], [0 x i64]* @_ZNSs4_Rep20_S_empty_rep_storageE, i64 0, i64 3) to i8*), i8** %33, align 8, !tbaa !60
  %34 = getelementptr inbounds i8, i8* %2, i64 176
  %35 = bitcast i8* %34 to i8**
  store i8* bitcast (i64* getelementptr inbounds ([0 x i64], [0 x i64]* @_ZNSs4_Rep20_S_empty_rep_storageE, i64 0, i64 3) to i8*), i8** %35, align 8, !tbaa !60
  %36 = getelementptr inbounds i8, i8* %2, i64 200
  %37 = bitcast i8* %36 to i8**
  store i8* bitcast (i64* getelementptr inbounds ([0 x i64], [0 x i64]* @_ZNSs4_Rep20_S_empty_rep_storageE, i64 0, i64 3) to i8*), i8** %37, align 8, !tbaa !60
  %38 = getelementptr inbounds i8, i8* %2, i64 208
  %39 = bitcast i8* %38 to i8**
  store i8* bitcast (i64* getelementptr inbounds ([0 x i64], [0 x i64]* @_ZNSs4_Rep20_S_empty_rep_storageE, i64 0, i64 3) to i8*), i8** %39, align 8, !tbaa !60
  %40 = getelementptr inbounds i8, i8* %2, i64 216
  %41 = bitcast i8* %40 to i8**
  store i8* bitcast (i64* getelementptr inbounds ([0 x i64], [0 x i64]* @_ZNSs4_Rep20_S_empty_rep_storageE, i64 0, i64 3) to i8*), i8** %41, align 8, !tbaa !60
  %42 = getelementptr inbounds i8, i8* %2, i64 224
  %43 = bitcast i8* %42 to i8**
  store i8* bitcast (i64* getelementptr inbounds ([0 x i64], [0 x i64]* @_ZNSs4_Rep20_S_empty_rep_storageE, i64 0, i64 3) to i8*), i8** %43, align 8, !tbaa !60
  %44 = bitcast i8* %4 to %"class.std::basic_string"*
  %45 = tail call nonnull align 8 dereferenceable(8) %"class.std::basic_string"* @_ZNSs6assignEPKcm(%"class.std::basic_string"* nonnull align 8 dereferenceable(8) %44, i8* getelementptr inbounds ([2 x i8], [2 x i8]* @.str.45, i64 0, i64 0), i64 1)
  %46 = getelementptr inbounds i8, i8* %2, i64 16
  %47 = bitcast i8* %46 to %"class.std::basic_string"*
  %48 = tail call nonnull align 8 dereferenceable(8) %"class.std::basic_string"* @_ZNSs6assignEPKcm(%"class.std::basic_string"* nonnull align 8 dereferenceable(8) %47, i8* getelementptr inbounds ([6 x i8], [6 x i8]* @.str.46, i64 0, i64 0), i64 5)
  %49 = getelementptr inbounds i8, i8* %2, i64 24
  %50 = bitcast i8* %49 to %"class.std::basic_string"*
  %51 = tail call nonnull align 8 dereferenceable(8) %"class.std::basic_string"* @_ZNSs6assignEPKcm(%"class.std::basic_string"* nonnull align 8 dereferenceable(8) %50, i8* getelementptr inbounds ([38 x i8], [38 x i8]* @.str.47, i64 0, i64 0), i64 37)
  %52 = getelementptr inbounds i8, i8* %2, i64 40
  %53 = bitcast i8* %52 to i32*
  store i32 4, i32* %53, align 8, !tbaa !61
  %54 = getelementptr inbounds %"class.appsdk::HIPCommandArgs", %"class.appsdk::HIPCommandArgs"* %0, i64 0, i32 0, i32 9
  %55 = getelementptr inbounds i8, i8* %2, i64 48
  %56 = bitcast i8* %55 to i8**
  store i8* %54, i8** %56, align 8, !tbaa !64
  %57 = getelementptr inbounds i8, i8* %2, i64 56
  %58 = bitcast i8* %57 to %"class.std::basic_string"*
  %59 = tail call nonnull align 8 dereferenceable(8) %"class.std::basic_string"* @_ZNSs6assignEPKcm(%"class.std::basic_string"* nonnull align 8 dereferenceable(8) %58, i8* getelementptr inbounds ([2 x i8], [2 x i8]* @.str.48, i64 0, i64 0), i64 1)
  %60 = getelementptr inbounds i8, i8* %2, i64 64
  %61 = bitcast i8* %60 to %"class.std::basic_string"*
  %62 = tail call nonnull align 8 dereferenceable(8) %"class.std::basic_string"* @_ZNSs6assignEPKcm(%"class.std::basic_string"* nonnull align 8 dereferenceable(8) %61, i8* getelementptr inbounds ([7 x i8], [7 x i8]* @.str.49, i64 0, i64 0), i64 6)
  %63 = getelementptr inbounds i8, i8* %2, i64 72
  %64 = bitcast i8* %63 to %"class.std::basic_string"*
  %65 = tail call nonnull align 8 dereferenceable(8) %"class.std::basic_string"* @_ZNSs6assignEPKcm(%"class.std::basic_string"* nonnull align 8 dereferenceable(8) %64, i8* getelementptr inbounds ([49 x i8], [49 x i8]* @.str.50, i64 0, i64 0), i64 48)
  %66 = getelementptr inbounds i8, i8* %2, i64 88
  %67 = bitcast i8* %66 to i32*
  store i32 4, i32* %67, align 8, !tbaa !61
  %68 = getelementptr inbounds %"class.appsdk::HIPCommandArgs", %"class.appsdk::HIPCommandArgs"* %0, i64 0, i32 0, i32 10
  %69 = getelementptr inbounds i8, i8* %2, i64 96
  %70 = bitcast i8* %69 to i8**
  store i8* %68, i8** %70, align 8, !tbaa !64
  %71 = getelementptr inbounds i8, i8* %2, i64 104
  %72 = bitcast i8* %71 to %"class.std::basic_string"*
  %73 = tail call nonnull align 8 dereferenceable(8) %"class.std::basic_string"* @_ZNSs6assignEPKcm(%"class.std::basic_string"* nonnull align 8 dereferenceable(8) %72, i8* getelementptr inbounds ([2 x i8], [2 x i8]* @.str.51, i64 0, i64 0), i64 1)
  %74 = getelementptr inbounds i8, i8* %2, i64 112
  %75 = bitcast i8* %74 to %"class.std::basic_string"*
  %76 = tail call nonnull align 8 dereferenceable(8) %"class.std::basic_string"* @_ZNSs6assignEPKcm(%"class.std::basic_string"* nonnull align 8 dereferenceable(8) %75, i8* getelementptr inbounds ([7 x i8], [7 x i8]* @.str.52, i64 0, i64 0), i64 6)
  %77 = getelementptr inbounds i8, i8* %2, i64 120
  %78 = bitcast i8* %77 to %"class.std::basic_string"*
  %79 = tail call nonnull align 8 dereferenceable(8) %"class.std::basic_string"* @_ZNSs6assignEPKcm(%"class.std::basic_string"* nonnull align 8 dereferenceable(8) %78, i8* getelementptr inbounds ([14 x i8], [14 x i8]* @.str.53, i64 0, i64 0), i64 13)
  %80 = getelementptr inbounds i8, i8* %2, i64 136
  %81 = bitcast i8* %80 to i32*
  store i32 4, i32* %81, align 8, !tbaa !61
  %82 = getelementptr inbounds %"class.appsdk::HIPCommandArgs", %"class.appsdk::HIPCommandArgs"* %0, i64 0, i32 0, i32 11
  %83 = getelementptr inbounds i8, i8* %2, i64 144
  %84 = bitcast i8* %83 to i8**
  store i8* %82, i8** %84, align 8, !tbaa !64
  %85 = getelementptr inbounds i8, i8* %2, i64 152
  %86 = bitcast i8* %85 to %"class.std::basic_string"*
  %87 = tail call nonnull align 8 dereferenceable(8) %"class.std::basic_string"* @_ZNSs6assignEPKcm(%"class.std::basic_string"* nonnull align 8 dereferenceable(8) %86, i8* getelementptr inbounds ([2 x i8], [2 x i8]* @.str.54, i64 0, i64 0), i64 1)
  %88 = getelementptr inbounds i8, i8* %2, i64 160
  %89 = bitcast i8* %88 to %"class.std::basic_string"*
  %90 = tail call nonnull align 8 dereferenceable(8) %"class.std::basic_string"* @_ZNSs6assignEPKcm(%"class.std::basic_string"* nonnull align 8 dereferenceable(8) %89, i8* getelementptr inbounds ([8 x i8], [8 x i8]* @.str.55, i64 0, i64 0), i64 7)
  %91 = getelementptr inbounds i8, i8* %2, i64 168
  %92 = bitcast i8* %91 to %"class.std::basic_string"*
  %93 = tail call nonnull align 8 dereferenceable(8) %"class.std::basic_string"* @_ZNSs6assignEPKcm(%"class.std::basic_string"* nonnull align 8 dereferenceable(8) %92, i8* getelementptr inbounds ([28 x i8], [28 x i8]* @.str.56, i64 0, i64 0), i64 27)
  %94 = getelementptr inbounds i8, i8* %2, i64 184
  %95 = bitcast i8* %94 to i32*
  store i32 4, i32* %95, align 8, !tbaa !61
  %96 = getelementptr inbounds %"class.appsdk::HIPCommandArgs", %"class.appsdk::HIPCommandArgs"* %0, i64 0, i32 0, i32 6
  %97 = getelementptr inbounds i8, i8* %2, i64 192
  %98 = bitcast i8* %97 to i8**
  store i8* %96, i8** %98, align 8, !tbaa !64
  %99 = getelementptr inbounds i8, i8* %2, i64 200
  %100 = bitcast i8* %99 to %"class.std::basic_string"*
  %101 = tail call nonnull align 8 dereferenceable(8) %"class.std::basic_string"* @_ZNSs6assignEPKcm(%"class.std::basic_string"* nonnull align 8 dereferenceable(8) %100, i8* getelementptr inbounds ([2 x i8], [2 x i8]* @.str.57, i64 0, i64 0), i64 1)
  %102 = getelementptr inbounds i8, i8* %2, i64 208
  %103 = bitcast i8* %102 to %"class.std::basic_string"*
  %104 = tail call nonnull align 8 dereferenceable(8) %"class.std::basic_string"* @_ZNSs6assignEPKcm(%"class.std::basic_string"* nonnull align 8 dereferenceable(8) %103, i8* getelementptr inbounds ([9 x i8], [9 x i8]* @.str.58, i64 0, i64 0), i64 8)
  %105 = getelementptr inbounds i8, i8* %2, i64 216
  %106 = bitcast i8* %105 to %"class.std::basic_string"*
  %107 = tail call nonnull align 8 dereferenceable(8) %"class.std::basic_string"* @_ZNSs6assignEPKcm(%"class.std::basic_string"* nonnull align 8 dereferenceable(8) %106, i8* getelementptr inbounds ([74 x i8], [74 x i8]* @.str.59, i64 0, i64 0), i64 73)
  %108 = getelementptr inbounds i8, i8* %2, i64 232
  %109 = bitcast i8* %108 to i32*
  store i32 0, i32* %109, align 8, !tbaa !61
  %110 = getelementptr inbounds %"class.appsdk::HIPCommandArgs", %"class.appsdk::HIPCommandArgs"* %0, i64 0, i32 1
  %111 = getelementptr inbounds i8, i8* %2, i64 240
  %112 = bitcast i8* %111 to i32**
  store i32* %110, i32** %112, align 8, !tbaa !64
  %113 = getelementptr inbounds %"class.appsdk::HIPCommandArgs", %"class.appsdk::HIPCommandArgs"* %0, i64 0, i32 0, i32 1
  store i32 5, i32* %113, align 8, !tbaa !65
  %114 = getelementptr inbounds %"class.appsdk::HIPCommandArgs", %"class.appsdk::HIPCommandArgs"* %0, i64 0, i32 0, i32 5
  %115 = bitcast %"struct.appsdk::Option"** %114 to i8**
  store i8* %4, i8** %115, align 8, !tbaa !66
  ret i32 0
}

; Function Attrs: nobuiltin allocsize(0)
declare dso_local nonnull i8* @_Znwm(i64) local_unnamed_addr #14

; Function Attrs: nobuiltin nounwind
declare dso_local void @_ZdlPv(i8*) local_unnamed_addr #15

; Function Attrs: uwtable
define linkonce_odr dso_local i32 @_ZN6appsdk16SDKCmdArgsParser9AddOptionEPNS_6OptionE(%"class.appsdk::SDKCmdArgsParser"* nonnull align 8 dereferenceable(88) %0, %"struct.appsdk::Option"* %1) local_unnamed_addr #7 comdat align 2 personality i8* bitcast (i32 (...)* @__gxx_personality_v0 to i8*) {
  %3 = icmp eq %"struct.appsdk::Option"* %1, null
  br i1 %3, label %4, label %6

4:                                                ; preds = %2
  %5 = tail call nonnull align 8 dereferenceable(8) %"class.std::basic_ostream"* @_ZSt16__ostream_insertIcSt11char_traitsIcEERSt13basic_ostreamIT_T0_ES6_PKS3_l(%"class.std::basic_ostream"* nonnull align 8 dereferenceable(8) @_ZSt4cout, i8* nonnull getelementptr inbounds ([37 x i8], [37 x i8]* @.str.60, i64 0, i64 0), i64 36)
  br label %98

6:                                                ; preds = %2
  %7 = getelementptr inbounds %"class.appsdk::SDKCmdArgsParser", %"class.appsdk::SDKCmdArgsParser"* %0, i64 0, i32 5
  %8 = load %"struct.appsdk::Option"*, %"struct.appsdk::Option"** %7, align 8, !tbaa !66
  %9 = icmp eq %"struct.appsdk::Option"* %8, null
  %10 = getelementptr inbounds %"class.appsdk::SDKCmdArgsParser", %"class.appsdk::SDKCmdArgsParser"* %0, i64 0, i32 1
  %11 = load i32, i32* %10, align 8, !tbaa !65
  %12 = add nsw i32 %11, 1
  %13 = sext i32 %12 to i64
  %14 = tail call { i64, i1 } @llvm.umul.with.overflow.i64(i64 %13, i64 48)
  %15 = extractvalue { i64, i1 } %14, 1
  %16 = extractvalue { i64, i1 } %14, 0
  %17 = or i64 %16, 8
  %18 = select i1 %15, i64 -1, i64 %17
  %19 = tail call noalias nonnull i8* @_Znam(i64 %18) #26
  %20 = bitcast i8* %19 to i64*
  store i64 %13, i64* %20, align 16
  %21 = getelementptr inbounds i8, i8* %19, i64 8
  %22 = bitcast i8* %21 to %"struct.appsdk::Option"*
  %23 = icmp eq i32 %12, 0
  br i1 %23, label %24, label %26

24:                                               ; preds = %6
  %25 = bitcast %"struct.appsdk::Option"** %7 to i8**
  store i8* %21, i8** %25, align 8, !tbaa !66
  br label %63

26:                                               ; preds = %6
  %27 = getelementptr inbounds %"struct.appsdk::Option", %"struct.appsdk::Option"* %22, i64 %13
  br label %28

28:                                               ; preds = %26, %28
  %29 = phi %"struct.appsdk::Option"* [ %22, %26 ], [ %34, %28 ]
  %30 = getelementptr inbounds %"struct.appsdk::Option", %"struct.appsdk::Option"* %29, i64 0, i32 0, i32 0, i32 0
  store i8* bitcast (i64* getelementptr inbounds ([0 x i64], [0 x i64]* @_ZNSs4_Rep20_S_empty_rep_storageE, i64 0, i64 3) to i8*), i8** %30, align 8, !tbaa !60
  %31 = getelementptr inbounds %"struct.appsdk::Option", %"struct.appsdk::Option"* %29, i64 0, i32 1, i32 0, i32 0
  store i8* bitcast (i64* getelementptr inbounds ([0 x i64], [0 x i64]* @_ZNSs4_Rep20_S_empty_rep_storageE, i64 0, i64 3) to i8*), i8** %31, align 8, !tbaa !60
  %32 = getelementptr inbounds %"struct.appsdk::Option", %"struct.appsdk::Option"* %29, i64 0, i32 2, i32 0, i32 0
  store i8* bitcast (i64* getelementptr inbounds ([0 x i64], [0 x i64]* @_ZNSs4_Rep20_S_empty_rep_storageE, i64 0, i64 3) to i8*), i8** %32, align 8, !tbaa !60
  %33 = getelementptr inbounds %"struct.appsdk::Option", %"struct.appsdk::Option"* %29, i64 0, i32 3, i32 0, i32 0
  store i8* bitcast (i64* getelementptr inbounds ([0 x i64], [0 x i64]* @_ZNSs4_Rep20_S_empty_rep_storageE, i64 0, i64 3) to i8*), i8** %33, align 8, !tbaa !60
  %34 = getelementptr inbounds %"struct.appsdk::Option", %"struct.appsdk::Option"* %29, i64 1
  %35 = icmp eq %"struct.appsdk::Option"* %34, %27
  br i1 %35, label %36, label %28

36:                                               ; preds = %28
  %37 = bitcast %"struct.appsdk::Option"** %7 to i8**
  store i8* %21, i8** %37, align 8, !tbaa !66
  %38 = icmp sgt i32 %11, 0
  br i1 %38, label %39, label %63

39:                                               ; preds = %36, %39
  %40 = phi %"struct.appsdk::Option"* [ %62, %39 ], [ %22, %36 ]
  %41 = phi i64 [ %58, %39 ], [ 0, %36 ]
  %42 = getelementptr inbounds %"struct.appsdk::Option", %"struct.appsdk::Option"* %40, i64 %41, i32 0
  %43 = getelementptr inbounds %"struct.appsdk::Option", %"struct.appsdk::Option"* %8, i64 %41, i32 0
  %44 = tail call nonnull align 8 dereferenceable(8) %"class.std::basic_string"* @_ZNSs6assignERKSs(%"class.std::basic_string"* nonnull align 8 dereferenceable(8) %42, %"class.std::basic_string"* nonnull align 8 dereferenceable(8) %43)
  %45 = getelementptr inbounds %"struct.appsdk::Option", %"struct.appsdk::Option"* %40, i64 %41, i32 1
  %46 = getelementptr inbounds %"struct.appsdk::Option", %"struct.appsdk::Option"* %8, i64 %41, i32 1
  %47 = tail call nonnull align 8 dereferenceable(8) %"class.std::basic_string"* @_ZNSs6assignERKSs(%"class.std::basic_string"* nonnull align 8 dereferenceable(8) %45, %"class.std::basic_string"* nonnull align 8 dereferenceable(8) %46)
  %48 = getelementptr inbounds %"struct.appsdk::Option", %"struct.appsdk::Option"* %40, i64 %41, i32 2
  %49 = getelementptr inbounds %"struct.appsdk::Option", %"struct.appsdk::Option"* %8, i64 %41, i32 2
  %50 = tail call nonnull align 8 dereferenceable(8) %"class.std::basic_string"* @_ZNSs6assignERKSs(%"class.std::basic_string"* nonnull align 8 dereferenceable(8) %48, %"class.std::basic_string"* nonnull align 8 dereferenceable(8) %49)
  %51 = getelementptr inbounds %"struct.appsdk::Option", %"struct.appsdk::Option"* %40, i64 %41, i32 3
  %52 = getelementptr inbounds %"struct.appsdk::Option", %"struct.appsdk::Option"* %8, i64 %41, i32 3
  %53 = tail call nonnull align 8 dereferenceable(8) %"class.std::basic_string"* @_ZNSs6assignERKSs(%"class.std::basic_string"* nonnull align 8 dereferenceable(8) %51, %"class.std::basic_string"* nonnull align 8 dereferenceable(8) %52)
  %54 = getelementptr inbounds %"struct.appsdk::Option", %"struct.appsdk::Option"* %40, i64 %41, i32 4
  %55 = getelementptr inbounds %"struct.appsdk::Option", %"struct.appsdk::Option"* %8, i64 %41, i32 4
  %56 = bitcast i32* %54 to i8*
  %57 = bitcast i32* %55 to i8*
  tail call void @llvm.memcpy.p0i8.p0i8.i64(i8* noundef nonnull align 8 dereferenceable(16) %56, i8* noundef nonnull align 8 dereferenceable(16) %57, i64 16, i1 false)
  %58 = add nuw nsw i64 %41, 1
  %59 = load i32, i32* %10, align 8, !tbaa !65
  %60 = sext i32 %59 to i64
  %61 = icmp slt i64 %58, %60
  %62 = load %"struct.appsdk::Option"*, %"struct.appsdk::Option"** %7, align 8, !tbaa !66
  br i1 %61, label %39, label %63, !llvm.loop !67

63:                                               ; preds = %39, %36, %24
  %64 = phi i32 [ %11, %24 ], [ %11, %36 ], [ %59, %39 ]
  %65 = phi %"struct.appsdk::Option"* [ %22, %24 ], [ %22, %36 ], [ %62, %39 ]
  %66 = sext i32 %64 to i64
  %67 = getelementptr inbounds %"struct.appsdk::Option", %"struct.appsdk::Option"* %65, i64 %66, i32 0
  %68 = getelementptr inbounds %"struct.appsdk::Option", %"struct.appsdk::Option"* %1, i64 0, i32 0
  %69 = tail call nonnull align 8 dereferenceable(8) %"class.std::basic_string"* @_ZNSs6assignERKSs(%"class.std::basic_string"* nonnull align 8 dereferenceable(8) %67, %"class.std::basic_string"* nonnull align 8 dereferenceable(8) %68)
  %70 = getelementptr inbounds %"struct.appsdk::Option", %"struct.appsdk::Option"* %65, i64 %66, i32 1
  %71 = getelementptr inbounds %"struct.appsdk::Option", %"struct.appsdk::Option"* %1, i64 0, i32 1
  %72 = tail call nonnull align 8 dereferenceable(8) %"class.std::basic_string"* @_ZNSs6assignERKSs(%"class.std::basic_string"* nonnull align 8 dereferenceable(8) %70, %"class.std::basic_string"* nonnull align 8 dereferenceable(8) %71)
  %73 = getelementptr inbounds %"struct.appsdk::Option", %"struct.appsdk::Option"* %65, i64 %66, i32 2
  %74 = getelementptr inbounds %"struct.appsdk::Option", %"struct.appsdk::Option"* %1, i64 0, i32 2
  %75 = tail call nonnull align 8 dereferenceable(8) %"class.std::basic_string"* @_ZNSs6assignERKSs(%"class.std::basic_string"* nonnull align 8 dereferenceable(8) %73, %"class.std::basic_string"* nonnull align 8 dereferenceable(8) %74)
  %76 = getelementptr inbounds %"struct.appsdk::Option", %"struct.appsdk::Option"* %65, i64 %66, i32 3
  %77 = getelementptr inbounds %"struct.appsdk::Option", %"struct.appsdk::Option"* %1, i64 0, i32 3
  %78 = tail call nonnull align 8 dereferenceable(8) %"class.std::basic_string"* @_ZNSs6assignERKSs(%"class.std::basic_string"* nonnull align 8 dereferenceable(8) %76, %"class.std::basic_string"* nonnull align 8 dereferenceable(8) %77)
  %79 = getelementptr inbounds %"struct.appsdk::Option", %"struct.appsdk::Option"* %65, i64 %66, i32 4
  %80 = getelementptr inbounds %"struct.appsdk::Option", %"struct.appsdk::Option"* %1, i64 0, i32 4
  %81 = bitcast i32* %79 to i8*
  %82 = bitcast i32* %80 to i8*
  tail call void @llvm.memcpy.p0i8.p0i8.i64(i8* noundef nonnull align 8 dereferenceable(16) %81, i8* noundef nonnull align 8 dereferenceable(16) %82, i64 16, i1 false)
  %83 = load i32, i32* %10, align 8, !tbaa !65
  %84 = add nsw i32 %83, 1
  store i32 %84, i32* %10, align 8, !tbaa !65
  br i1 %9, label %98, label %85

85:                                               ; preds = %63
  %86 = getelementptr inbounds %"struct.appsdk::Option", %"struct.appsdk::Option"* %8, i64 -1, i32 5
  %87 = bitcast i8** %86 to i8*
  %88 = bitcast i8** %86 to i64*
  %89 = load i64, i64* %88, align 8
  %90 = icmp eq i64 %89, 0
  br i1 %90, label %97, label %91

91:                                               ; preds = %85
  %92 = getelementptr inbounds %"struct.appsdk::Option", %"struct.appsdk::Option"* %8, i64 %89
  br label %93

93:                                               ; preds = %91, %93
  %94 = phi %"struct.appsdk::Option"* [ %95, %93 ], [ %92, %91 ]
  %95 = getelementptr inbounds %"struct.appsdk::Option", %"struct.appsdk::Option"* %94, i64 -1
  tail call void @_ZN6appsdk6OptionD2Ev(%"struct.appsdk::Option"* nonnull align 8 dereferenceable(48) %95) #24
  %96 = icmp eq %"struct.appsdk::Option"* %95, %8
  br i1 %96, label %97, label %93

97:                                               ; preds = %93, %85
  tail call void @_ZdaPv(i8* nonnull %87) #27
  br label %98

98:                                               ; preds = %63, %97, %4
  %99 = phi i32 [ -1, %4 ], [ 0, %97 ], [ 0, %63 ]
  ret i32 %99
}

; Function Attrs: inlinehint nounwind uwtable
define linkonce_odr dso_local void @_ZN6appsdk6OptionD2Ev(%"struct.appsdk::Option"* nonnull align 8 dereferenceable(48) %0) unnamed_addr #16 comdat align 2 personality i32 (...)* @__gxx_personality_v0 {
  %2 = alloca %"class.std::allocator.0", align 1
  %3 = alloca %"class.std::allocator.0", align 1
  %4 = alloca %"class.std::allocator.0", align 1
  %5 = alloca %"class.std::allocator.0", align 1
  %6 = getelementptr inbounds %"struct.appsdk::Option", %"struct.appsdk::Option"* %0, i64 0, i32 3, i32 0, i32 0
  %7 = load i8*, i8** %6, align 8, !tbaa !23
  %8 = getelementptr inbounds i8, i8* %7, i64 -24
  %9 = bitcast i8* %8 to %"struct.std::basic_string<char>::_Rep"*
  %10 = getelementptr inbounds %"class.std::allocator.0", %"class.std::allocator.0"* %5, i64 0, i32 0
  call void @llvm.lifetime.start.p0i8(i64 1, i8* nonnull %10) #24
  %11 = icmp eq i8* %8, bitcast ([0 x i64]* @_ZNSs4_Rep20_S_empty_rep_storageE to i8*)
  br i1 %11, label %24, label %12, !prof !26

12:                                               ; preds = %1
  %13 = getelementptr inbounds i8, i8* %7, i64 -8
  %14 = bitcast i8* %13 to i32*
  br i1 icmp ne (i8* bitcast (i32 (i32*, void (i8*)*)* @__pthread_key_create to i8*), i8* null), label %15, label %17

15:                                               ; preds = %12
  %16 = atomicrmw volatile add i32* %14, i32 -1 acq_rel, align 4
  br label %20

17:                                               ; preds = %12
  %18 = load i32, i32* %14, align 8, !tbaa !16
  %19 = add nsw i32 %18, -1
  store i32 %19, i32* %14, align 8, !tbaa !16
  br label %20

20:                                               ; preds = %17, %15
  %21 = phi i32 [ %16, %15 ], [ %18, %17 ]
  %22 = icmp slt i32 %21, 1
  br i1 %22, label %23, label %24

23:                                               ; preds = %20
  call void @_ZNSs4_Rep10_M_destroyERKSaIcE(%"struct.std::basic_string<char>::_Rep"* nonnull align 8 dereferenceable(24) %9, %"class.std::allocator.0"* nonnull align 1 dereferenceable(1) %5) #24
  br label %24

24:                                               ; preds = %1, %20, %23
  call void @llvm.lifetime.end.p0i8(i64 1, i8* nonnull %10) #24
  %25 = getelementptr inbounds %"struct.appsdk::Option", %"struct.appsdk::Option"* %0, i64 0, i32 2, i32 0, i32 0
  %26 = load i8*, i8** %25, align 8, !tbaa !23
  %27 = getelementptr inbounds i8, i8* %26, i64 -24
  %28 = bitcast i8* %27 to %"struct.std::basic_string<char>::_Rep"*
  %29 = getelementptr inbounds %"class.std::allocator.0", %"class.std::allocator.0"* %4, i64 0, i32 0
  call void @llvm.lifetime.start.p0i8(i64 1, i8* nonnull %29) #24
  %30 = icmp eq i8* %27, bitcast ([0 x i64]* @_ZNSs4_Rep20_S_empty_rep_storageE to i8*)
  br i1 %30, label %43, label %31, !prof !26

31:                                               ; preds = %24
  %32 = getelementptr inbounds i8, i8* %26, i64 -8
  %33 = bitcast i8* %32 to i32*
  br i1 icmp ne (i8* bitcast (i32 (i32*, void (i8*)*)* @__pthread_key_create to i8*), i8* null), label %34, label %36

34:                                               ; preds = %31
  %35 = atomicrmw volatile add i32* %33, i32 -1 acq_rel, align 4
  br label %39

36:                                               ; preds = %31
  %37 = load i32, i32* %33, align 8, !tbaa !16
  %38 = add nsw i32 %37, -1
  store i32 %38, i32* %33, align 8, !tbaa !16
  br label %39

39:                                               ; preds = %36, %34
  %40 = phi i32 [ %35, %34 ], [ %37, %36 ]
  %41 = icmp slt i32 %40, 1
  br i1 %41, label %42, label %43

42:                                               ; preds = %39
  call void @_ZNSs4_Rep10_M_destroyERKSaIcE(%"struct.std::basic_string<char>::_Rep"* nonnull align 8 dereferenceable(24) %28, %"class.std::allocator.0"* nonnull align 1 dereferenceable(1) %4) #24
  br label %43

43:                                               ; preds = %24, %39, %42
  call void @llvm.lifetime.end.p0i8(i64 1, i8* nonnull %29) #24
  %44 = getelementptr inbounds %"struct.appsdk::Option", %"struct.appsdk::Option"* %0, i64 0, i32 1, i32 0, i32 0
  %45 = load i8*, i8** %44, align 8, !tbaa !23
  %46 = getelementptr inbounds i8, i8* %45, i64 -24
  %47 = bitcast i8* %46 to %"struct.std::basic_string<char>::_Rep"*
  %48 = getelementptr inbounds %"class.std::allocator.0", %"class.std::allocator.0"* %3, i64 0, i32 0
  call void @llvm.lifetime.start.p0i8(i64 1, i8* nonnull %48) #24
  %49 = icmp eq i8* %46, bitcast ([0 x i64]* @_ZNSs4_Rep20_S_empty_rep_storageE to i8*)
  br i1 %49, label %62, label %50, !prof !26

50:                                               ; preds = %43
  %51 = getelementptr inbounds i8, i8* %45, i64 -8
  %52 = bitcast i8* %51 to i32*
  br i1 icmp ne (i8* bitcast (i32 (i32*, void (i8*)*)* @__pthread_key_create to i8*), i8* null), label %53, label %55

53:                                               ; preds = %50
  %54 = atomicrmw volatile add i32* %52, i32 -1 acq_rel, align 4
  br label %58

55:                                               ; preds = %50
  %56 = load i32, i32* %52, align 8, !tbaa !16
  %57 = add nsw i32 %56, -1
  store i32 %57, i32* %52, align 8, !tbaa !16
  br label %58

58:                                               ; preds = %55, %53
  %59 = phi i32 [ %54, %53 ], [ %56, %55 ]
  %60 = icmp slt i32 %59, 1
  br i1 %60, label %61, label %62

61:                                               ; preds = %58
  call void @_ZNSs4_Rep10_M_destroyERKSaIcE(%"struct.std::basic_string<char>::_Rep"* nonnull align 8 dereferenceable(24) %47, %"class.std::allocator.0"* nonnull align 1 dereferenceable(1) %3) #24
  br label %62

62:                                               ; preds = %43, %58, %61
  call void @llvm.lifetime.end.p0i8(i64 1, i8* nonnull %48) #24
  %63 = getelementptr inbounds %"struct.appsdk::Option", %"struct.appsdk::Option"* %0, i64 0, i32 0, i32 0, i32 0
  %64 = load i8*, i8** %63, align 8, !tbaa !23
  %65 = getelementptr inbounds i8, i8* %64, i64 -24
  %66 = bitcast i8* %65 to %"struct.std::basic_string<char>::_Rep"*
  %67 = getelementptr inbounds %"class.std::allocator.0", %"class.std::allocator.0"* %2, i64 0, i32 0
  call void @llvm.lifetime.start.p0i8(i64 1, i8* nonnull %67) #24
  %68 = icmp eq i8* %65, bitcast ([0 x i64]* @_ZNSs4_Rep20_S_empty_rep_storageE to i8*)
  br i1 %68, label %81, label %69, !prof !26

69:                                               ; preds = %62
  %70 = getelementptr inbounds i8, i8* %64, i64 -8
  %71 = bitcast i8* %70 to i32*
  br i1 icmp ne (i8* bitcast (i32 (i32*, void (i8*)*)* @__pthread_key_create to i8*), i8* null), label %72, label %74

72:                                               ; preds = %69
  %73 = atomicrmw volatile add i32* %71, i32 -1 acq_rel, align 4
  br label %77

74:                                               ; preds = %69
  %75 = load i32, i32* %71, align 8, !tbaa !16
  %76 = add nsw i32 %75, -1
  store i32 %76, i32* %71, align 8, !tbaa !16
  br label %77

77:                                               ; preds = %74, %72
  %78 = phi i32 [ %73, %72 ], [ %75, %74 ]
  %79 = icmp slt i32 %78, 1
  br i1 %79, label %80, label %81

80:                                               ; preds = %77
  call void @_ZNSs4_Rep10_M_destroyERKSaIcE(%"struct.std::basic_string<char>::_Rep"* nonnull align 8 dereferenceable(24) %66, %"class.std::allocator.0"* nonnull align 1 dereferenceable(1) %2) #24
  br label %81

81:                                               ; preds = %62, %77, %80
  call void @llvm.lifetime.end.p0i8(i64 1, i8* nonnull %67) #24
  ret void
}

; Function Attrs: uwtable
define dso_local i32 @_ZN9Histogram5setupEv(%class.Histogram* nocapture nonnull align 8 dereferenceable(144) %0) local_unnamed_addr #7 align 2 personality i8* bitcast (i32 (...)* @__gxx_personality_v0 to i8*) {
  %2 = alloca %"class.std::allocator.0", align 1
  %3 = alloca %"class.std::allocator.0", align 1
  %4 = alloca %"class.std::basic_string", align 8
  %5 = alloca %"class.std::allocator.0", align 1
  %6 = alloca %"class.std::basic_string", align 8
  %7 = alloca %"class.std::allocator.0", align 1
  %8 = getelementptr inbounds %class.Histogram, %class.Histogram* %0, i64 0, i32 15
  %9 = load i32, i32* %8, align 8, !tbaa !68
  %10 = icmp slt i32 %9, 1
  br i1 %10, label %11, label %13

11:                                               ; preds = %1
  %12 = tail call nonnull align 8 dereferenceable(8) %"class.std::basic_ostream"* @_ZStlsISt11char_traitsIcEERSt13basic_ostreamIcT_ES5_PKc(%"class.std::basic_ostream"* nonnull align 8 dereferenceable(8) @_ZSt4cout, i8* getelementptr inbounds ([54 x i8], [54 x i8]* @.str.28, i64 0, i64 0))
  tail call void @exit(i32 0) #28
  unreachable

13:                                               ; preds = %1
  %14 = getelementptr inbounds %class.Histogram, %class.Histogram* %0, i64 0, i32 4
  %15 = load i32, i32* %14, align 8, !tbaa !17
  %16 = getelementptr inbounds %class.Histogram, %class.Histogram* %0, i64 0, i32 0
  %17 = load i32, i32* %16, align 8, !tbaa !20
  %18 = sdiv i32 %15, %17
  %19 = icmp eq i32 %18, 0
  %20 = select i1 %19, i32 1, i32 %18
  %21 = mul nsw i32 %20, %17
  store i32 %21, i32* %14, align 8, !tbaa !17
  %22 = getelementptr inbounds %class.Histogram, %class.Histogram* %0, i64 0, i32 5
  %23 = load i32, i32* %22, align 4, !tbaa !7
  %24 = getelementptr inbounds %class.Histogram, %class.Histogram* %0, i64 0, i32 1
  %25 = load i32, i32* %24, align 4, !tbaa !52
  %26 = sdiv i32 %23, %25
  %27 = icmp eq i32 %26, 0
  %28 = select i1 %27, i32 1, i32 %26
  %29 = mul nsw i32 %28, %25
  store i32 %29, i32* %22, align 4, !tbaa !7
  %30 = getelementptr inbounds %class.Histogram, %class.Histogram* %0, i64 0, i32 22
  %31 = load %"class.appsdk::SDKTimer"*, %"class.appsdk::SDKTimer"** %30, align 8, !tbaa !69
  %32 = tail call i32 @_ZN6appsdk8SDKTimer11createTimerEv(%"class.appsdk::SDKTimer"* nonnull align 8 dereferenceable(32) %31)
  %33 = load %"class.appsdk::SDKTimer"*, %"class.appsdk::SDKTimer"** %30, align 8, !tbaa !69
  %34 = bitcast %"class.std::basic_string"* %4 to i8*
  call void @llvm.lifetime.start.p0i8(i64 8, i8* nonnull %34)
  %35 = getelementptr inbounds %"class.appsdk::SDKTimer", %"class.appsdk::SDKTimer"* %33, i64 0, i32 0, i32 0, i32 0, i32 1
  %36 = load %"struct.appsdk::SDKTimer::Timer"**, %"struct.appsdk::SDKTimer::Timer"*** %35, align 8, !tbaa !70
  %37 = getelementptr inbounds %"class.appsdk::SDKTimer", %"class.appsdk::SDKTimer"* %33, i64 0, i32 0, i32 0, i32 0, i32 0
  %38 = load %"struct.appsdk::SDKTimer::Timer"**, %"struct.appsdk::SDKTimer::Timer"*** %37, align 8, !tbaa !73
  %39 = ptrtoint %"struct.appsdk::SDKTimer::Timer"** %36 to i64
  %40 = ptrtoint %"struct.appsdk::SDKTimer::Timer"** %38 to i64
  %41 = sub i64 %39, %40
  %42 = lshr exact i64 %41, 3
  %43 = trunc i64 %42 to i32
  %44 = icmp slt i32 %32, %43
  br i1 %44, label %71, label %45

45:                                               ; preds = %13
  %46 = getelementptr inbounds %"class.std::allocator.0", %"class.std::allocator.0"* %5, i64 0, i32 0
  call void @llvm.lifetime.start.p0i8(i64 1, i8* nonnull %46) #24
  call void @_ZNSsC1EPKcRKSaIcE(%"class.std::basic_string"* nonnull align 8 dereferenceable(8) %4, i8* getelementptr inbounds ([36 x i8], [36 x i8]* @.str.64, i64 0, i64 0), %"class.std::allocator.0"* nonnull align 1 dereferenceable(1) %5)
  invoke fastcc void @_ZN6appsdkL9sdk_errorESs(%"class.std::basic_string"* nonnull %4)
          to label %47 unwind label %69

47:                                               ; preds = %45
  %48 = getelementptr inbounds %"class.std::basic_string", %"class.std::basic_string"* %4, i64 0, i32 0, i32 0
  %49 = load i8*, i8** %48, align 8, !tbaa !23
  %50 = getelementptr inbounds i8, i8* %49, i64 -24
  %51 = bitcast i8* %50 to %"struct.std::basic_string<char>::_Rep"*
  %52 = getelementptr inbounds %"class.std::allocator.0", %"class.std::allocator.0"* %3, i64 0, i32 0
  call void @llvm.lifetime.start.p0i8(i64 1, i8* nonnull %52) #24
  %53 = icmp eq i8* %50, bitcast ([0 x i64]* @_ZNSs4_Rep20_S_empty_rep_storageE to i8*)
  br i1 %53, label %66, label %54, !prof !26

54:                                               ; preds = %47
  %55 = getelementptr inbounds i8, i8* %49, i64 -8
  %56 = bitcast i8* %55 to i32*
  br i1 icmp ne (i8* bitcast (i32 (i32*, void (i8*)*)* @__pthread_key_create to i8*), i8* null), label %57, label %59

57:                                               ; preds = %54
  %58 = atomicrmw volatile add i32* %56, i32 -1 acq_rel, align 4
  br label %62

59:                                               ; preds = %54
  %60 = load i32, i32* %56, align 8, !tbaa !16
  %61 = add nsw i32 %60, -1
  store i32 %61, i32* %56, align 8, !tbaa !16
  br label %62

62:                                               ; preds = %59, %57
  %63 = phi i32 [ %58, %57 ], [ %60, %59 ]
  %64 = icmp slt i32 %63, 1
  br i1 %64, label %65, label %66

65:                                               ; preds = %62
  call void @_ZNSs4_Rep10_M_destroyERKSaIcE(%"struct.std::basic_string<char>::_Rep"* nonnull align 8 dereferenceable(24) %51, %"class.std::allocator.0"* nonnull align 1 dereferenceable(1) %3) #24
  br label %66

66:                                               ; preds = %65, %62, %47
  call void @llvm.lifetime.end.p0i8(i64 1, i8* nonnull %52) #24
  call void @llvm.lifetime.end.p0i8(i64 1, i8* nonnull %46) #24
  br label %77

67:                                               ; preds = %143, %69
  %68 = phi { i8*, i32 } [ %70, %69 ], [ %144, %143 ]
  resume { i8*, i32 } %68

69:                                               ; preds = %45
  %70 = landingpad { i8*, i32 }
          cleanup
  call void @_ZNSsD2Ev(%"class.std::basic_string"* nonnull align 8 dereferenceable(8) %4) #24
  call void @llvm.lifetime.end.p0i8(i64 1, i8* nonnull %46) #24
  br label %67

71:                                               ; preds = %13
  %72 = sext i32 %32 to i64
  %73 = getelementptr inbounds %"struct.appsdk::SDKTimer::Timer"*, %"struct.appsdk::SDKTimer::Timer"** %38, i64 %72
  %74 = load %"struct.appsdk::SDKTimer::Timer"*, %"struct.appsdk::SDKTimer::Timer"** %73, align 8, !tbaa !3
  %75 = getelementptr inbounds %"struct.appsdk::SDKTimer::Timer", %"struct.appsdk::SDKTimer::Timer"* %74, i64 0, i32 2
  %76 = bitcast i64* %75 to i8*
  tail call void @llvm.memset.p0i8.i64(i8* noundef nonnull align 8 dereferenceable(16) %76, i8 0, i64 16, i1 false)
  br label %77

77:                                               ; preds = %66, %71
  call void @llvm.lifetime.end.p0i8(i64 8, i8* nonnull %34)
  %78 = load %"class.appsdk::SDKTimer"*, %"class.appsdk::SDKTimer"** %30, align 8, !tbaa !69
  %79 = call i32 @_ZN6appsdk8SDKTimer10startTimerEi(%"class.appsdk::SDKTimer"* nonnull align 8 dereferenceable(32) %78, i32 %32)
  %80 = call i32 @_ZN9Histogram8setupHIPEv(%class.Histogram* nonnull align 8 undef)
  %81 = call i32 @_ZN9Histogram14setupHistogramEv(%class.Histogram* nonnull align 8 dereferenceable(144) %0)
  %82 = icmp eq i32 %81, 0
  br i1 %82, label %145, label %83

83:                                               ; preds = %77
  %84 = getelementptr inbounds %"class.std::allocator.0", %"class.std::allocator.0"* %7, i64 0, i32 0
  call void @llvm.lifetime.start.p0i8(i64 1, i8* nonnull %84) #24
  invoke void @_ZNSsC1EPKcRKSaIcE(%"class.std::basic_string"* nonnull align 8 dereferenceable(8) %6, i8* getelementptr inbounds ([29 x i8], [29 x i8]* @.str.29, i64 0, i64 0), %"class.std::allocator.0"* nonnull align 1 dereferenceable(1) %7)
          to label %85 unwind label %139

85:                                               ; preds = %83
  invoke fastcc void @_ZN6appsdkL9sdk_errorESs(%"class.std::basic_string"* nonnull %6)
          to label %86 unwind label %141

86:                                               ; preds = %85
  %87 = getelementptr inbounds %"class.std::basic_string", %"class.std::basic_string"* %6, i64 0, i32 0, i32 0
  %88 = load i8*, i8** %87, align 8, !tbaa !23
  %89 = getelementptr inbounds i8, i8* %88, i64 -24
  %90 = bitcast i8* %89 to %"struct.std::basic_string<char>::_Rep"*
  %91 = getelementptr inbounds %"class.std::allocator.0", %"class.std::allocator.0"* %2, i64 0, i32 0
  call void @llvm.lifetime.start.p0i8(i64 1, i8* nonnull %91) #24
  %92 = icmp eq i8* %89, bitcast ([0 x i64]* @_ZNSs4_Rep20_S_empty_rep_storageE to i8*)
  br i1 %92, label %105, label %93, !prof !26

93:                                               ; preds = %86
  %94 = getelementptr inbounds i8, i8* %88, i64 -8
  %95 = bitcast i8* %94 to i32*
  br i1 icmp ne (i8* bitcast (i32 (i32*, void (i8*)*)* @__pthread_key_create to i8*), i8* null), label %96, label %98

96:                                               ; preds = %93
  %97 = atomicrmw volatile add i32* %95, i32 -1 acq_rel, align 4
  br label %101

98:                                               ; preds = %93
  %99 = load i32, i32* %95, align 8, !tbaa !16
  %100 = add nsw i32 %99, -1
  store i32 %100, i32* %95, align 8, !tbaa !16
  br label %101

101:                                              ; preds = %98, %96
  %102 = phi i32 [ %97, %96 ], [ %99, %98 ]
  %103 = icmp slt i32 %102, 1
  br i1 %103, label %104, label %105

104:                                              ; preds = %101
  call void @_ZNSs4_Rep10_M_destroyERKSaIcE(%"struct.std::basic_string<char>::_Rep"* nonnull align 8 dereferenceable(24) %90, %"class.std::allocator.0"* nonnull align 1 dereferenceable(1) %2) #24
  br label %105

105:                                              ; preds = %86, %101, %104
  call void @llvm.lifetime.end.p0i8(i64 1, i8* nonnull %91) #24
  call void @llvm.lifetime.end.p0i8(i64 1, i8* nonnull %84) #24
  %106 = call nonnull align 8 dereferenceable(8) %"class.std::basic_ostream"* @_ZSt16__ostream_insertIcSt11char_traitsIcEERSt13basic_ostreamIT_T0_ES6_PKS3_l(%"class.std::basic_ostream"* nonnull align 8 dereferenceable(8) @_ZSt4cout, i8* nonnull getelementptr inbounds ([12 x i8], [12 x i8]* @.str.2, i64 0, i64 0), i64 11)
  %107 = call nonnull align 8 dereferenceable(8) %"class.std::basic_ostream"* @_ZSt16__ostream_insertIcSt11char_traitsIcEERSt13basic_ostreamIT_T0_ES6_PKS3_l(%"class.std::basic_ostream"* nonnull align 8 dereferenceable(8) @_ZSt4cout, i8* nonnull getelementptr inbounds ([24 x i8], [24 x i8]* @.str.3, i64 0, i64 0), i64 23)
  %108 = call nonnull align 8 dereferenceable(8) %"class.std::basic_ostream"* @_ZSt16__ostream_insertIcSt11char_traitsIcEERSt13basic_ostreamIT_T0_ES6_PKS3_l(%"class.std::basic_ostream"* nonnull align 8 dereferenceable(8) @_ZSt4cout, i8* nonnull getelementptr inbounds ([2 x i8], [2 x i8]* @.str.4, i64 0, i64 0), i64 1)
  %109 = call nonnull align 8 dereferenceable(8) %"class.std::basic_ostream"* @_ZNSolsEi(%"class.std::basic_ostream"* nonnull align 8 dereferenceable(8) @_ZSt4cout, i32 527)
  %110 = bitcast %"class.std::basic_ostream"* %109 to i8**
  %111 = load i8*, i8** %110, align 8, !tbaa !27
  %112 = getelementptr i8, i8* %111, i64 -24
  %113 = bitcast i8* %112 to i64*
  %114 = load i64, i64* %113, align 8
  %115 = bitcast %"class.std::basic_ostream"* %109 to i8*
  %116 = getelementptr inbounds i8, i8* %115, i64 %114
  %117 = getelementptr inbounds i8, i8* %116, i64 240
  %118 = bitcast i8* %117 to %"class.std::ctype"**
  %119 = load %"class.std::ctype"*, %"class.std::ctype"** %118, align 8, !tbaa !29
  %120 = icmp eq %"class.std::ctype"* %119, null
  br i1 %120, label %121, label %122

121:                                              ; preds = %105
  call void @_ZSt16__throw_bad_castv() #25
  unreachable

122:                                              ; preds = %105
  %123 = getelementptr inbounds %"class.std::ctype", %"class.std::ctype"* %119, i64 0, i32 8
  %124 = load i8, i8* %123, align 8, !tbaa !31
  %125 = icmp eq i8 %124, 0
  br i1 %125, label %129, label %126

126:                                              ; preds = %122
  %127 = getelementptr inbounds %"class.std::ctype", %"class.std::ctype"* %119, i64 0, i32 9, i64 10
  %128 = load i8, i8* %127, align 1, !tbaa !33
  br label %135

129:                                              ; preds = %122
  call void @_ZNKSt5ctypeIcE13_M_widen_initEv(%"class.std::ctype"* nonnull align 8 dereferenceable(570) %119)
  %130 = bitcast %"class.std::ctype"* %119 to i8 (%"class.std::ctype"*, i8)***
  %131 = load i8 (%"class.std::ctype"*, i8)**, i8 (%"class.std::ctype"*, i8)*** %130, align 8, !tbaa !27
  %132 = getelementptr inbounds i8 (%"class.std::ctype"*, i8)*, i8 (%"class.std::ctype"*, i8)** %131, i64 6
  %133 = load i8 (%"class.std::ctype"*, i8)*, i8 (%"class.std::ctype"*, i8)** %132, align 8
  %134 = call signext i8 %133(%"class.std::ctype"* nonnull align 8 dereferenceable(570) %119, i8 signext 10)
  br label %135

135:                                              ; preds = %126, %129
  %136 = phi i8 [ %128, %126 ], [ %134, %129 ]
  %137 = call nonnull align 8 dereferenceable(8) %"class.std::basic_ostream"* @_ZNSo3putEc(%"class.std::basic_ostream"* nonnull align 8 dereferenceable(8) %109, i8 signext %136)
  %138 = call nonnull align 8 dereferenceable(8) %"class.std::basic_ostream"* @_ZNSo5flushEv(%"class.std::basic_ostream"* nonnull align 8 dereferenceable(8) %137)
  br label %151

139:                                              ; preds = %83
  %140 = landingpad { i8*, i32 }
          cleanup
  br label %143

141:                                              ; preds = %85
  %142 = landingpad { i8*, i32 }
          cleanup
  call void @_ZNSsD2Ev(%"class.std::basic_string"* nonnull align 8 dereferenceable(8) %6) #24
  br label %143

143:                                              ; preds = %141, %139
  %144 = phi { i8*, i32 } [ %142, %141 ], [ %140, %139 ]
  call void @llvm.lifetime.end.p0i8(i64 1, i8* nonnull %84) #24
  br label %67

145:                                              ; preds = %77
  %146 = load %"class.appsdk::SDKTimer"*, %"class.appsdk::SDKTimer"** %30, align 8, !tbaa !69
  %147 = call i32 @_ZN6appsdk8SDKTimer9stopTimerEi(%"class.appsdk::SDKTimer"* nonnull align 8 dereferenceable(32) %146, i32 %32)
  %148 = load %"class.appsdk::SDKTimer"*, %"class.appsdk::SDKTimer"** %30, align 8, !tbaa !69
  %149 = call contract double @_ZN6appsdk8SDKTimer9readTimerEi(%"class.appsdk::SDKTimer"* nonnull align 8 dereferenceable(32) %148, i32 %32)
  %150 = getelementptr inbounds %class.Histogram, %class.Histogram* %0, i64 0, i32 9
  store double %149, double* %150, align 8, !tbaa !74
  br label %151

151:                                              ; preds = %145, %135
  %152 = phi i32 [ 1, %135 ], [ 0, %145 ]
  ret i32 %152
}

; Function Attrs: noreturn nounwind
declare dso_local void @exit(i32) local_unnamed_addr #17

; Function Attrs: uwtable
define linkonce_odr dso_local i32 @_ZN6appsdk8SDKTimer11createTimerEv(%"class.appsdk::SDKTimer"* nonnull align 8 dereferenceable(32) %0) local_unnamed_addr #7 comdat align 2 personality i8* bitcast (i32 (...)* @__gxx_personality_v0 to i8*) {
  %2 = tail call noalias nonnull dereferenceable(32) i8* @_Znwm(i64 32) #26
  %3 = bitcast i8* %2 to %"struct.appsdk::SDKTimer::Timer"*
  %4 = getelementptr inbounds %"struct.appsdk::SDKTimer::Timer", %"struct.appsdk::SDKTimer::Timer"* %3, i64 0, i32 0, i32 0, i32 0
  store i8* bitcast (i64* getelementptr inbounds ([0 x i64], [0 x i64]* @_ZNSs4_Rep20_S_empty_rep_storageE, i64 0, i64 3) to i8*), i8** %4, align 8, !tbaa !60
  %5 = getelementptr inbounds %"struct.appsdk::SDKTimer::Timer", %"struct.appsdk::SDKTimer::Timer"* %3, i64 0, i32 2
  %6 = getelementptr inbounds %"struct.appsdk::SDKTimer::Timer", %"struct.appsdk::SDKTimer::Timer"* %3, i64 0, i32 1
  %7 = bitcast i64* %5 to i8*
  call void @llvm.memset.p0i8.i64(i8* noundef nonnull align 8 dereferenceable(16) %7, i8 0, i64 16, i1 false)
  store i64 1000, i64* %6, align 8, !tbaa !75
  %8 = getelementptr inbounds %"class.appsdk::SDKTimer", %"class.appsdk::SDKTimer"* %0, i64 0, i32 0, i32 0, i32 0, i32 1
  %9 = load %"struct.appsdk::SDKTimer::Timer"**, %"struct.appsdk::SDKTimer::Timer"*** %8, align 8, !tbaa !70
  %10 = getelementptr inbounds %"class.appsdk::SDKTimer", %"class.appsdk::SDKTimer"* %0, i64 0, i32 0, i32 0, i32 0, i32 2
  %11 = load %"struct.appsdk::SDKTimer::Timer"**, %"struct.appsdk::SDKTimer::Timer"*** %10, align 8, !tbaa !78
  %12 = icmp eq %"struct.appsdk::SDKTimer::Timer"** %9, %11
  br i1 %12, label %19, label %13

13:                                               ; preds = %1
  %14 = bitcast %"struct.appsdk::SDKTimer::Timer"** %9 to i8**
  store i8* %2, i8** %14, align 8, !tbaa !3
  %15 = load %"struct.appsdk::SDKTimer::Timer"**, %"struct.appsdk::SDKTimer::Timer"*** %8, align 8, !tbaa !70
  %16 = getelementptr inbounds %"struct.appsdk::SDKTimer::Timer"*, %"struct.appsdk::SDKTimer::Timer"** %15, i64 1
  store %"struct.appsdk::SDKTimer::Timer"** %16, %"struct.appsdk::SDKTimer::Timer"*** %8, align 8, !tbaa !70
  %17 = getelementptr inbounds %"class.appsdk::SDKTimer", %"class.appsdk::SDKTimer"* %0, i64 0, i32 0, i32 0, i32 0, i32 0
  %18 = load %"struct.appsdk::SDKTimer::Timer"**, %"struct.appsdk::SDKTimer::Timer"*** %17, align 8, !tbaa !73
  br label %70

19:                                               ; preds = %1
  %20 = getelementptr inbounds %"class.appsdk::SDKTimer", %"class.appsdk::SDKTimer"* %0, i64 0, i32 0, i32 0, i32 0, i32 0
  %21 = load %"struct.appsdk::SDKTimer::Timer"**, %"struct.appsdk::SDKTimer::Timer"*** %20, align 8, !tbaa !73
  %22 = ptrtoint %"struct.appsdk::SDKTimer::Timer"** %9 to i64
  %23 = ptrtoint %"struct.appsdk::SDKTimer::Timer"** %21 to i64
  %24 = sub i64 %22, %23
  %25 = ashr exact i64 %24, 3
  %26 = icmp eq i64 %24, 0
  %27 = select i1 %26, i64 1, i64 %25
  %28 = add nsw i64 %27, %25
  %29 = icmp ult i64 %28, %25
  %30 = icmp ugt i64 %28, 2305843009213693951
  %31 = or i1 %29, %30
  %32 = select i1 %31, i64 2305843009213693951, i64 %28
  %33 = icmp eq i64 %32, 0
  br i1 %33, label %41, label %34

34:                                               ; preds = %19
  %35 = shl nuw i64 %32, 3
  %36 = tail call noalias nonnull i8* @_Znwm(i64 %35) #29
  %37 = bitcast i8* %36 to %"struct.appsdk::SDKTimer::Timer"**
  %38 = load %"struct.appsdk::SDKTimer::Timer"**, %"struct.appsdk::SDKTimer::Timer"*** %20, align 8, !tbaa !73
  %39 = ptrtoint %"struct.appsdk::SDKTimer::Timer"** %38 to i64
  %40 = sub i64 %22, %39
  br label %41

41:                                               ; preds = %34, %19
  %42 = phi i64 [ %40, %34 ], [ %24, %19 ]
  %43 = phi %"struct.appsdk::SDKTimer::Timer"** [ %38, %34 ], [ %21, %19 ]
  %44 = phi %"struct.appsdk::SDKTimer::Timer"** [ %37, %34 ], [ null, %19 ]
  %45 = getelementptr inbounds %"struct.appsdk::SDKTimer::Timer"*, %"struct.appsdk::SDKTimer::Timer"** %44, i64 %25
  %46 = bitcast %"struct.appsdk::SDKTimer::Timer"** %45 to i8**
  store i8* %2, i8** %46, align 8, !tbaa !3
  %47 = icmp eq i64 %42, 0
  br i1 %47, label %51, label %48

48:                                               ; preds = %41
  %49 = bitcast %"struct.appsdk::SDKTimer::Timer"** %44 to i8*
  %50 = bitcast %"struct.appsdk::SDKTimer::Timer"** %43 to i8*
  tail call void @llvm.memmove.p0i8.p0i8.i64(i8* align 8 %49, i8* align 8 %50, i64 %42, i1 false) #24
  br label %51

51:                                               ; preds = %48, %41
  %52 = ashr exact i64 %42, 3
  %53 = getelementptr inbounds %"struct.appsdk::SDKTimer::Timer"*, %"struct.appsdk::SDKTimer::Timer"** %44, i64 %52
  %54 = getelementptr inbounds %"struct.appsdk::SDKTimer::Timer"*, %"struct.appsdk::SDKTimer::Timer"** %53, i64 1
  %55 = load %"struct.appsdk::SDKTimer::Timer"**, %"struct.appsdk::SDKTimer::Timer"*** %8, align 8, !tbaa !70
  %56 = ptrtoint %"struct.appsdk::SDKTimer::Timer"** %55 to i64
  %57 = sub i64 %56, %22
  %58 = icmp eq i64 %57, 0
  br i1 %58, label %62, label %59

59:                                               ; preds = %51
  %60 = bitcast %"struct.appsdk::SDKTimer::Timer"** %54 to i8*
  %61 = bitcast %"struct.appsdk::SDKTimer::Timer"** %9 to i8*
  tail call void @llvm.memmove.p0i8.p0i8.i64(i8* nonnull align 8 %60, i8* align 8 %61, i64 %57, i1 false) #24
  br label %62

62:                                               ; preds = %59, %51
  %63 = icmp eq %"struct.appsdk::SDKTimer::Timer"** %43, null
  br i1 %63, label %66, label %64

64:                                               ; preds = %62
  %65 = bitcast %"struct.appsdk::SDKTimer::Timer"** %43 to i8*
  tail call void @_ZdlPv(i8* nonnull %65) #24
  br label %66

66:                                               ; preds = %64, %62
  %67 = ashr exact i64 %57, 3
  %68 = getelementptr inbounds %"struct.appsdk::SDKTimer::Timer"*, %"struct.appsdk::SDKTimer::Timer"** %54, i64 %67
  store %"struct.appsdk::SDKTimer::Timer"** %44, %"struct.appsdk::SDKTimer::Timer"*** %20, align 8, !tbaa !73
  store %"struct.appsdk::SDKTimer::Timer"** %68, %"struct.appsdk::SDKTimer::Timer"*** %8, align 8, !tbaa !70
  %69 = getelementptr inbounds %"struct.appsdk::SDKTimer::Timer"*, %"struct.appsdk::SDKTimer::Timer"** %44, i64 %32
  store %"struct.appsdk::SDKTimer::Timer"** %69, %"struct.appsdk::SDKTimer::Timer"*** %10, align 8, !tbaa !78
  br label %70

70:                                               ; preds = %13, %66
  %71 = phi %"struct.appsdk::SDKTimer::Timer"** [ %18, %13 ], [ %44, %66 ]
  %72 = phi %"struct.appsdk::SDKTimer::Timer"** [ %16, %13 ], [ %68, %66 ]
  %73 = ptrtoint %"struct.appsdk::SDKTimer::Timer"** %72 to i64
  %74 = ptrtoint %"struct.appsdk::SDKTimer::Timer"** %71 to i64
  %75 = sub i64 %73, %74
  %76 = lshr exact i64 %75, 3
  %77 = trunc i64 %76 to i32
  %78 = add i32 %77, -1
  ret i32 %78
}

; Function Attrs: uwtable
define linkonce_odr dso_local i32 @_ZN6appsdk8SDKTimer10startTimerEi(%"class.appsdk::SDKTimer"* nonnull align 8 dereferenceable(32) %0, i32 %1) local_unnamed_addr #7 comdat align 2 personality i8* bitcast (i32 (...)* @__gxx_personality_v0 to i8*) {
  %3 = alloca %"class.std::allocator.0", align 1
  %4 = alloca %"class.std::basic_string", align 8
  %5 = alloca %"class.std::allocator.0", align 1
  %6 = alloca %struct.timeval, align 8
  %7 = getelementptr inbounds %"class.appsdk::SDKTimer", %"class.appsdk::SDKTimer"* %0, i64 0, i32 0, i32 0, i32 0, i32 1
  %8 = load %"struct.appsdk::SDKTimer::Timer"**, %"struct.appsdk::SDKTimer::Timer"*** %7, align 8, !tbaa !70
  %9 = getelementptr inbounds %"class.appsdk::SDKTimer", %"class.appsdk::SDKTimer"* %0, i64 0, i32 0, i32 0, i32 0, i32 0
  %10 = load %"struct.appsdk::SDKTimer::Timer"**, %"struct.appsdk::SDKTimer::Timer"*** %9, align 8, !tbaa !73
  %11 = ptrtoint %"struct.appsdk::SDKTimer::Timer"** %8 to i64
  %12 = ptrtoint %"struct.appsdk::SDKTimer::Timer"** %10 to i64
  %13 = sub i64 %11, %12
  %14 = lshr exact i64 %13, 3
  %15 = trunc i64 %14 to i32
  %16 = icmp sgt i32 %15, %1
  br i1 %16, label %41, label %17

17:                                               ; preds = %2
  %18 = getelementptr inbounds %"class.std::allocator.0", %"class.std::allocator.0"* %5, i64 0, i32 0
  call void @llvm.lifetime.start.p0i8(i64 1, i8* nonnull %18) #24
  call void @_ZNSsC1EPKcRKSaIcE(%"class.std::basic_string"* nonnull align 8 dereferenceable(8) %4, i8* getelementptr inbounds ([36 x i8], [36 x i8]* @.str.64, i64 0, i64 0), %"class.std::allocator.0"* nonnull align 1 dereferenceable(1) %5)
  invoke fastcc void @_ZN6appsdkL9sdk_errorESs(%"class.std::basic_string"* nonnull %4)
          to label %19 unwind label %39

19:                                               ; preds = %17
  %20 = getelementptr inbounds %"class.std::basic_string", %"class.std::basic_string"* %4, i64 0, i32 0, i32 0
  %21 = load i8*, i8** %20, align 8, !tbaa !23
  %22 = getelementptr inbounds i8, i8* %21, i64 -24
  %23 = bitcast i8* %22 to %"struct.std::basic_string<char>::_Rep"*
  %24 = getelementptr inbounds %"class.std::allocator.0", %"class.std::allocator.0"* %3, i64 0, i32 0
  call void @llvm.lifetime.start.p0i8(i64 1, i8* nonnull %24) #24
  %25 = icmp eq i8* %22, bitcast ([0 x i64]* @_ZNSs4_Rep20_S_empty_rep_storageE to i8*)
  br i1 %25, label %38, label %26, !prof !26

26:                                               ; preds = %19
  %27 = getelementptr inbounds i8, i8* %21, i64 -8
  %28 = bitcast i8* %27 to i32*
  br i1 icmp ne (i8* bitcast (i32 (i32*, void (i8*)*)* @__pthread_key_create to i8*), i8* null), label %29, label %31

29:                                               ; preds = %26
  %30 = atomicrmw volatile add i32* %28, i32 -1 acq_rel, align 4
  br label %34

31:                                               ; preds = %26
  %32 = load i32, i32* %28, align 8, !tbaa !16
  %33 = add nsw i32 %32, -1
  store i32 %33, i32* %28, align 8, !tbaa !16
  br label %34

34:                                               ; preds = %31, %29
  %35 = phi i32 [ %30, %29 ], [ %32, %31 ]
  %36 = icmp slt i32 %35, 1
  br i1 %36, label %37, label %38

37:                                               ; preds = %34
  call void @_ZNSs4_Rep10_M_destroyERKSaIcE(%"struct.std::basic_string<char>::_Rep"* nonnull align 8 dereferenceable(24) %23, %"class.std::allocator.0"* nonnull align 1 dereferenceable(1) %3) #24
  br label %38

38:                                               ; preds = %19, %34, %37
  call void @llvm.lifetime.end.p0i8(i64 1, i8* nonnull %24) #24
  call void @llvm.lifetime.end.p0i8(i64 1, i8* nonnull %18) #24
  br label %56

39:                                               ; preds = %17
  %40 = landingpad { i8*, i32 }
          cleanup
  call void @_ZNSsD2Ev(%"class.std::basic_string"* nonnull align 8 dereferenceable(8) %4) #24
  call void @llvm.lifetime.end.p0i8(i64 1, i8* nonnull %18) #24
  resume { i8*, i32 } %40

41:                                               ; preds = %2
  %42 = bitcast %struct.timeval* %6 to i8*
  call void @llvm.lifetime.start.p0i8(i64 16, i8* nonnull %42) #24
  %43 = call i32 @gettimeofday(%struct.timeval* nonnull %6, %struct.timezone* null) #24
  %44 = getelementptr inbounds %struct.timeval, %struct.timeval* %6, i64 0, i32 0
  %45 = load i64, i64* %44, align 8, !tbaa !79
  %46 = mul nsw i64 %45, 1000
  %47 = getelementptr inbounds %struct.timeval, %struct.timeval* %6, i64 0, i32 1
  %48 = load i64, i64* %47, align 8, !tbaa !81
  %49 = sdiv i64 %48, 1000
  %50 = add nsw i64 %49, %46
  %51 = sext i32 %1 to i64
  %52 = load %"struct.appsdk::SDKTimer::Timer"**, %"struct.appsdk::SDKTimer::Timer"*** %9, align 8, !tbaa !73
  %53 = getelementptr inbounds %"struct.appsdk::SDKTimer::Timer"*, %"struct.appsdk::SDKTimer::Timer"** %52, i64 %51
  %54 = load %"struct.appsdk::SDKTimer::Timer"*, %"struct.appsdk::SDKTimer::Timer"** %53, align 8, !tbaa !3
  %55 = getelementptr inbounds %"struct.appsdk::SDKTimer::Timer", %"struct.appsdk::SDKTimer::Timer"* %54, i64 0, i32 3
  store i64 %50, i64* %55, align 8, !tbaa !82
  call void @llvm.lifetime.end.p0i8(i64 16, i8* nonnull %42) #24
  br label %56

56:                                               ; preds = %41, %38
  %57 = phi i32 [ 1, %38 ], [ 0, %41 ]
  ret i32 %57
}

; Function Attrs: uwtable
define linkonce_odr dso_local i32 @_ZN6appsdk8SDKTimer9stopTimerEi(%"class.appsdk::SDKTimer"* nonnull align 8 dereferenceable(32) %0, i32 %1) local_unnamed_addr #7 comdat align 2 personality i8* bitcast (i32 (...)* @__gxx_personality_v0 to i8*) {
  %3 = alloca %"class.std::allocator.0", align 1
  %4 = alloca %"class.std::basic_string", align 8
  %5 = alloca %"class.std::allocator.0", align 1
  %6 = alloca %struct.timeval, align 8
  %7 = getelementptr inbounds %"class.appsdk::SDKTimer", %"class.appsdk::SDKTimer"* %0, i64 0, i32 0, i32 0, i32 0, i32 1
  %8 = load %"struct.appsdk::SDKTimer::Timer"**, %"struct.appsdk::SDKTimer::Timer"*** %7, align 8, !tbaa !70
  %9 = getelementptr inbounds %"class.appsdk::SDKTimer", %"class.appsdk::SDKTimer"* %0, i64 0, i32 0, i32 0, i32 0, i32 0
  %10 = load %"struct.appsdk::SDKTimer::Timer"**, %"struct.appsdk::SDKTimer::Timer"*** %9, align 8, !tbaa !73
  %11 = ptrtoint %"struct.appsdk::SDKTimer::Timer"** %8 to i64
  %12 = ptrtoint %"struct.appsdk::SDKTimer::Timer"** %10 to i64
  %13 = sub i64 %11, %12
  %14 = lshr exact i64 %13, 3
  %15 = trunc i64 %14 to i32
  %16 = icmp sgt i32 %15, %1
  br i1 %16, label %41, label %17

17:                                               ; preds = %2
  %18 = getelementptr inbounds %"class.std::allocator.0", %"class.std::allocator.0"* %5, i64 0, i32 0
  call void @llvm.lifetime.start.p0i8(i64 1, i8* nonnull %18) #24
  call void @_ZNSsC1EPKcRKSaIcE(%"class.std::basic_string"* nonnull align 8 dereferenceable(8) %4, i8* getelementptr inbounds ([36 x i8], [36 x i8]* @.str.64, i64 0, i64 0), %"class.std::allocator.0"* nonnull align 1 dereferenceable(1) %5)
  invoke fastcc void @_ZN6appsdkL9sdk_errorESs(%"class.std::basic_string"* nonnull %4)
          to label %19 unwind label %39

19:                                               ; preds = %17
  %20 = getelementptr inbounds %"class.std::basic_string", %"class.std::basic_string"* %4, i64 0, i32 0, i32 0
  %21 = load i8*, i8** %20, align 8, !tbaa !23
  %22 = getelementptr inbounds i8, i8* %21, i64 -24
  %23 = bitcast i8* %22 to %"struct.std::basic_string<char>::_Rep"*
  %24 = getelementptr inbounds %"class.std::allocator.0", %"class.std::allocator.0"* %3, i64 0, i32 0
  call void @llvm.lifetime.start.p0i8(i64 1, i8* nonnull %24) #24
  %25 = icmp eq i8* %22, bitcast ([0 x i64]* @_ZNSs4_Rep20_S_empty_rep_storageE to i8*)
  br i1 %25, label %38, label %26, !prof !26

26:                                               ; preds = %19
  %27 = getelementptr inbounds i8, i8* %21, i64 -8
  %28 = bitcast i8* %27 to i32*
  br i1 icmp ne (i8* bitcast (i32 (i32*, void (i8*)*)* @__pthread_key_create to i8*), i8* null), label %29, label %31

29:                                               ; preds = %26
  %30 = atomicrmw volatile add i32* %28, i32 -1 acq_rel, align 4
  br label %34

31:                                               ; preds = %26
  %32 = load i32, i32* %28, align 8, !tbaa !16
  %33 = add nsw i32 %32, -1
  store i32 %33, i32* %28, align 8, !tbaa !16
  br label %34

34:                                               ; preds = %31, %29
  %35 = phi i32 [ %30, %29 ], [ %32, %31 ]
  %36 = icmp slt i32 %35, 1
  br i1 %36, label %37, label %38

37:                                               ; preds = %34
  call void @_ZNSs4_Rep10_M_destroyERKSaIcE(%"struct.std::basic_string<char>::_Rep"* nonnull align 8 dereferenceable(24) %23, %"class.std::allocator.0"* nonnull align 1 dereferenceable(1) %3) #24
  br label %38

38:                                               ; preds = %19, %34, %37
  call void @llvm.lifetime.end.p0i8(i64 1, i8* nonnull %24) #24
  call void @llvm.lifetime.end.p0i8(i64 1, i8* nonnull %18) #24
  br label %61

39:                                               ; preds = %17
  %40 = landingpad { i8*, i32 }
          cleanup
  call void @_ZNSsD2Ev(%"class.std::basic_string"* nonnull align 8 dereferenceable(8) %4) #24
  call void @llvm.lifetime.end.p0i8(i64 1, i8* nonnull %18) #24
  resume { i8*, i32 } %40

41:                                               ; preds = %2
  %42 = bitcast %struct.timeval* %6 to i8*
  call void @llvm.lifetime.start.p0i8(i64 16, i8* nonnull %42) #24
  %43 = call i32 @gettimeofday(%struct.timeval* nonnull %6, %struct.timezone* null) #24
  %44 = getelementptr inbounds %struct.timeval, %struct.timeval* %6, i64 0, i32 0
  %45 = load i64, i64* %44, align 8, !tbaa !79
  %46 = mul nsw i64 %45, 1000
  %47 = getelementptr inbounds %struct.timeval, %struct.timeval* %6, i64 0, i32 1
  %48 = load i64, i64* %47, align 8, !tbaa !81
  %49 = sdiv i64 %48, 1000
  %50 = add nsw i64 %49, %46
  %51 = sext i32 %1 to i64
  %52 = load %"struct.appsdk::SDKTimer::Timer"**, %"struct.appsdk::SDKTimer::Timer"*** %9, align 8, !tbaa !73
  %53 = getelementptr inbounds %"struct.appsdk::SDKTimer::Timer"*, %"struct.appsdk::SDKTimer::Timer"** %52, i64 %51
  %54 = load %"struct.appsdk::SDKTimer::Timer"*, %"struct.appsdk::SDKTimer::Timer"** %53, align 8, !tbaa !3
  %55 = getelementptr inbounds %"struct.appsdk::SDKTimer::Timer", %"struct.appsdk::SDKTimer::Timer"* %54, i64 0, i32 3
  %56 = load i64, i64* %55, align 8, !tbaa !82
  %57 = sub i64 %50, %56
  store i64 0, i64* %55, align 8, !tbaa !82
  %58 = getelementptr inbounds %"struct.appsdk::SDKTimer::Timer", %"struct.appsdk::SDKTimer::Timer"* %54, i64 0, i32 2
  %59 = load i64, i64* %58, align 8, !tbaa !83
  %60 = add nsw i64 %57, %59
  store i64 %60, i64* %58, align 8, !tbaa !83
  call void @llvm.lifetime.end.p0i8(i64 16, i8* nonnull %42) #24
  br label %61

61:                                               ; preds = %41, %38
  %62 = phi i32 [ 1, %38 ], [ 0, %41 ]
  ret i32 %62
}

; Function Attrs: uwtable
define linkonce_odr dso_local double @_ZN6appsdk8SDKTimer9readTimerEi(%"class.appsdk::SDKTimer"* nonnull align 8 dereferenceable(32) %0, i32 %1) local_unnamed_addr #7 comdat align 2 personality i8* bitcast (i32 (...)* @__gxx_personality_v0 to i8*) {
  %3 = alloca %"class.std::allocator.0", align 1
  %4 = alloca %"class.std::basic_string", align 8
  %5 = alloca %"class.std::allocator.0", align 1
  %6 = getelementptr inbounds %"class.appsdk::SDKTimer", %"class.appsdk::SDKTimer"* %0, i64 0, i32 0, i32 0, i32 0, i32 1
  %7 = load %"struct.appsdk::SDKTimer::Timer"**, %"struct.appsdk::SDKTimer::Timer"*** %6, align 8, !tbaa !70
  %8 = getelementptr inbounds %"class.appsdk::SDKTimer", %"class.appsdk::SDKTimer"* %0, i64 0, i32 0, i32 0, i32 0, i32 0
  %9 = load %"struct.appsdk::SDKTimer::Timer"**, %"struct.appsdk::SDKTimer::Timer"*** %8, align 8, !tbaa !73
  %10 = ptrtoint %"struct.appsdk::SDKTimer::Timer"** %7 to i64
  %11 = ptrtoint %"struct.appsdk::SDKTimer::Timer"** %9 to i64
  %12 = sub i64 %10, %11
  %13 = lshr exact i64 %12, 3
  %14 = trunc i64 %13 to i32
  %15 = icmp sgt i32 %14, %1
  br i1 %15, label %40, label %16

16:                                               ; preds = %2
  %17 = getelementptr inbounds %"class.std::allocator.0", %"class.std::allocator.0"* %5, i64 0, i32 0
  call void @llvm.lifetime.start.p0i8(i64 1, i8* nonnull %17) #24
  call void @_ZNSsC1EPKcRKSaIcE(%"class.std::basic_string"* nonnull align 8 dereferenceable(8) %4, i8* getelementptr inbounds ([35 x i8], [35 x i8]* @.str.65, i64 0, i64 0), %"class.std::allocator.0"* nonnull align 1 dereferenceable(1) %5)
  invoke fastcc void @_ZN6appsdkL9sdk_errorESs(%"class.std::basic_string"* nonnull %4)
          to label %18 unwind label %38

18:                                               ; preds = %16
  %19 = getelementptr inbounds %"class.std::basic_string", %"class.std::basic_string"* %4, i64 0, i32 0, i32 0
  %20 = load i8*, i8** %19, align 8, !tbaa !23
  %21 = getelementptr inbounds i8, i8* %20, i64 -24
  %22 = bitcast i8* %21 to %"struct.std::basic_string<char>::_Rep"*
  %23 = getelementptr inbounds %"class.std::allocator.0", %"class.std::allocator.0"* %3, i64 0, i32 0
  call void @llvm.lifetime.start.p0i8(i64 1, i8* nonnull %23) #24
  %24 = icmp eq i8* %21, bitcast ([0 x i64]* @_ZNSs4_Rep20_S_empty_rep_storageE to i8*)
  br i1 %24, label %37, label %25, !prof !26

25:                                               ; preds = %18
  %26 = getelementptr inbounds i8, i8* %20, i64 -8
  %27 = bitcast i8* %26 to i32*
  br i1 icmp ne (i8* bitcast (i32 (i32*, void (i8*)*)* @__pthread_key_create to i8*), i8* null), label %28, label %30

28:                                               ; preds = %25
  %29 = atomicrmw volatile add i32* %27, i32 -1 acq_rel, align 4
  br label %33

30:                                               ; preds = %25
  %31 = load i32, i32* %27, align 8, !tbaa !16
  %32 = add nsw i32 %31, -1
  store i32 %32, i32* %27, align 8, !tbaa !16
  br label %33

33:                                               ; preds = %30, %28
  %34 = phi i32 [ %29, %28 ], [ %31, %30 ]
  %35 = icmp slt i32 %34, 1
  br i1 %35, label %36, label %37

36:                                               ; preds = %33
  call void @_ZNSs4_Rep10_M_destroyERKSaIcE(%"struct.std::basic_string<char>::_Rep"* nonnull align 8 dereferenceable(24) %22, %"class.std::allocator.0"* nonnull align 1 dereferenceable(1) %3) #24
  br label %37

37:                                               ; preds = %18, %33, %36
  call void @llvm.lifetime.end.p0i8(i64 1, i8* nonnull %23) #24
  call void @llvm.lifetime.end.p0i8(i64 1, i8* nonnull %17) #24
  br label %51

38:                                               ; preds = %16
  %39 = landingpad { i8*, i32 }
          cleanup
  call void @_ZNSsD2Ev(%"class.std::basic_string"* nonnull align 8 dereferenceable(8) %4) #24
  call void @llvm.lifetime.end.p0i8(i64 1, i8* nonnull %17) #24
  resume { i8*, i32 } %39

40:                                               ; preds = %2
  %41 = sext i32 %1 to i64
  %42 = getelementptr inbounds %"struct.appsdk::SDKTimer::Timer"*, %"struct.appsdk::SDKTimer::Timer"** %9, i64 %41
  %43 = load %"struct.appsdk::SDKTimer::Timer"*, %"struct.appsdk::SDKTimer::Timer"** %42, align 8, !tbaa !3
  %44 = getelementptr inbounds %"struct.appsdk::SDKTimer::Timer", %"struct.appsdk::SDKTimer::Timer"* %43, i64 0, i32 2
  %45 = load i64, i64* %44, align 8, !tbaa !83
  %46 = sitofp i64 %45 to double
  %47 = getelementptr inbounds %"struct.appsdk::SDKTimer::Timer", %"struct.appsdk::SDKTimer::Timer"* %43, i64 0, i32 1
  %48 = load i64, i64* %47, align 8, !tbaa !75
  %49 = sitofp i64 %48 to double
  %50 = fdiv contract double %46, %49
  br label %51

51:                                               ; preds = %40, %37
  %52 = phi double [ 1.000000e+00, %37 ], [ %50, %40 ]
  ret double %52
}

; Function Attrs: uwtable
define dso_local i32 @_ZN9Histogram3runEv(%class.Histogram* nonnull align 8 dereferenceable(144) %0) local_unnamed_addr #7 align 2 personality i8* bitcast (i32 (...)* @__gxx_personality_v0 to i8*) {
  %2 = alloca %"class.std::allocator.0", align 1
  %3 = alloca %"class.std::allocator.0", align 1
  %4 = alloca %"class.std::basic_string", align 8
  %5 = alloca %"class.std::allocator.0", align 1
  %6 = alloca %"class.std::basic_string", align 8
  %7 = alloca %"class.std::allocator.0", align 1
  %8 = getelementptr inbounds %class.Histogram, %class.Histogram* %0, i64 0, i32 15
  %9 = load i32, i32* %8, align 8
  %10 = icmp eq i32 %9, 1
  br i1 %10, label %17, label %11

11:                                               ; preds = %1
  %12 = tail call i32 @_ZN9Histogram10runKernelsEv(%class.Histogram* nonnull align 8 dereferenceable(144) %0)
  %13 = load i32, i32* %8, align 8
  %14 = icmp eq i32 %13, 1
  br i1 %14, label %17, label %15

15:                                               ; preds = %11
  %16 = tail call i32 @_ZN9Histogram10runKernelsEv(%class.Histogram* nonnull align 8 dereferenceable(144) %0)
  br label %17

17:                                               ; preds = %11, %15, %1
  %18 = tail call nonnull align 8 dereferenceable(8) %"class.std::basic_ostream"* @_ZSt16__ostream_insertIcSt11char_traitsIcEERSt13basic_ostreamIT_T0_ES6_PKS3_l(%"class.std::basic_ostream"* nonnull align 8 dereferenceable(8) @_ZSt4cout, i8* nonnull getelementptr inbounds ([22 x i8], [22 x i8]* @.str.30, i64 0, i64 0), i64 21)
  %19 = load i32, i32* %8, align 8, !tbaa !68
  %20 = tail call nonnull align 8 dereferenceable(8) %"class.std::basic_ostream"* @_ZNSolsEi(%"class.std::basic_ostream"* nonnull align 8 dereferenceable(8) @_ZSt4cout, i32 %19)
  %21 = tail call nonnull align 8 dereferenceable(8) %"class.std::basic_ostream"* @_ZSt16__ostream_insertIcSt11char_traitsIcEERSt13basic_ostreamIT_T0_ES6_PKS3_l(%"class.std::basic_ostream"* nonnull align 8 dereferenceable(8) %20, i8* nonnull getelementptr inbounds ([12 x i8], [12 x i8]* @.str.31, i64 0, i64 0), i64 11)
  %22 = bitcast %"class.std::basic_ostream"* %20 to i8**
  %23 = load i8*, i8** %22, align 8, !tbaa !27
  %24 = getelementptr i8, i8* %23, i64 -24
  %25 = bitcast i8* %24 to i64*
  %26 = load i64, i64* %25, align 8
  %27 = bitcast %"class.std::basic_ostream"* %20 to i8*
  %28 = getelementptr inbounds i8, i8* %27, i64 %26
  %29 = getelementptr inbounds i8, i8* %28, i64 240
  %30 = bitcast i8* %29 to %"class.std::ctype"**
  %31 = load %"class.std::ctype"*, %"class.std::ctype"** %30, align 8, !tbaa !29
  %32 = icmp eq %"class.std::ctype"* %31, null
  br i1 %32, label %33, label %34

33:                                               ; preds = %17
  tail call void @_ZSt16__throw_bad_castv() #25
  unreachable

34:                                               ; preds = %17
  %35 = getelementptr inbounds %"class.std::ctype", %"class.std::ctype"* %31, i64 0, i32 8
  %36 = load i8, i8* %35, align 8, !tbaa !31
  %37 = icmp eq i8 %36, 0
  br i1 %37, label %41, label %38

38:                                               ; preds = %34
  %39 = getelementptr inbounds %"class.std::ctype", %"class.std::ctype"* %31, i64 0, i32 9, i64 10
  %40 = load i8, i8* %39, align 1, !tbaa !33
  br label %47

41:                                               ; preds = %34
  tail call void @_ZNKSt5ctypeIcE13_M_widen_initEv(%"class.std::ctype"* nonnull align 8 dereferenceable(570) %31)
  %42 = bitcast %"class.std::ctype"* %31 to i8 (%"class.std::ctype"*, i8)***
  %43 = load i8 (%"class.std::ctype"*, i8)**, i8 (%"class.std::ctype"*, i8)*** %42, align 8, !tbaa !27
  %44 = getelementptr inbounds i8 (%"class.std::ctype"*, i8)*, i8 (%"class.std::ctype"*, i8)** %43, i64 6
  %45 = load i8 (%"class.std::ctype"*, i8)*, i8 (%"class.std::ctype"*, i8)** %44, align 8
  %46 = tail call signext i8 %45(%"class.std::ctype"* nonnull align 8 dereferenceable(570) %31, i8 signext 10)
  br label %47

47:                                               ; preds = %38, %41
  %48 = phi i8 [ %40, %38 ], [ %46, %41 ]
  %49 = tail call nonnull align 8 dereferenceable(8) %"class.std::basic_ostream"* @_ZNSo3putEc(%"class.std::basic_ostream"* nonnull align 8 dereferenceable(8) %20, i8 signext %48)
  %50 = tail call nonnull align 8 dereferenceable(8) %"class.std::basic_ostream"* @_ZNSo5flushEv(%"class.std::basic_ostream"* nonnull align 8 dereferenceable(8) %49)
  %51 = tail call nonnull align 8 dereferenceable(8) %"class.std::basic_ostream"* @_ZSt16__ostream_insertIcSt11char_traitsIcEERSt13basic_ostreamIT_T0_ES6_PKS3_l(%"class.std::basic_ostream"* nonnull align 8 dereferenceable(8) @_ZSt4cout, i8* nonnull getelementptr inbounds ([44 x i8], [44 x i8]* @.str.32, i64 0, i64 0), i64 43)
  %52 = load i8*, i8** bitcast (%"class.std::basic_ostream"* @_ZSt4cout to i8**), align 8, !tbaa !27
  %53 = getelementptr i8, i8* %52, i64 -24
  %54 = bitcast i8* %53 to i64*
  %55 = load i64, i64* %54, align 8
  %56 = getelementptr inbounds i8, i8* bitcast (%"class.std::basic_ostream"* @_ZSt4cout to i8*), i64 %55
  %57 = getelementptr inbounds i8, i8* %56, i64 240
  %58 = bitcast i8* %57 to %"class.std::ctype"**
  %59 = load %"class.std::ctype"*, %"class.std::ctype"** %58, align 8, !tbaa !29
  %60 = icmp eq %"class.std::ctype"* %59, null
  br i1 %60, label %61, label %62

61:                                               ; preds = %47
  tail call void @_ZSt16__throw_bad_castv() #25
  unreachable

62:                                               ; preds = %47
  %63 = getelementptr inbounds %"class.std::ctype", %"class.std::ctype"* %59, i64 0, i32 8
  %64 = load i8, i8* %63, align 8, !tbaa !31
  %65 = icmp eq i8 %64, 0
  br i1 %65, label %69, label %66

66:                                               ; preds = %62
  %67 = getelementptr inbounds %"class.std::ctype", %"class.std::ctype"* %59, i64 0, i32 9, i64 10
  %68 = load i8, i8* %67, align 1, !tbaa !33
  br label %75

69:                                               ; preds = %62
  tail call void @_ZNKSt5ctypeIcE13_M_widen_initEv(%"class.std::ctype"* nonnull align 8 dereferenceable(570) %59)
  %70 = bitcast %"class.std::ctype"* %59 to i8 (%"class.std::ctype"*, i8)***
  %71 = load i8 (%"class.std::ctype"*, i8)**, i8 (%"class.std::ctype"*, i8)*** %70, align 8, !tbaa !27
  %72 = getelementptr inbounds i8 (%"class.std::ctype"*, i8)*, i8 (%"class.std::ctype"*, i8)** %71, i64 6
  %73 = load i8 (%"class.std::ctype"*, i8)*, i8 (%"class.std::ctype"*, i8)** %72, align 8
  %74 = tail call signext i8 %73(%"class.std::ctype"* nonnull align 8 dereferenceable(570) %59, i8 signext 10)
  br label %75

75:                                               ; preds = %66, %69
  %76 = phi i8 [ %68, %66 ], [ %74, %69 ]
  %77 = tail call nonnull align 8 dereferenceable(8) %"class.std::basic_ostream"* @_ZNSo3putEc(%"class.std::basic_ostream"* nonnull align 8 dereferenceable(8) @_ZSt4cout, i8 signext %76)
  %78 = tail call nonnull align 8 dereferenceable(8) %"class.std::basic_ostream"* @_ZNSo5flushEv(%"class.std::basic_ostream"* nonnull align 8 dereferenceable(8) %77)
  %79 = getelementptr inbounds %class.Histogram, %class.Histogram* %0, i64 0, i32 22
  %80 = load %"class.appsdk::SDKTimer"*, %"class.appsdk::SDKTimer"** %79, align 8, !tbaa !69
  %81 = tail call i32 @_ZN6appsdk8SDKTimer11createTimerEv(%"class.appsdk::SDKTimer"* nonnull align 8 dereferenceable(32) %80)
  %82 = load %"class.appsdk::SDKTimer"*, %"class.appsdk::SDKTimer"** %79, align 8, !tbaa !69
  %83 = bitcast %"class.std::basic_string"* %4 to i8*
  call void @llvm.lifetime.start.p0i8(i64 8, i8* nonnull %83)
  %84 = getelementptr inbounds %"class.appsdk::SDKTimer", %"class.appsdk::SDKTimer"* %82, i64 0, i32 0, i32 0, i32 0, i32 1
  %85 = load %"struct.appsdk::SDKTimer::Timer"**, %"struct.appsdk::SDKTimer::Timer"*** %84, align 8, !tbaa !70
  %86 = getelementptr inbounds %"class.appsdk::SDKTimer", %"class.appsdk::SDKTimer"* %82, i64 0, i32 0, i32 0, i32 0, i32 0
  %87 = load %"struct.appsdk::SDKTimer::Timer"**, %"struct.appsdk::SDKTimer::Timer"*** %86, align 8, !tbaa !73
  %88 = ptrtoint %"struct.appsdk::SDKTimer::Timer"** %85 to i64
  %89 = ptrtoint %"struct.appsdk::SDKTimer::Timer"** %87 to i64
  %90 = sub i64 %88, %89
  %91 = lshr exact i64 %90, 3
  %92 = trunc i64 %91 to i32
  %93 = icmp slt i32 %81, %92
  br i1 %93, label %120, label %94

94:                                               ; preds = %75
  %95 = getelementptr inbounds %"class.std::allocator.0", %"class.std::allocator.0"* %5, i64 0, i32 0
  call void @llvm.lifetime.start.p0i8(i64 1, i8* nonnull %95) #24
  call void @_ZNSsC1EPKcRKSaIcE(%"class.std::basic_string"* nonnull align 8 dereferenceable(8) %4, i8* getelementptr inbounds ([36 x i8], [36 x i8]* @.str.64, i64 0, i64 0), %"class.std::allocator.0"* nonnull align 1 dereferenceable(1) %5)
  invoke fastcc void @_ZN6appsdkL9sdk_errorESs(%"class.std::basic_string"* nonnull %4)
          to label %96 unwind label %118

96:                                               ; preds = %94
  %97 = getelementptr inbounds %"class.std::basic_string", %"class.std::basic_string"* %4, i64 0, i32 0, i32 0
  %98 = load i8*, i8** %97, align 8, !tbaa !23
  %99 = getelementptr inbounds i8, i8* %98, i64 -24
  %100 = bitcast i8* %99 to %"struct.std::basic_string<char>::_Rep"*
  %101 = getelementptr inbounds %"class.std::allocator.0", %"class.std::allocator.0"* %3, i64 0, i32 0
  call void @llvm.lifetime.start.p0i8(i64 1, i8* nonnull %101) #24
  %102 = icmp eq i8* %99, bitcast ([0 x i64]* @_ZNSs4_Rep20_S_empty_rep_storageE to i8*)
  br i1 %102, label %115, label %103, !prof !26

103:                                              ; preds = %96
  %104 = getelementptr inbounds i8, i8* %98, i64 -8
  %105 = bitcast i8* %104 to i32*
  br i1 icmp ne (i8* bitcast (i32 (i32*, void (i8*)*)* @__pthread_key_create to i8*), i8* null), label %106, label %108

106:                                              ; preds = %103
  %107 = atomicrmw volatile add i32* %105, i32 -1 acq_rel, align 4
  br label %111

108:                                              ; preds = %103
  %109 = load i32, i32* %105, align 8, !tbaa !16
  %110 = add nsw i32 %109, -1
  store i32 %110, i32* %105, align 8, !tbaa !16
  br label %111

111:                                              ; preds = %108, %106
  %112 = phi i32 [ %107, %106 ], [ %109, %108 ]
  %113 = icmp slt i32 %112, 1
  br i1 %113, label %114, label %115

114:                                              ; preds = %111
  call void @_ZNSs4_Rep10_M_destroyERKSaIcE(%"struct.std::basic_string<char>::_Rep"* nonnull align 8 dereferenceable(24) %100, %"class.std::allocator.0"* nonnull align 1 dereferenceable(1) %3) #24
  br label %115

115:                                              ; preds = %114, %111, %96
  call void @llvm.lifetime.end.p0i8(i64 1, i8* nonnull %101) #24
  call void @llvm.lifetime.end.p0i8(i64 1, i8* nonnull %95) #24
  br label %126

116:                                              ; preds = %180, %118
  %117 = phi { i8*, i32 } [ %119, %118 ], [ %181, %180 ]
  resume { i8*, i32 } %117

118:                                              ; preds = %94
  %119 = landingpad { i8*, i32 }
          cleanup
  call void @_ZNSsD2Ev(%"class.std::basic_string"* nonnull align 8 dereferenceable(8) %4) #24
  call void @llvm.lifetime.end.p0i8(i64 1, i8* nonnull %95) #24
  br label %116

120:                                              ; preds = %75
  %121 = sext i32 %81 to i64
  %122 = getelementptr inbounds %"struct.appsdk::SDKTimer::Timer"*, %"struct.appsdk::SDKTimer::Timer"** %87, i64 %121
  %123 = load %"struct.appsdk::SDKTimer::Timer"*, %"struct.appsdk::SDKTimer::Timer"** %122, align 8, !tbaa !3
  %124 = getelementptr inbounds %"struct.appsdk::SDKTimer::Timer", %"struct.appsdk::SDKTimer::Timer"* %123, i64 0, i32 2
  %125 = bitcast i64* %124 to i8*
  tail call void @llvm.memset.p0i8.i64(i8* noundef nonnull align 8 dereferenceable(16) %125, i8 0, i64 16, i1 false)
  br label %126

126:                                              ; preds = %115, %120
  call void @llvm.lifetime.end.p0i8(i64 8, i8* nonnull %83)
  %127 = load %"class.appsdk::SDKTimer"*, %"class.appsdk::SDKTimer"** %79, align 8, !tbaa !69
  %128 = call i32 @_ZN6appsdk8SDKTimer10startTimerEi(%"class.appsdk::SDKTimer"* nonnull align 8 dereferenceable(32) %127, i32 %81)
  %129 = load i32, i32* %8, align 8, !tbaa !68
  %130 = icmp sgt i32 %129, 0
  br i1 %130, label %131, label %137

131:                                              ; preds = %126, %131
  %132 = phi i32 [ %134, %131 ], [ 0, %126 ]
  %133 = call i32 @_ZN9Histogram10runKernelsEv(%class.Histogram* nonnull align 8 dereferenceable(144) %0)
  %134 = add nuw nsw i32 %132, 1
  %135 = load i32, i32* %8, align 8, !tbaa !68
  %136 = icmp slt i32 %134, %135
  br i1 %136, label %131, label %137, !llvm.loop !84

137:                                              ; preds = %131, %126
  %138 = load %"class.appsdk::SDKTimer"*, %"class.appsdk::SDKTimer"** %79, align 8, !tbaa !69
  %139 = call i32 @_ZN6appsdk8SDKTimer9stopTimerEi(%"class.appsdk::SDKTimer"* nonnull align 8 dereferenceable(32) %138, i32 %81)
  %140 = load %"class.appsdk::SDKTimer"*, %"class.appsdk::SDKTimer"** %79, align 8, !tbaa !69
  %141 = call contract double @_ZN6appsdk8SDKTimer9readTimerEi(%"class.appsdk::SDKTimer"* nonnull align 8 dereferenceable(32) %140, i32 %81)
  %142 = getelementptr inbounds %class.Histogram, %class.Histogram* %0, i64 0, i32 10
  store double %141, double* %142, align 8, !tbaa !85
  %143 = getelementptr inbounds %class.Histogram, %class.Histogram* %0, i64 0, i32 23
  %144 = bitcast %"class.appsdk::HIPCommandArgs"** %143 to %"class.appsdk::SDKCmdArgsParser"**
  %145 = load %"class.appsdk::SDKCmdArgsParser"*, %"class.appsdk::SDKCmdArgsParser"** %144, align 8, !tbaa !40
  %146 = getelementptr inbounds %"class.appsdk::SDKCmdArgsParser", %"class.appsdk::SDKCmdArgsParser"* %145, i64 0, i32 9
  %147 = load i8, i8* %146, align 4, !tbaa !41, !range !38
  %148 = icmp eq i8 %147, 0
  br i1 %148, label %149, label %182

149:                                              ; preds = %137
  %150 = getelementptr inbounds %"class.std::allocator.0", %"class.std::allocator.0"* %7, i64 0, i32 0
  call void @llvm.lifetime.start.p0i8(i64 1, i8* nonnull %150) #24
  invoke void @_ZNSsC1EPKcRKSaIcE(%"class.std::basic_string"* nonnull align 8 dereferenceable(8) %6, i8* getelementptr inbounds ([10 x i8], [10 x i8]* @.str.33, i64 0, i64 0), %"class.std::allocator.0"* nonnull align 1 dereferenceable(1) %7)
          to label %151 unwind label %176

151:                                              ; preds = %149
  %152 = getelementptr inbounds %class.Histogram, %class.Histogram* %0, i64 0, i32 8
  %153 = load i32*, i32** %152, align 8, !tbaa !34
  %154 = getelementptr inbounds %class.Histogram, %class.Histogram* %0, i64 0, i32 0
  %155 = load i32, i32* %154, align 8, !tbaa !20
  invoke void @_ZN6appsdk10printArrayIjEEvSsPKT_ii(%"class.std::basic_string"* nonnull %6, i32* %153, i32 %155, i32 1)
          to label %156 unwind label %178

156:                                              ; preds = %151
  %157 = getelementptr inbounds %"class.std::basic_string", %"class.std::basic_string"* %6, i64 0, i32 0, i32 0
  %158 = load i8*, i8** %157, align 8, !tbaa !23
  %159 = getelementptr inbounds i8, i8* %158, i64 -24
  %160 = bitcast i8* %159 to %"struct.std::basic_string<char>::_Rep"*
  %161 = getelementptr inbounds %"class.std::allocator.0", %"class.std::allocator.0"* %2, i64 0, i32 0
  call void @llvm.lifetime.start.p0i8(i64 1, i8* nonnull %161) #24
  %162 = icmp eq i8* %159, bitcast ([0 x i64]* @_ZNSs4_Rep20_S_empty_rep_storageE to i8*)
  br i1 %162, label %175, label %163, !prof !26

163:                                              ; preds = %156
  %164 = getelementptr inbounds i8, i8* %158, i64 -8
  %165 = bitcast i8* %164 to i32*
  br i1 icmp ne (i8* bitcast (i32 (i32*, void (i8*)*)* @__pthread_key_create to i8*), i8* null), label %166, label %168

166:                                              ; preds = %163
  %167 = atomicrmw volatile add i32* %165, i32 -1 acq_rel, align 4
  br label %171

168:                                              ; preds = %163
  %169 = load i32, i32* %165, align 8, !tbaa !16
  %170 = add nsw i32 %169, -1
  store i32 %170, i32* %165, align 8, !tbaa !16
  br label %171

171:                                              ; preds = %168, %166
  %172 = phi i32 [ %167, %166 ], [ %169, %168 ]
  %173 = icmp slt i32 %172, 1
  br i1 %173, label %174, label %175

174:                                              ; preds = %171
  call void @_ZNSs4_Rep10_M_destroyERKSaIcE(%"struct.std::basic_string<char>::_Rep"* nonnull align 8 dereferenceable(24) %160, %"class.std::allocator.0"* nonnull align 1 dereferenceable(1) %2) #24
  br label %175

175:                                              ; preds = %156, %171, %174
  call void @llvm.lifetime.end.p0i8(i64 1, i8* nonnull %161) #24
  call void @llvm.lifetime.end.p0i8(i64 1, i8* nonnull %150) #24
  br label %182

176:                                              ; preds = %149
  %177 = landingpad { i8*, i32 }
          cleanup
  br label %180

178:                                              ; preds = %151
  %179 = landingpad { i8*, i32 }
          cleanup
  call void @_ZNSsD2Ev(%"class.std::basic_string"* nonnull align 8 dereferenceable(8) %6) #24
  br label %180

180:                                              ; preds = %178, %176
  %181 = phi { i8*, i32 } [ %179, %178 ], [ %177, %176 ]
  call void @llvm.lifetime.end.p0i8(i64 1, i8* nonnull %150) #24
  br label %116

182:                                              ; preds = %175, %137
  ret i32 0
}

; Function Attrs: mustprogress uwtable
define linkonce_odr dso_local void @_ZN6appsdk10printArrayIjEEvSsPKT_ii(%"class.std::basic_string"* %0, i32* %1, i32 %2, i32 %3) local_unnamed_addr #9 comdat {
  %5 = tail call nonnull align 8 dereferenceable(8) %"class.std::basic_ostream"* @_ZSt16__ostream_insertIcSt11char_traitsIcEERSt13basic_ostreamIT_T0_ES6_PKS3_l(%"class.std::basic_ostream"* nonnull align 8 dereferenceable(8) @_ZSt4cout, i8* nonnull getelementptr inbounds ([2 x i8], [2 x i8]* @.str.84, i64 0, i64 0), i64 1)
  %6 = getelementptr inbounds %"class.std::basic_string", %"class.std::basic_string"* %0, i64 0, i32 0, i32 0
  %7 = load i8*, i8** %6, align 8, !tbaa !23
  %8 = getelementptr inbounds i8, i8* %7, i64 -24
  %9 = bitcast i8* %8 to i64*
  %10 = load i64, i64* %9, align 8, !tbaa !44
  %11 = tail call nonnull align 8 dereferenceable(8) %"class.std::basic_ostream"* @_ZSt16__ostream_insertIcSt11char_traitsIcEERSt13basic_ostreamIT_T0_ES6_PKS3_l(%"class.std::basic_ostream"* nonnull align 8 dereferenceable(8) @_ZSt4cout, i8* %7, i64 %10)
  %12 = tail call nonnull align 8 dereferenceable(8) %"class.std::basic_ostream"* @_ZSt16__ostream_insertIcSt11char_traitsIcEERSt13basic_ostreamIT_T0_ES6_PKS3_l(%"class.std::basic_ostream"* nonnull align 8 dereferenceable(8) %11, i8* nonnull getelementptr inbounds ([2 x i8], [2 x i8]* @.str.84, i64 0, i64 0), i64 1)
  %13 = icmp sgt i32 %3, 0
  br i1 %13, label %14, label %42

14:                                               ; preds = %4
  %15 = icmp sgt i32 %2, 0
  br i1 %15, label %16, label %37

16:                                               ; preds = %14
  %17 = zext i32 %2 to i64
  %18 = zext i32 %3 to i64
  %19 = zext i32 %2 to i64
  br label %20

20:                                               ; preds = %16, %33
  %21 = phi i64 [ 0, %16 ], [ %35, %33 ]
  %22 = mul nsw i64 %21, %17
  br label %23

23:                                               ; preds = %20, %23
  %24 = phi i64 [ 0, %20 ], [ %31, %23 ]
  %25 = add nuw nsw i64 %24, %22
  %26 = getelementptr inbounds i32, i32* %1, i64 %25
  %27 = load i32, i32* %26, align 4, !tbaa !16
  %28 = zext i32 %27 to i64
  %29 = tail call nonnull align 8 dereferenceable(8) %"class.std::basic_ostream"* @_ZNSo9_M_insertImEERSoT_(%"class.std::basic_ostream"* nonnull align 8 dereferenceable(8) @_ZSt4cout, i64 %28)
  %30 = tail call nonnull align 8 dereferenceable(8) %"class.std::basic_ostream"* @_ZSt16__ostream_insertIcSt11char_traitsIcEERSt13basic_ostreamIT_T0_ES6_PKS3_l(%"class.std::basic_ostream"* nonnull align 8 dereferenceable(8) %29, i8* nonnull getelementptr inbounds ([2 x i8], [2 x i8]* @.str.67, i64 0, i64 0), i64 1)
  %31 = add nuw nsw i64 %24, 1
  %32 = icmp eq i64 %31, %19
  br i1 %32, label %33, label %23, !llvm.loop !86

33:                                               ; preds = %23
  %34 = tail call nonnull align 8 dereferenceable(8) %"class.std::basic_ostream"* @_ZSt16__ostream_insertIcSt11char_traitsIcEERSt13basic_ostreamIT_T0_ES6_PKS3_l(%"class.std::basic_ostream"* nonnull align 8 dereferenceable(8) @_ZSt4cout, i8* nonnull getelementptr inbounds ([2 x i8], [2 x i8]* @.str.84, i64 0, i64 0), i64 1)
  %35 = add nuw nsw i64 %21, 1
  %36 = icmp eq i64 %35, %18
  br i1 %36, label %42, label %20, !llvm.loop !87

37:                                               ; preds = %14, %37
  %38 = phi i32 [ %40, %37 ], [ 0, %14 ]
  %39 = tail call nonnull align 8 dereferenceable(8) %"class.std::basic_ostream"* @_ZSt16__ostream_insertIcSt11char_traitsIcEERSt13basic_ostreamIT_T0_ES6_PKS3_l(%"class.std::basic_ostream"* nonnull align 8 dereferenceable(8) @_ZSt4cout, i8* nonnull getelementptr inbounds ([2 x i8], [2 x i8]* @.str.84, i64 0, i64 0), i64 1)
  %40 = add nuw nsw i32 %38, 1
  %41 = icmp eq i32 %40, %3
  br i1 %41, label %42, label %37, !llvm.loop !87

42:                                               ; preds = %37, %33, %4
  %43 = tail call nonnull align 8 dereferenceable(8) %"class.std::basic_ostream"* @_ZSt16__ostream_insertIcSt11char_traitsIcEERSt13basic_ostreamIT_T0_ES6_PKS3_l(%"class.std::basic_ostream"* nonnull align 8 dereferenceable(8) @_ZSt4cout, i8* nonnull getelementptr inbounds ([2 x i8], [2 x i8]* @.str.84, i64 0, i64 0), i64 1)
  ret void
}

; Function Attrs: uwtable
define dso_local i32 @_ZN9Histogram13verifyResultsEv(%class.Histogram* nocapture nonnull readonly align 8 dereferenceable(144) %0) local_unnamed_addr #7 align 2 personality i8* bitcast (i32 (...)* @__gxx_personality_v0 to i8*) {
  %2 = alloca %"class.std::allocator.0", align 1
  %3 = alloca %"class.std::basic_string", align 8
  %4 = alloca %"class.std::allocator.0", align 1
  %5 = getelementptr inbounds %class.Histogram, %class.Histogram* %0, i64 0, i32 23
  %6 = bitcast %"class.appsdk::HIPCommandArgs"** %5 to %"class.appsdk::SDKCmdArgsParser"**
  %7 = load %"class.appsdk::SDKCmdArgsParser"*, %"class.appsdk::SDKCmdArgsParser"** %6, align 8, !tbaa !40
  %8 = getelementptr inbounds %"class.appsdk::SDKCmdArgsParser", %"class.appsdk::SDKCmdArgsParser"* %7, i64 0, i32 10
  %9 = load i8, i8* %8, align 1, !tbaa !88, !range !38
  %10 = icmp eq i8 %9, 0
  br i1 %10, label %149, label %11

11:                                               ; preds = %1
  %12 = getelementptr inbounds %class.Histogram, %class.Histogram* %0, i64 0, i32 5
  %13 = getelementptr inbounds %class.Histogram, %class.Histogram* %0, i64 0, i32 4
  %14 = getelementptr inbounds %class.Histogram, %class.Histogram* %0, i64 0, i32 6
  %15 = getelementptr inbounds %class.Histogram, %class.Histogram* %0, i64 0, i32 3
  %16 = load i32, i32* %12, align 4, !tbaa !7
  %17 = icmp sgt i32 %16, 0
  %18 = load i32, i32* %13, align 8
  %19 = icmp sgt i32 %18, 0
  %20 = select i1 %17, i1 %19, i1 false
  br i1 %20, label %21, label %50

21:                                               ; preds = %11, %30
  %22 = phi i32 [ %31, %30 ], [ %16, %11 ]
  %23 = phi i32 [ %32, %30 ], [ %18, %11 ]
  %24 = phi i32 [ %33, %30 ], [ 0, %11 ]
  %25 = load i32*, i32** %14, align 8
  %26 = load i32*, i32** %15, align 8
  %27 = icmp sgt i32 %23, 0
  br i1 %27, label %35, label %30

28:                                               ; preds = %35
  %29 = load i32, i32* %12, align 4, !tbaa !7
  br label %30

30:                                               ; preds = %28, %21
  %31 = phi i32 [ %29, %28 ], [ %22, %21 ]
  %32 = phi i32 [ %48, %28 ], [ %23, %21 ]
  %33 = add nuw nsw i32 %24, 1
  %34 = icmp slt i32 %33, %31
  br i1 %34, label %21, label %50, !llvm.loop !13

35:                                               ; preds = %21, %35
  %36 = phi i32 [ %48, %35 ], [ %23, %21 ]
  %37 = phi i32 [ %47, %35 ], [ 0, %21 ]
  %38 = mul nsw i32 %36, %24
  %39 = add nsw i32 %38, %37
  %40 = sext i32 %39 to i64
  %41 = getelementptr inbounds i32, i32* %26, i64 %40
  %42 = load i32, i32* %41, align 4, !tbaa !16
  %43 = zext i32 %42 to i64
  %44 = getelementptr inbounds i32, i32* %25, i64 %43
  %45 = load i32, i32* %44, align 4, !tbaa !16
  %46 = add i32 %45, 1
  store i32 %46, i32* %44, align 4, !tbaa !16
  %47 = add nuw nsw i32 %37, 1
  %48 = load i32, i32* %13, align 8, !tbaa !17
  %49 = icmp slt i32 %47, %48
  br i1 %49, label %35, label %28, !llvm.loop !18

50:                                               ; preds = %30, %11
  %51 = getelementptr inbounds %"class.std::allocator.0", %"class.std::allocator.0"* %4, i64 0, i32 0
  call void @llvm.lifetime.start.p0i8(i64 1, i8* nonnull %51) #24
  call void @_ZNSsC1EPKcRKSaIcE(%"class.std::basic_string"* nonnull align 8 dereferenceable(8) %3, i8* getelementptr inbounds ([8 x i8], [8 x i8]* @.str.34, i64 0, i64 0), %"class.std::allocator.0"* nonnull align 1 dereferenceable(1) %4)
  %52 = load i32*, i32** %14, align 8, !tbaa !22
  %53 = getelementptr inbounds %class.Histogram, %class.Histogram* %0, i64 0, i32 0
  %54 = load i32, i32* %53, align 8, !tbaa !20
  invoke void @_ZN6appsdk10printArrayIjEEvSsPKT_ii(%"class.std::basic_string"* nonnull %3, i32* %52, i32 %54, i32 1)
          to label %55 unwind label %84

55:                                               ; preds = %50
  %56 = getelementptr inbounds %"class.std::basic_string", %"class.std::basic_string"* %3, i64 0, i32 0, i32 0
  %57 = load i8*, i8** %56, align 8, !tbaa !23
  %58 = getelementptr inbounds i8, i8* %57, i64 -24
  %59 = bitcast i8* %58 to %"struct.std::basic_string<char>::_Rep"*
  %60 = getelementptr inbounds %"class.std::allocator.0", %"class.std::allocator.0"* %2, i64 0, i32 0
  call void @llvm.lifetime.start.p0i8(i64 1, i8* nonnull %60) #24
  %61 = icmp eq i8* %58, bitcast ([0 x i64]* @_ZNSs4_Rep20_S_empty_rep_storageE to i8*)
  br i1 %61, label %74, label %62, !prof !26

62:                                               ; preds = %55
  %63 = getelementptr inbounds i8, i8* %57, i64 -8
  %64 = bitcast i8* %63 to i32*
  br i1 icmp ne (i8* bitcast (i32 (i32*, void (i8*)*)* @__pthread_key_create to i8*), i8* null), label %65, label %67

65:                                               ; preds = %62
  %66 = atomicrmw volatile add i32* %64, i32 -1 acq_rel, align 4
  br label %70

67:                                               ; preds = %62
  %68 = load i32, i32* %64, align 8, !tbaa !16
  %69 = add nsw i32 %68, -1
  store i32 %69, i32* %64, align 8, !tbaa !16
  br label %70

70:                                               ; preds = %67, %65
  %71 = phi i32 [ %66, %65 ], [ %68, %67 ]
  %72 = icmp slt i32 %71, 1
  br i1 %72, label %73, label %74

73:                                               ; preds = %70
  call void @_ZNSs4_Rep10_M_destroyERKSaIcE(%"struct.std::basic_string<char>::_Rep"* nonnull align 8 dereferenceable(24) %59, %"class.std::allocator.0"* nonnull align 1 dereferenceable(1) %2) #24
  br label %74

74:                                               ; preds = %55, %70, %73
  call void @llvm.lifetime.end.p0i8(i64 1, i8* nonnull %60) #24
  call void @llvm.lifetime.end.p0i8(i64 1, i8* nonnull %51) #24
  %75 = load i32, i32* %53, align 8, !tbaa !20
  %76 = load i32*, i32** %14, align 8
  %77 = getelementptr inbounds %class.Histogram, %class.Histogram* %0, i64 0, i32 8
  %78 = load i32*, i32** %77, align 8
  %79 = icmp sgt i32 %75, 0
  br i1 %79, label %80, label %94

80:                                               ; preds = %74
  %81 = zext i32 %75 to i64
  br label %86

82:                                               ; preds = %86
  %83 = icmp eq i64 %93, %81
  br i1 %83, label %94, label %86, !llvm.loop !89

84:                                               ; preds = %50
  %85 = landingpad { i8*, i32 }
          cleanup
  call void @_ZNSsD2Ev(%"class.std::basic_string"* nonnull align 8 dereferenceable(8) %3) #24
  call void @llvm.lifetime.end.p0i8(i64 1, i8* nonnull %51) #24
  resume { i8*, i32 } %85

86:                                               ; preds = %80, %82
  %87 = phi i64 [ 0, %80 ], [ %93, %82 ]
  %88 = getelementptr inbounds i32, i32* %76, i64 %87
  %89 = load i32, i32* %88, align 4, !tbaa !16
  %90 = getelementptr inbounds i32, i32* %78, i64 %87
  %91 = load i32, i32* %90, align 4, !tbaa !16
  %92 = icmp eq i32 %89, %91
  %93 = add nuw nsw i64 %87, 1
  br i1 %92, label %82, label %119

94:                                               ; preds = %82, %74
  %95 = call nonnull align 8 dereferenceable(8) %"class.std::basic_ostream"* @_ZSt16__ostream_insertIcSt11char_traitsIcEERSt13basic_ostreamIT_T0_ES6_PKS3_l(%"class.std::basic_ostream"* nonnull align 8 dereferenceable(8) @_ZSt4cout, i8* nonnull getelementptr inbounds ([9 x i8], [9 x i8]* @.str.35, i64 0, i64 0), i64 8)
  %96 = load i8*, i8** bitcast (%"class.std::basic_ostream"* @_ZSt4cout to i8**), align 8, !tbaa !27
  %97 = getelementptr i8, i8* %96, i64 -24
  %98 = bitcast i8* %97 to i64*
  %99 = load i64, i64* %98, align 8
  %100 = getelementptr inbounds i8, i8* bitcast (%"class.std::basic_ostream"* @_ZSt4cout to i8*), i64 %99
  %101 = getelementptr inbounds i8, i8* %100, i64 240
  %102 = bitcast i8* %101 to %"class.std::ctype"**
  %103 = load %"class.std::ctype"*, %"class.std::ctype"** %102, align 8, !tbaa !29
  %104 = icmp eq %"class.std::ctype"* %103, null
  br i1 %104, label %105, label %106

105:                                              ; preds = %94
  call void @_ZSt16__throw_bad_castv() #25
  unreachable

106:                                              ; preds = %94
  %107 = getelementptr inbounds %"class.std::ctype", %"class.std::ctype"* %103, i64 0, i32 8
  %108 = load i8, i8* %107, align 8, !tbaa !31
  %109 = icmp eq i8 %108, 0
  br i1 %109, label %113, label %110

110:                                              ; preds = %106
  %111 = getelementptr inbounds %"class.std::ctype", %"class.std::ctype"* %103, i64 0, i32 9, i64 10
  %112 = load i8, i8* %111, align 1, !tbaa !33
  br label %144

113:                                              ; preds = %106
  call void @_ZNKSt5ctypeIcE13_M_widen_initEv(%"class.std::ctype"* nonnull align 8 dereferenceable(570) %103)
  %114 = bitcast %"class.std::ctype"* %103 to i8 (%"class.std::ctype"*, i8)***
  %115 = load i8 (%"class.std::ctype"*, i8)**, i8 (%"class.std::ctype"*, i8)*** %114, align 8, !tbaa !27
  %116 = getelementptr inbounds i8 (%"class.std::ctype"*, i8)*, i8 (%"class.std::ctype"*, i8)** %115, i64 6
  %117 = load i8 (%"class.std::ctype"*, i8)*, i8 (%"class.std::ctype"*, i8)** %116, align 8
  %118 = call signext i8 %117(%"class.std::ctype"* nonnull align 8 dereferenceable(570) %103, i8 signext 10)
  br label %144

119:                                              ; preds = %86
  %120 = call nonnull align 8 dereferenceable(8) %"class.std::basic_ostream"* @_ZSt16__ostream_insertIcSt11char_traitsIcEERSt13basic_ostreamIT_T0_ES6_PKS3_l(%"class.std::basic_ostream"* nonnull align 8 dereferenceable(8) @_ZSt4cout, i8* nonnull getelementptr inbounds ([8 x i8], [8 x i8]* @.str.36, i64 0, i64 0), i64 7)
  %121 = load i8*, i8** bitcast (%"class.std::basic_ostream"* @_ZSt4cout to i8**), align 8, !tbaa !27
  %122 = getelementptr i8, i8* %121, i64 -24
  %123 = bitcast i8* %122 to i64*
  %124 = load i64, i64* %123, align 8
  %125 = getelementptr inbounds i8, i8* bitcast (%"class.std::basic_ostream"* @_ZSt4cout to i8*), i64 %124
  %126 = getelementptr inbounds i8, i8* %125, i64 240
  %127 = bitcast i8* %126 to %"class.std::ctype"**
  %128 = load %"class.std::ctype"*, %"class.std::ctype"** %127, align 8, !tbaa !29
  %129 = icmp eq %"class.std::ctype"* %128, null
  br i1 %129, label %130, label %131

130:                                              ; preds = %119
  call void @_ZSt16__throw_bad_castv() #25
  unreachable

131:                                              ; preds = %119
  %132 = getelementptr inbounds %"class.std::ctype", %"class.std::ctype"* %128, i64 0, i32 8
  %133 = load i8, i8* %132, align 8, !tbaa !31
  %134 = icmp eq i8 %133, 0
  br i1 %134, label %138, label %135

135:                                              ; preds = %131
  %136 = getelementptr inbounds %"class.std::ctype", %"class.std::ctype"* %128, i64 0, i32 9, i64 10
  %137 = load i8, i8* %136, align 1, !tbaa !33
  br label %144

138:                                              ; preds = %131
  call void @_ZNKSt5ctypeIcE13_M_widen_initEv(%"class.std::ctype"* nonnull align 8 dereferenceable(570) %128)
  %139 = bitcast %"class.std::ctype"* %128 to i8 (%"class.std::ctype"*, i8)***
  %140 = load i8 (%"class.std::ctype"*, i8)**, i8 (%"class.std::ctype"*, i8)*** %139, align 8, !tbaa !27
  %141 = getelementptr inbounds i8 (%"class.std::ctype"*, i8)*, i8 (%"class.std::ctype"*, i8)** %140, i64 6
  %142 = load i8 (%"class.std::ctype"*, i8)*, i8 (%"class.std::ctype"*, i8)** %141, align 8
  %143 = call signext i8 %142(%"class.std::ctype"* nonnull align 8 dereferenceable(570) %128, i8 signext 10)
  br label %144

144:                                              ; preds = %138, %135, %113, %110
  %145 = phi i8 [ %112, %110 ], [ %118, %113 ], [ %137, %135 ], [ %143, %138 ]
  %146 = phi i32 [ 0, %110 ], [ 0, %113 ], [ 1, %135 ], [ 1, %138 ]
  %147 = call nonnull align 8 dereferenceable(8) %"class.std::basic_ostream"* @_ZNSo3putEc(%"class.std::basic_ostream"* nonnull align 8 dereferenceable(8) @_ZSt4cout, i8 signext %145)
  %148 = call nonnull align 8 dereferenceable(8) %"class.std::basic_ostream"* @_ZNSo5flushEv(%"class.std::basic_ostream"* nonnull align 8 dereferenceable(8) %147)
  br label %149

149:                                              ; preds = %144, %1
  %150 = phi i32 [ 0, %1 ], [ %146, %144 ]
  ret i32 %150
}

; Function Attrs: uwtable
define dso_local void @_ZN9Histogram10printStatsEv(%class.Histogram* nocapture nonnull readonly align 8 dereferenceable(144) %0) local_unnamed_addr #7 align 2 personality i8* bitcast (i32 (...)* @__gxx_personality_v0 to i8*) {
  %2 = alloca %"class.std::allocator.0", align 1
  %3 = alloca %"class.std::allocator.0", align 1
  %4 = alloca %"class.std::allocator.0", align 1
  %5 = alloca %"class.std::allocator.0", align 1
  %6 = alloca %"class.std::basic_ostringstream", align 8
  %7 = alloca %"class.std::allocator.0", align 1
  %8 = alloca %"class.std::allocator.0", align 1
  %9 = alloca %"class.std::basic_ostringstream", align 8
  %10 = alloca %"class.std::allocator.0", align 1
  %11 = alloca %"class.std::allocator.0", align 1
  %12 = alloca %"class.std::basic_ostringstream", align 8
  %13 = alloca %"class.std::allocator.0", align 1
  %14 = alloca %"class.std::allocator.0", align 1
  %15 = alloca %"class.std::basic_ostringstream", align 8
  %16 = alloca %"class.std::allocator.0", align 1
  %17 = alloca %"class.std::allocator.0", align 1
  %18 = alloca %"class.std::basic_ostringstream", align 8
  %19 = alloca [5 x %"class.std::basic_string"], align 16
  %20 = alloca %"class.std::allocator.0", align 1
  %21 = alloca %"class.std::allocator.0", align 1
  %22 = alloca %"class.std::allocator.0", align 1
  %23 = alloca %"class.std::allocator.0", align 1
  %24 = alloca %"class.std::allocator.0", align 1
  %25 = alloca [5 x %"class.std::basic_string"], align 16
  %26 = alloca %"class.std::basic_string", align 8
  %27 = alloca %"class.std::basic_string", align 8
  %28 = alloca %"class.std::basic_string", align 8
  %29 = alloca %"class.std::basic_string", align 8
  %30 = alloca %"class.std::basic_string", align 8
  %31 = getelementptr inbounds %class.Histogram, %class.Histogram* %0, i64 0, i32 23
  %32 = bitcast %"class.appsdk::HIPCommandArgs"** %31 to %"class.appsdk::SDKCmdArgsParser"**
  %33 = load %"class.appsdk::SDKCmdArgsParser"*, %"class.appsdk::SDKCmdArgsParser"** %32, align 8, !tbaa !40
  %34 = getelementptr inbounds %"class.appsdk::SDKCmdArgsParser", %"class.appsdk::SDKCmdArgsParser"* %33, i64 0, i32 11
  %35 = load i8, i8* %34, align 2, !tbaa !90, !range !38
  %36 = icmp eq i8 %35, 0
  br i1 %36, label %1208, label %37

37:                                               ; preds = %1
  %38 = getelementptr inbounds %class.Histogram, %class.Histogram* %0, i64 0, i32 10
  %39 = load double, double* %38, align 8, !tbaa !85
  %40 = getelementptr inbounds %class.Histogram, %class.Histogram* %0, i64 0, i32 15
  %41 = load i32, i32* %40, align 8, !tbaa !68
  %42 = sitofp i32 %41 to double
  %43 = fdiv contract double %39, %42
  %44 = bitcast [5 x %"class.std::basic_string"]* %19 to i8*
  call void @llvm.lifetime.start.p0i8(i64 40, i8* nonnull %44) #24
  %45 = getelementptr inbounds [5 x %"class.std::basic_string"], [5 x %"class.std::basic_string"]* %19, i64 0, i64 0
  %46 = getelementptr inbounds %"class.std::allocator.0", %"class.std::allocator.0"* %20, i64 0, i32 0
  call void @llvm.lifetime.start.p0i8(i64 1, i8* nonnull %46) #24
  call void @_ZNSsC1EPKcRKSaIcE(%"class.std::basic_string"* nonnull align 8 dereferenceable(8) %45, i8* getelementptr inbounds ([6 x i8], [6 x i8]* @.str.37, i64 0, i64 0), %"class.std::allocator.0"* nonnull align 1 dereferenceable(1) %20)
  %47 = getelementptr inbounds [5 x %"class.std::basic_string"], [5 x %"class.std::basic_string"]* %19, i64 0, i64 1
  %48 = getelementptr inbounds %"class.std::allocator.0", %"class.std::allocator.0"* %21, i64 0, i32 0
  call void @llvm.lifetime.start.p0i8(i64 1, i8* nonnull %48) #24
  invoke void @_ZNSsC1EPKcRKSaIcE(%"class.std::basic_string"* nonnull align 8 dereferenceable(8) %47, i8* getelementptr inbounds ([7 x i8], [7 x i8]* @.str.38, i64 0, i64 0), %"class.std::allocator.0"* nonnull align 1 dereferenceable(1) %21)
          to label %49 unwind label %1131

49:                                               ; preds = %37
  %50 = getelementptr inbounds [5 x %"class.std::basic_string"], [5 x %"class.std::basic_string"]* %19, i64 0, i64 2
  %51 = getelementptr inbounds %"class.std::allocator.0", %"class.std::allocator.0"* %22, i64 0, i32 0
  call void @llvm.lifetime.start.p0i8(i64 1, i8* nonnull %51) #24
  invoke void @_ZNSsC1EPKcRKSaIcE(%"class.std::basic_string"* nonnull align 8 dereferenceable(8) %50, i8* getelementptr inbounds ([16 x i8], [16 x i8]* @.str.39, i64 0, i64 0), %"class.std::allocator.0"* nonnull align 1 dereferenceable(1) %22)
          to label %52 unwind label %1133

52:                                               ; preds = %49
  %53 = getelementptr inbounds [5 x %"class.std::basic_string"], [5 x %"class.std::basic_string"]* %19, i64 0, i64 3
  %54 = getelementptr inbounds %"class.std::allocator.0", %"class.std::allocator.0"* %23, i64 0, i32 0
  call void @llvm.lifetime.start.p0i8(i64 1, i8* nonnull %54) #24
  invoke void @_ZNSsC1EPKcRKSaIcE(%"class.std::basic_string"* nonnull align 8 dereferenceable(8) %53, i8* getelementptr inbounds ([23 x i8], [23 x i8]* @.str.40, i64 0, i64 0), %"class.std::allocator.0"* nonnull align 1 dereferenceable(1) %23)
          to label %55 unwind label %1135

55:                                               ; preds = %52
  %56 = getelementptr inbounds [5 x %"class.std::basic_string"], [5 x %"class.std::basic_string"]* %19, i64 0, i64 4
  %57 = getelementptr inbounds %"class.std::allocator.0", %"class.std::allocator.0"* %24, i64 0, i32 0
  call void @llvm.lifetime.start.p0i8(i64 1, i8* nonnull %57) #24
  invoke void @_ZNSsC1EPKcRKSaIcE(%"class.std::basic_string"* nonnull align 8 dereferenceable(8) %56, i8* getelementptr inbounds ([13 x i8], [13 x i8]* @.str.41, i64 0, i64 0), %"class.std::allocator.0"* nonnull align 1 dereferenceable(1) %24)
          to label %58 unwind label %1137

58:                                               ; preds = %55
  call void @llvm.lifetime.end.p0i8(i64 1, i8* nonnull %57) #24
  call void @llvm.lifetime.end.p0i8(i64 1, i8* nonnull %54) #24
  call void @llvm.lifetime.end.p0i8(i64 1, i8* nonnull %51) #24
  call void @llvm.lifetime.end.p0i8(i64 1, i8* nonnull %48) #24
  call void @llvm.lifetime.end.p0i8(i64 1, i8* nonnull %46) #24
  %59 = bitcast [5 x %"class.std::basic_string"]* %25 to i8*
  call void @llvm.lifetime.start.p0i8(i64 40, i8* nonnull %59) #24
  %60 = getelementptr inbounds [5 x %"class.std::basic_string"], [5 x %"class.std::basic_string"]* %25, i64 0, i64 0
  %61 = getelementptr inbounds [5 x %"class.std::basic_string"], [5 x %"class.std::basic_string"]* %25, i64 0, i64 0, i32 0, i32 0
  store i8* bitcast (i64* getelementptr inbounds ([0 x i64], [0 x i64]* @_ZNSs4_Rep20_S_empty_rep_storageE, i64 0, i64 3) to i8*), i8** %61, align 16, !tbaa !60
  %62 = getelementptr inbounds [5 x %"class.std::basic_string"], [5 x %"class.std::basic_string"]* %25, i64 0, i64 1, i32 0, i32 0
  store i8* bitcast (i64* getelementptr inbounds ([0 x i64], [0 x i64]* @_ZNSs4_Rep20_S_empty_rep_storageE, i64 0, i64 3) to i8*), i8** %62, align 8, !tbaa !60
  %63 = getelementptr inbounds [5 x %"class.std::basic_string"], [5 x %"class.std::basic_string"]* %25, i64 0, i64 2, i32 0, i32 0
  store i8* bitcast (i64* getelementptr inbounds ([0 x i64], [0 x i64]* @_ZNSs4_Rep20_S_empty_rep_storageE, i64 0, i64 3) to i8*), i8** %63, align 16, !tbaa !60
  %64 = getelementptr inbounds [5 x %"class.std::basic_string"], [5 x %"class.std::basic_string"]* %25, i64 0, i64 3, i32 0, i32 0
  store i8* bitcast (i64* getelementptr inbounds ([0 x i64], [0 x i64]* @_ZNSs4_Rep20_S_empty_rep_storageE, i64 0, i64 3) to i8*), i8** %64, align 8, !tbaa !60
  %65 = getelementptr inbounds [5 x %"class.std::basic_string"], [5 x %"class.std::basic_string"]* %25, i64 0, i64 4, i32 0, i32 0
  store i8* bitcast (i64* getelementptr inbounds ([0 x i64], [0 x i64]* @_ZNSs4_Rep20_S_empty_rep_storageE, i64 0, i64 3) to i8*), i8** %65, align 16, !tbaa !60
  %66 = bitcast %"class.std::basic_string"* %26 to i8*
  call void @llvm.lifetime.start.p0i8(i64 8, i8* nonnull %66) #24
  %67 = getelementptr inbounds %class.Histogram, %class.Histogram* %0, i64 0, i32 4
  %68 = load i32, i32* %67, align 8, !tbaa !17
  %69 = bitcast %"class.std::basic_ostringstream"* %18 to i8*
  call void @llvm.lifetime.start.p0i8(i64 352, i8* nonnull %69) #24, !noalias !91
  invoke void @_ZNSt19basic_ostringstreamIcSt11char_traitsIcESaIcEEC1ESt13_Ios_Openmode(%"class.std::basic_ostringstream"* nonnull align 8 dereferenceable(88) %18, i32 16)
          to label %70 unwind label %1152

70:                                               ; preds = %58
  %71 = bitcast %"class.std::basic_ostringstream"* %18 to i8**
  %72 = load i8*, i8** %71, align 8, !tbaa !27, !noalias !91
  %73 = getelementptr i8, i8* %72, i64 -24
  %74 = bitcast i8* %73 to i64*
  %75 = load i64, i64* %74, align 8, !noalias !91
  %76 = getelementptr inbounds i8, i8* %69, i64 %75
  %77 = getelementptr inbounds i8, i8* %76, i64 24
  %78 = bitcast i8* %77 to i32*
  %79 = load i32, i32* %78, align 8, !tbaa !94, !noalias !91
  %80 = and i32 %79, -75
  %81 = or i32 %80, 2
  store i32 %81, i32* %78, align 8, !tbaa !100, !noalias !91
  %82 = bitcast %"class.std::basic_ostringstream"* %18 to %"class.std::basic_ostream"*
  %83 = invoke nonnull align 8 dereferenceable(8) %"class.std::basic_ostream"* @_ZNSolsEi(%"class.std::basic_ostream"* nonnull align 8 dereferenceable(8) %82, i32 %68)
          to label %84 unwind label %114, !noalias !91

84:                                               ; preds = %70
  %85 = getelementptr inbounds %"class.std::basic_ostringstream", %"class.std::basic_ostringstream"* %18, i64 0, i32 1
  invoke void @_ZNKSt15basic_stringbufIcSt11char_traitsIcESaIcEE3strEv(%"class.std::basic_string"* nonnull sret(%"class.std::basic_string") align 8 %26, %"class.std::basic_stringbuf"* nonnull align 8 dereferenceable(80) %85)
          to label %86 unwind label %114

86:                                               ; preds = %84
  %87 = load i32 (...)**, i32 (...)*** bitcast ([4 x i8*]* @_ZTTSt19basic_ostringstreamIcSt11char_traitsIcESaIcEE to i32 (...)***), align 8
  %88 = getelementptr inbounds %"class.std::basic_ostringstream", %"class.std::basic_ostringstream"* %18, i64 0, i32 0, i32 0
  store i32 (...)** %87, i32 (...)*** %88, align 8, !tbaa !27, !noalias !91
  %89 = load i32 (...)**, i32 (...)*** bitcast (i8** getelementptr inbounds ([4 x i8*], [4 x i8*]* @_ZTTSt19basic_ostringstreamIcSt11char_traitsIcESaIcEE, i64 0, i64 3) to i32 (...)***), align 8
  %90 = getelementptr i32 (...)*, i32 (...)** %87, i64 -3
  %91 = bitcast i32 (...)** %90 to i64*
  %92 = load i64, i64* %91, align 8
  %93 = getelementptr inbounds i8, i8* %69, i64 %92
  %94 = bitcast i8* %93 to i32 (...)***
  store i32 (...)** %89, i32 (...)*** %94, align 8, !tbaa !27, !noalias !91
  %95 = getelementptr inbounds %"class.std::basic_ostringstream", %"class.std::basic_ostringstream"* %18, i64 0, i32 1, i32 0, i32 0
  store i32 (...)** bitcast (i8** getelementptr inbounds ({ [16 x i8*] }, { [16 x i8*] }* @_ZTVSt15basic_stringbufIcSt11char_traitsIcESaIcEE, i64 0, inrange i32 0, i64 2) to i32 (...)**), i32 (...)*** %95, align 8, !tbaa !27, !noalias !91
  %96 = getelementptr inbounds %"class.std::basic_ostringstream", %"class.std::basic_ostringstream"* %18, i64 0, i32 1, i32 2, i32 0, i32 0
  %97 = load i8*, i8** %96, align 8, !tbaa !23, !noalias !91
  %98 = getelementptr inbounds i8, i8* %97, i64 -24
  %99 = bitcast i8* %98 to %"struct.std::basic_string<char>::_Rep"*
  %100 = getelementptr inbounds %"class.std::allocator.0", %"class.std::allocator.0"* %17, i64 0, i32 0
  call void @llvm.lifetime.start.p0i8(i64 1, i8* nonnull %100) #24, !noalias !91
  %101 = icmp eq i8* %98, bitcast ([0 x i64]* @_ZNSs4_Rep20_S_empty_rep_storageE to i8*)
  br i1 %101, label %116, label %102, !prof !26

102:                                              ; preds = %86
  %103 = getelementptr inbounds i8, i8* %97, i64 -8
  %104 = bitcast i8* %103 to i32*
  br i1 icmp ne (i8* bitcast (i32 (i32*, void (i8*)*)* @__pthread_key_create to i8*), i8* null), label %105, label %107

105:                                              ; preds = %102
  %106 = atomicrmw volatile add i32* %104, i32 -1 acq_rel, align 4
  br label %110

107:                                              ; preds = %102
  %108 = load i32, i32* %104, align 8, !tbaa !16
  %109 = add nsw i32 %108, -1
  store i32 %109, i32* %104, align 8, !tbaa !16
  br label %110

110:                                              ; preds = %107, %105
  %111 = phi i32 [ %106, %105 ], [ %108, %107 ]
  %112 = icmp slt i32 %111, 1
  br i1 %112, label %113, label %116

113:                                              ; preds = %110
  call void @_ZNSs4_Rep10_M_destroyERKSaIcE(%"struct.std::basic_string<char>::_Rep"* nonnull align 8 dereferenceable(24) %99, %"class.std::allocator.0"* nonnull align 1 dereferenceable(1) %17) #24
  br label %116

114:                                              ; preds = %84, %70
  %115 = landingpad { i8*, i32 }
          cleanup
  call void @_ZNSt19basic_ostringstreamIcSt11char_traitsIcESaIcEED1Ev(%"class.std::basic_ostringstream"* nonnull align 8 dereferenceable(88) %18) #24
  call void @llvm.lifetime.end.p0i8(i64 352, i8* nonnull %69) #24, !noalias !91
  br label %1156

116:                                              ; preds = %113, %110, %86
  call void @llvm.lifetime.end.p0i8(i64 1, i8* nonnull %100) #24, !noalias !91
  store i32 (...)** bitcast (i8** getelementptr inbounds ({ [16 x i8*] }, { [16 x i8*] }* @_ZTVSt15basic_streambufIcSt11char_traitsIcEE, i64 0, inrange i32 0, i64 2) to i32 (...)**), i32 (...)*** %95, align 8, !tbaa !27, !noalias !91
  %117 = getelementptr inbounds %"class.std::basic_ostringstream", %"class.std::basic_ostringstream"* %18, i64 0, i32 1, i32 0, i32 7
  call void @_ZNSt6localeD1Ev(%"class.std::locale"* nonnull align 8 dereferenceable(8) %117) #24
  %118 = getelementptr inbounds %"class.std::basic_ostringstream", %"class.std::basic_ostringstream"* %18, i64 0, i32 2, i32 0
  call void @_ZNSt8ios_baseD2Ev(%"class.std::ios_base"* nonnull align 8 dereferenceable(216) %118) #24
  call void @llvm.lifetime.end.p0i8(i64 352, i8* nonnull %69) #24, !noalias !91
  invoke void @_ZNSs4swapERSs(%"class.std::basic_string"* nonnull align 8 dereferenceable(8) %60, %"class.std::basic_string"* nonnull align 8 dereferenceable(8) %26)
          to label %119 unwind label %1154

119:                                              ; preds = %116
  %120 = getelementptr inbounds %"class.std::basic_string", %"class.std::basic_string"* %26, i64 0, i32 0, i32 0
  %121 = load i8*, i8** %120, align 8, !tbaa !23
  %122 = getelementptr inbounds i8, i8* %121, i64 -24
  %123 = bitcast i8* %122 to %"struct.std::basic_string<char>::_Rep"*
  %124 = getelementptr inbounds %"class.std::allocator.0", %"class.std::allocator.0"* %16, i64 0, i32 0
  call void @llvm.lifetime.start.p0i8(i64 1, i8* nonnull %124) #24
  %125 = icmp eq i8* %122, bitcast ([0 x i64]* @_ZNSs4_Rep20_S_empty_rep_storageE to i8*)
  br i1 %125, label %138, label %126, !prof !26

126:                                              ; preds = %119
  %127 = getelementptr inbounds i8, i8* %121, i64 -8
  %128 = bitcast i8* %127 to i32*
  br i1 icmp ne (i8* bitcast (i32 (i32*, void (i8*)*)* @__pthread_key_create to i8*), i8* null), label %129, label %131

129:                                              ; preds = %126
  %130 = atomicrmw volatile add i32* %128, i32 -1 acq_rel, align 4
  br label %134

131:                                              ; preds = %126
  %132 = load i32, i32* %128, align 8, !tbaa !16
  %133 = add nsw i32 %132, -1
  store i32 %133, i32* %128, align 8, !tbaa !16
  br label %134

134:                                              ; preds = %131, %129
  %135 = phi i32 [ %130, %129 ], [ %132, %131 ]
  %136 = icmp slt i32 %135, 1
  br i1 %136, label %137, label %138

137:                                              ; preds = %134
  call void @_ZNSs4_Rep10_M_destroyERKSaIcE(%"struct.std::basic_string<char>::_Rep"* nonnull align 8 dereferenceable(24) %123, %"class.std::allocator.0"* nonnull align 1 dereferenceable(1) %16) #24
  br label %138

138:                                              ; preds = %119, %134, %137
  call void @llvm.lifetime.end.p0i8(i64 1, i8* nonnull %124) #24
  call void @llvm.lifetime.end.p0i8(i64 8, i8* nonnull %66) #24
  %139 = bitcast %"class.std::basic_string"* %27 to i8*
  call void @llvm.lifetime.start.p0i8(i64 8, i8* nonnull %139) #24
  %140 = getelementptr inbounds %class.Histogram, %class.Histogram* %0, i64 0, i32 5
  %141 = load i32, i32* %140, align 4, !tbaa !7
  %142 = bitcast %"class.std::basic_ostringstream"* %15 to i8*
  call void @llvm.lifetime.start.p0i8(i64 352, i8* nonnull %142) #24, !noalias !101
  invoke void @_ZNSt19basic_ostringstreamIcSt11char_traitsIcESaIcEEC1ESt13_Ios_Openmode(%"class.std::basic_ostringstream"* nonnull align 8 dereferenceable(88) %15, i32 16)
          to label %143 unwind label %1158

143:                                              ; preds = %138
  %144 = bitcast %"class.std::basic_ostringstream"* %15 to i8**
  %145 = load i8*, i8** %144, align 8, !tbaa !27, !noalias !101
  %146 = getelementptr i8, i8* %145, i64 -24
  %147 = bitcast i8* %146 to i64*
  %148 = load i64, i64* %147, align 8, !noalias !101
  %149 = getelementptr inbounds i8, i8* %142, i64 %148
  %150 = getelementptr inbounds i8, i8* %149, i64 24
  %151 = bitcast i8* %150 to i32*
  %152 = load i32, i32* %151, align 8, !tbaa !94, !noalias !101
  %153 = and i32 %152, -75
  %154 = or i32 %153, 2
  store i32 %154, i32* %151, align 8, !tbaa !100, !noalias !101
  %155 = bitcast %"class.std::basic_ostringstream"* %15 to %"class.std::basic_ostream"*
  %156 = invoke nonnull align 8 dereferenceable(8) %"class.std::basic_ostream"* @_ZNSolsEi(%"class.std::basic_ostream"* nonnull align 8 dereferenceable(8) %155, i32 %141)
          to label %157 unwind label %183, !noalias !101

157:                                              ; preds = %143
  %158 = getelementptr inbounds %"class.std::basic_ostringstream", %"class.std::basic_ostringstream"* %15, i64 0, i32 1
  invoke void @_ZNKSt15basic_stringbufIcSt11char_traitsIcESaIcEE3strEv(%"class.std::basic_string"* nonnull sret(%"class.std::basic_string") align 8 %27, %"class.std::basic_stringbuf"* nonnull align 8 dereferenceable(80) %158)
          to label %159 unwind label %183

159:                                              ; preds = %157
  %160 = getelementptr inbounds %"class.std::basic_ostringstream", %"class.std::basic_ostringstream"* %15, i64 0, i32 0, i32 0
  store i32 (...)** %87, i32 (...)*** %160, align 8, !tbaa !27, !noalias !101
  %161 = load i64, i64* %91, align 8
  %162 = getelementptr inbounds i8, i8* %142, i64 %161
  %163 = bitcast i8* %162 to i32 (...)***
  store i32 (...)** %89, i32 (...)*** %163, align 8, !tbaa !27, !noalias !101
  %164 = getelementptr inbounds %"class.std::basic_ostringstream", %"class.std::basic_ostringstream"* %15, i64 0, i32 1, i32 0, i32 0
  store i32 (...)** bitcast (i8** getelementptr inbounds ({ [16 x i8*] }, { [16 x i8*] }* @_ZTVSt15basic_stringbufIcSt11char_traitsIcESaIcEE, i64 0, inrange i32 0, i64 2) to i32 (...)**), i32 (...)*** %164, align 8, !tbaa !27, !noalias !101
  %165 = getelementptr inbounds %"class.std::basic_ostringstream", %"class.std::basic_ostringstream"* %15, i64 0, i32 1, i32 2, i32 0, i32 0
  %166 = load i8*, i8** %165, align 8, !tbaa !23, !noalias !101
  %167 = getelementptr inbounds i8, i8* %166, i64 -24
  %168 = bitcast i8* %167 to %"struct.std::basic_string<char>::_Rep"*
  %169 = getelementptr inbounds %"class.std::allocator.0", %"class.std::allocator.0"* %14, i64 0, i32 0
  call void @llvm.lifetime.start.p0i8(i64 1, i8* nonnull %169) #24, !noalias !101
  %170 = icmp eq i8* %167, bitcast ([0 x i64]* @_ZNSs4_Rep20_S_empty_rep_storageE to i8*)
  br i1 %170, label %185, label %171, !prof !26

171:                                              ; preds = %159
  %172 = getelementptr inbounds i8, i8* %166, i64 -8
  %173 = bitcast i8* %172 to i32*
  br i1 icmp ne (i8* bitcast (i32 (i32*, void (i8*)*)* @__pthread_key_create to i8*), i8* null), label %174, label %176

174:                                              ; preds = %171
  %175 = atomicrmw volatile add i32* %173, i32 -1 acq_rel, align 4
  br label %179

176:                                              ; preds = %171
  %177 = load i32, i32* %173, align 8, !tbaa !16
  %178 = add nsw i32 %177, -1
  store i32 %178, i32* %173, align 8, !tbaa !16
  br label %179

179:                                              ; preds = %176, %174
  %180 = phi i32 [ %175, %174 ], [ %177, %176 ]
  %181 = icmp slt i32 %180, 1
  br i1 %181, label %182, label %185

182:                                              ; preds = %179
  call void @_ZNSs4_Rep10_M_destroyERKSaIcE(%"struct.std::basic_string<char>::_Rep"* nonnull align 8 dereferenceable(24) %168, %"class.std::allocator.0"* nonnull align 1 dereferenceable(1) %14) #24
  br label %185

183:                                              ; preds = %157, %143
  %184 = landingpad { i8*, i32 }
          cleanup
  call void @_ZNSt19basic_ostringstreamIcSt11char_traitsIcESaIcEED1Ev(%"class.std::basic_ostringstream"* nonnull align 8 dereferenceable(88) %15) #24
  call void @llvm.lifetime.end.p0i8(i64 352, i8* nonnull %142) #24, !noalias !101
  br label %1162

185:                                              ; preds = %182, %179, %159
  call void @llvm.lifetime.end.p0i8(i64 1, i8* nonnull %169) #24, !noalias !101
  store i32 (...)** bitcast (i8** getelementptr inbounds ({ [16 x i8*] }, { [16 x i8*] }* @_ZTVSt15basic_streambufIcSt11char_traitsIcEE, i64 0, inrange i32 0, i64 2) to i32 (...)**), i32 (...)*** %164, align 8, !tbaa !27, !noalias !101
  %186 = getelementptr inbounds %"class.std::basic_ostringstream", %"class.std::basic_ostringstream"* %15, i64 0, i32 1, i32 0, i32 7
  call void @_ZNSt6localeD1Ev(%"class.std::locale"* nonnull align 8 dereferenceable(8) %186) #24
  %187 = getelementptr inbounds %"class.std::basic_ostringstream", %"class.std::basic_ostringstream"* %15, i64 0, i32 2, i32 0
  call void @_ZNSt8ios_baseD2Ev(%"class.std::ios_base"* nonnull align 8 dereferenceable(216) %187) #24
  call void @llvm.lifetime.end.p0i8(i64 352, i8* nonnull %142) #24, !noalias !101
  %188 = getelementptr inbounds [5 x %"class.std::basic_string"], [5 x %"class.std::basic_string"]* %25, i64 0, i64 1
  invoke void @_ZNSs4swapERSs(%"class.std::basic_string"* nonnull align 8 dereferenceable(8) %188, %"class.std::basic_string"* nonnull align 8 dereferenceable(8) %27)
          to label %189 unwind label %1160

189:                                              ; preds = %185
  %190 = getelementptr inbounds %"class.std::basic_string", %"class.std::basic_string"* %27, i64 0, i32 0, i32 0
  %191 = load i8*, i8** %190, align 8, !tbaa !23
  %192 = getelementptr inbounds i8, i8* %191, i64 -24
  %193 = bitcast i8* %192 to %"struct.std::basic_string<char>::_Rep"*
  %194 = getelementptr inbounds %"class.std::allocator.0", %"class.std::allocator.0"* %13, i64 0, i32 0
  call void @llvm.lifetime.start.p0i8(i64 1, i8* nonnull %194) #24
  %195 = icmp eq i8* %192, bitcast ([0 x i64]* @_ZNSs4_Rep20_S_empty_rep_storageE to i8*)
  br i1 %195, label %208, label %196, !prof !26

196:                                              ; preds = %189
  %197 = getelementptr inbounds i8, i8* %191, i64 -8
  %198 = bitcast i8* %197 to i32*
  br i1 icmp ne (i8* bitcast (i32 (i32*, void (i8*)*)* @__pthread_key_create to i8*), i8* null), label %199, label %201

199:                                              ; preds = %196
  %200 = atomicrmw volatile add i32* %198, i32 -1 acq_rel, align 4
  br label %204

201:                                              ; preds = %196
  %202 = load i32, i32* %198, align 8, !tbaa !16
  %203 = add nsw i32 %202, -1
  store i32 %203, i32* %198, align 8, !tbaa !16
  br label %204

204:                                              ; preds = %201, %199
  %205 = phi i32 [ %200, %199 ], [ %202, %201 ]
  %206 = icmp slt i32 %205, 1
  br i1 %206, label %207, label %208

207:                                              ; preds = %204
  call void @_ZNSs4_Rep10_M_destroyERKSaIcE(%"struct.std::basic_string<char>::_Rep"* nonnull align 8 dereferenceable(24) %193, %"class.std::allocator.0"* nonnull align 1 dereferenceable(1) %13) #24
  br label %208

208:                                              ; preds = %189, %204, %207
  call void @llvm.lifetime.end.p0i8(i64 1, i8* nonnull %194) #24
  call void @llvm.lifetime.end.p0i8(i64 8, i8* nonnull %139) #24
  %209 = bitcast %"class.std::basic_string"* %28 to i8*
  call void @llvm.lifetime.start.p0i8(i64 8, i8* nonnull %209) #24
  %210 = getelementptr inbounds %class.Histogram, %class.Histogram* %0, i64 0, i32 9
  %211 = load double, double* %210, align 8, !tbaa !74
  %212 = bitcast %"class.std::basic_ostringstream"* %12 to i8*
  call void @llvm.lifetime.start.p0i8(i64 352, i8* nonnull %212) #24, !noalias !104
  invoke void @_ZNSt19basic_ostringstreamIcSt11char_traitsIcESaIcEEC1ESt13_Ios_Openmode(%"class.std::basic_ostringstream"* nonnull align 8 dereferenceable(88) %12, i32 16)
          to label %213 unwind label %1164

213:                                              ; preds = %208
  %214 = bitcast %"class.std::basic_ostringstream"* %12 to i8**
  %215 = load i8*, i8** %214, align 8, !tbaa !27, !noalias !104
  %216 = getelementptr i8, i8* %215, i64 -24
  %217 = bitcast i8* %216 to i64*
  %218 = load i64, i64* %217, align 8, !noalias !104
  %219 = getelementptr inbounds i8, i8* %212, i64 %218
  %220 = getelementptr inbounds i8, i8* %219, i64 24
  %221 = bitcast i8* %220 to i32*
  %222 = load i32, i32* %221, align 8, !tbaa !94, !noalias !104
  %223 = and i32 %222, -75
  %224 = or i32 %223, 2
  store i32 %224, i32* %221, align 8, !tbaa !100, !noalias !104
  %225 = bitcast %"class.std::basic_ostringstream"* %12 to %"class.std::basic_ostream"*
  %226 = invoke nonnull align 8 dereferenceable(8) %"class.std::basic_ostream"* @_ZNSo9_M_insertIdEERSoT_(%"class.std::basic_ostream"* nonnull align 8 dereferenceable(8) %225, double %211)
          to label %227 unwind label %253, !noalias !104

227:                                              ; preds = %213
  %228 = getelementptr inbounds %"class.std::basic_ostringstream", %"class.std::basic_ostringstream"* %12, i64 0, i32 1
  invoke void @_ZNKSt15basic_stringbufIcSt11char_traitsIcESaIcEE3strEv(%"class.std::basic_string"* nonnull sret(%"class.std::basic_string") align 8 %28, %"class.std::basic_stringbuf"* nonnull align 8 dereferenceable(80) %228)
          to label %229 unwind label %253

229:                                              ; preds = %227
  %230 = getelementptr inbounds %"class.std::basic_ostringstream", %"class.std::basic_ostringstream"* %12, i64 0, i32 0, i32 0
  store i32 (...)** %87, i32 (...)*** %230, align 8, !tbaa !27, !noalias !104
  %231 = load i64, i64* %91, align 8
  %232 = getelementptr inbounds i8, i8* %212, i64 %231
  %233 = bitcast i8* %232 to i32 (...)***
  store i32 (...)** %89, i32 (...)*** %233, align 8, !tbaa !27, !noalias !104
  %234 = getelementptr inbounds %"class.std::basic_ostringstream", %"class.std::basic_ostringstream"* %12, i64 0, i32 1, i32 0, i32 0
  store i32 (...)** bitcast (i8** getelementptr inbounds ({ [16 x i8*] }, { [16 x i8*] }* @_ZTVSt15basic_stringbufIcSt11char_traitsIcESaIcEE, i64 0, inrange i32 0, i64 2) to i32 (...)**), i32 (...)*** %234, align 8, !tbaa !27, !noalias !104
  %235 = getelementptr inbounds %"class.std::basic_ostringstream", %"class.std::basic_ostringstream"* %12, i64 0, i32 1, i32 2, i32 0, i32 0
  %236 = load i8*, i8** %235, align 8, !tbaa !23, !noalias !104
  %237 = getelementptr inbounds i8, i8* %236, i64 -24
  %238 = bitcast i8* %237 to %"struct.std::basic_string<char>::_Rep"*
  %239 = getelementptr inbounds %"class.std::allocator.0", %"class.std::allocator.0"* %11, i64 0, i32 0
  call void @llvm.lifetime.start.p0i8(i64 1, i8* nonnull %239) #24, !noalias !104
  %240 = icmp eq i8* %237, bitcast ([0 x i64]* @_ZNSs4_Rep20_S_empty_rep_storageE to i8*)
  br i1 %240, label %255, label %241, !prof !26

241:                                              ; preds = %229
  %242 = getelementptr inbounds i8, i8* %236, i64 -8
  %243 = bitcast i8* %242 to i32*
  br i1 icmp ne (i8* bitcast (i32 (i32*, void (i8*)*)* @__pthread_key_create to i8*), i8* null), label %244, label %246

244:                                              ; preds = %241
  %245 = atomicrmw volatile add i32* %243, i32 -1 acq_rel, align 4
  br label %249

246:                                              ; preds = %241
  %247 = load i32, i32* %243, align 8, !tbaa !16
  %248 = add nsw i32 %247, -1
  store i32 %248, i32* %243, align 8, !tbaa !16
  br label %249

249:                                              ; preds = %246, %244
  %250 = phi i32 [ %245, %244 ], [ %247, %246 ]
  %251 = icmp slt i32 %250, 1
  br i1 %251, label %252, label %255

252:                                              ; preds = %249
  call void @_ZNSs4_Rep10_M_destroyERKSaIcE(%"struct.std::basic_string<char>::_Rep"* nonnull align 8 dereferenceable(24) %238, %"class.std::allocator.0"* nonnull align 1 dereferenceable(1) %11) #24
  br label %255

253:                                              ; preds = %227, %213
  %254 = landingpad { i8*, i32 }
          cleanup
  call void @_ZNSt19basic_ostringstreamIcSt11char_traitsIcESaIcEED1Ev(%"class.std::basic_ostringstream"* nonnull align 8 dereferenceable(88) %12) #24
  call void @llvm.lifetime.end.p0i8(i64 352, i8* nonnull %212) #24, !noalias !104
  br label %1168

255:                                              ; preds = %252, %249, %229
  call void @llvm.lifetime.end.p0i8(i64 1, i8* nonnull %239) #24, !noalias !104
  store i32 (...)** bitcast (i8** getelementptr inbounds ({ [16 x i8*] }, { [16 x i8*] }* @_ZTVSt15basic_streambufIcSt11char_traitsIcEE, i64 0, inrange i32 0, i64 2) to i32 (...)**), i32 (...)*** %234, align 8, !tbaa !27, !noalias !104
  %256 = getelementptr inbounds %"class.std::basic_ostringstream", %"class.std::basic_ostringstream"* %12, i64 0, i32 1, i32 0, i32 7
  call void @_ZNSt6localeD1Ev(%"class.std::locale"* nonnull align 8 dereferenceable(8) %256) #24
  %257 = getelementptr inbounds %"class.std::basic_ostringstream", %"class.std::basic_ostringstream"* %12, i64 0, i32 2, i32 0
  call void @_ZNSt8ios_baseD2Ev(%"class.std::ios_base"* nonnull align 8 dereferenceable(216) %257) #24
  call void @llvm.lifetime.end.p0i8(i64 352, i8* nonnull %212) #24, !noalias !104
  %258 = getelementptr inbounds [5 x %"class.std::basic_string"], [5 x %"class.std::basic_string"]* %25, i64 0, i64 2
  invoke void @_ZNSs4swapERSs(%"class.std::basic_string"* nonnull align 8 dereferenceable(8) %258, %"class.std::basic_string"* nonnull align 8 dereferenceable(8) %28)
          to label %259 unwind label %1166

259:                                              ; preds = %255
  %260 = getelementptr inbounds %"class.std::basic_string", %"class.std::basic_string"* %28, i64 0, i32 0, i32 0
  %261 = load i8*, i8** %260, align 8, !tbaa !23
  %262 = getelementptr inbounds i8, i8* %261, i64 -24
  %263 = bitcast i8* %262 to %"struct.std::basic_string<char>::_Rep"*
  %264 = getelementptr inbounds %"class.std::allocator.0", %"class.std::allocator.0"* %10, i64 0, i32 0
  call void @llvm.lifetime.start.p0i8(i64 1, i8* nonnull %264) #24
  %265 = icmp eq i8* %262, bitcast ([0 x i64]* @_ZNSs4_Rep20_S_empty_rep_storageE to i8*)
  br i1 %265, label %278, label %266, !prof !26

266:                                              ; preds = %259
  %267 = getelementptr inbounds i8, i8* %261, i64 -8
  %268 = bitcast i8* %267 to i32*
  br i1 icmp ne (i8* bitcast (i32 (i32*, void (i8*)*)* @__pthread_key_create to i8*), i8* null), label %269, label %271

269:                                              ; preds = %266
  %270 = atomicrmw volatile add i32* %268, i32 -1 acq_rel, align 4
  br label %274

271:                                              ; preds = %266
  %272 = load i32, i32* %268, align 8, !tbaa !16
  %273 = add nsw i32 %272, -1
  store i32 %273, i32* %268, align 8, !tbaa !16
  br label %274

274:                                              ; preds = %271, %269
  %275 = phi i32 [ %270, %269 ], [ %272, %271 ]
  %276 = icmp slt i32 %275, 1
  br i1 %276, label %277, label %278

277:                                              ; preds = %274
  call void @_ZNSs4_Rep10_M_destroyERKSaIcE(%"struct.std::basic_string<char>::_Rep"* nonnull align 8 dereferenceable(24) %263, %"class.std::allocator.0"* nonnull align 1 dereferenceable(1) %10) #24
  br label %278

278:                                              ; preds = %259, %274, %277
  call void @llvm.lifetime.end.p0i8(i64 1, i8* nonnull %264) #24
  call void @llvm.lifetime.end.p0i8(i64 8, i8* nonnull %209) #24
  %279 = bitcast %"class.std::basic_string"* %29 to i8*
  call void @llvm.lifetime.start.p0i8(i64 8, i8* nonnull %279) #24
  %280 = bitcast %"class.std::basic_ostringstream"* %9 to i8*
  call void @llvm.lifetime.start.p0i8(i64 352, i8* nonnull %280) #24, !noalias !107
  invoke void @_ZNSt19basic_ostringstreamIcSt11char_traitsIcESaIcEEC1ESt13_Ios_Openmode(%"class.std::basic_ostringstream"* nonnull align 8 dereferenceable(88) %9, i32 16)
          to label %281 unwind label %1170

281:                                              ; preds = %278
  %282 = bitcast %"class.std::basic_ostringstream"* %9 to i8**
  %283 = load i8*, i8** %282, align 8, !tbaa !27, !noalias !107
  %284 = getelementptr i8, i8* %283, i64 -24
  %285 = bitcast i8* %284 to i64*
  %286 = load i64, i64* %285, align 8, !noalias !107
  %287 = getelementptr inbounds i8, i8* %280, i64 %286
  %288 = getelementptr inbounds i8, i8* %287, i64 24
  %289 = bitcast i8* %288 to i32*
  %290 = load i32, i32* %289, align 8, !tbaa !94, !noalias !107
  %291 = and i32 %290, -75
  %292 = or i32 %291, 2
  store i32 %292, i32* %289, align 8, !tbaa !100, !noalias !107
  %293 = bitcast %"class.std::basic_ostringstream"* %9 to %"class.std::basic_ostream"*
  %294 = invoke nonnull align 8 dereferenceable(8) %"class.std::basic_ostream"* @_ZNSo9_M_insertIdEERSoT_(%"class.std::basic_ostream"* nonnull align 8 dereferenceable(8) %293, double %43)
          to label %295 unwind label %321, !noalias !107

295:                                              ; preds = %281
  %296 = getelementptr inbounds %"class.std::basic_ostringstream", %"class.std::basic_ostringstream"* %9, i64 0, i32 1
  invoke void @_ZNKSt15basic_stringbufIcSt11char_traitsIcESaIcEE3strEv(%"class.std::basic_string"* nonnull sret(%"class.std::basic_string") align 8 %29, %"class.std::basic_stringbuf"* nonnull align 8 dereferenceable(80) %296)
          to label %297 unwind label %321

297:                                              ; preds = %295
  %298 = getelementptr inbounds %"class.std::basic_ostringstream", %"class.std::basic_ostringstream"* %9, i64 0, i32 0, i32 0
  store i32 (...)** %87, i32 (...)*** %298, align 8, !tbaa !27, !noalias !107
  %299 = load i64, i64* %91, align 8
  %300 = getelementptr inbounds i8, i8* %280, i64 %299
  %301 = bitcast i8* %300 to i32 (...)***
  store i32 (...)** %89, i32 (...)*** %301, align 8, !tbaa !27, !noalias !107
  %302 = getelementptr inbounds %"class.std::basic_ostringstream", %"class.std::basic_ostringstream"* %9, i64 0, i32 1, i32 0, i32 0
  store i32 (...)** bitcast (i8** getelementptr inbounds ({ [16 x i8*] }, { [16 x i8*] }* @_ZTVSt15basic_stringbufIcSt11char_traitsIcESaIcEE, i64 0, inrange i32 0, i64 2) to i32 (...)**), i32 (...)*** %302, align 8, !tbaa !27, !noalias !107
  %303 = getelementptr inbounds %"class.std::basic_ostringstream", %"class.std::basic_ostringstream"* %9, i64 0, i32 1, i32 2, i32 0, i32 0
  %304 = load i8*, i8** %303, align 8, !tbaa !23, !noalias !107
  %305 = getelementptr inbounds i8, i8* %304, i64 -24
  %306 = bitcast i8* %305 to %"struct.std::basic_string<char>::_Rep"*
  %307 = getelementptr inbounds %"class.std::allocator.0", %"class.std::allocator.0"* %8, i64 0, i32 0
  call void @llvm.lifetime.start.p0i8(i64 1, i8* nonnull %307) #24, !noalias !107
  %308 = icmp eq i8* %305, bitcast ([0 x i64]* @_ZNSs4_Rep20_S_empty_rep_storageE to i8*)
  br i1 %308, label %323, label %309, !prof !26

309:                                              ; preds = %297
  %310 = getelementptr inbounds i8, i8* %304, i64 -8
  %311 = bitcast i8* %310 to i32*
  br i1 icmp ne (i8* bitcast (i32 (i32*, void (i8*)*)* @__pthread_key_create to i8*), i8* null), label %312, label %314

312:                                              ; preds = %309
  %313 = atomicrmw volatile add i32* %311, i32 -1 acq_rel, align 4
  br label %317

314:                                              ; preds = %309
  %315 = load i32, i32* %311, align 8, !tbaa !16
  %316 = add nsw i32 %315, -1
  store i32 %316, i32* %311, align 8, !tbaa !16
  br label %317

317:                                              ; preds = %314, %312
  %318 = phi i32 [ %313, %312 ], [ %315, %314 ]
  %319 = icmp slt i32 %318, 1
  br i1 %319, label %320, label %323

320:                                              ; preds = %317
  call void @_ZNSs4_Rep10_M_destroyERKSaIcE(%"struct.std::basic_string<char>::_Rep"* nonnull align 8 dereferenceable(24) %306, %"class.std::allocator.0"* nonnull align 1 dereferenceable(1) %8) #24
  br label %323

321:                                              ; preds = %295, %281
  %322 = landingpad { i8*, i32 }
          cleanup
  call void @_ZNSt19basic_ostringstreamIcSt11char_traitsIcESaIcEED1Ev(%"class.std::basic_ostringstream"* nonnull align 8 dereferenceable(88) %9) #24
  call void @llvm.lifetime.end.p0i8(i64 352, i8* nonnull %280) #24, !noalias !107
  br label %1174

323:                                              ; preds = %320, %317, %297
  call void @llvm.lifetime.end.p0i8(i64 1, i8* nonnull %307) #24, !noalias !107
  store i32 (...)** bitcast (i8** getelementptr inbounds ({ [16 x i8*] }, { [16 x i8*] }* @_ZTVSt15basic_streambufIcSt11char_traitsIcEE, i64 0, inrange i32 0, i64 2) to i32 (...)**), i32 (...)*** %302, align 8, !tbaa !27, !noalias !107
  %324 = getelementptr inbounds %"class.std::basic_ostringstream", %"class.std::basic_ostringstream"* %9, i64 0, i32 1, i32 0, i32 7
  call void @_ZNSt6localeD1Ev(%"class.std::locale"* nonnull align 8 dereferenceable(8) %324) #24
  %325 = getelementptr inbounds %"class.std::basic_ostringstream", %"class.std::basic_ostringstream"* %9, i64 0, i32 2, i32 0
  call void @_ZNSt8ios_baseD2Ev(%"class.std::ios_base"* nonnull align 8 dereferenceable(216) %325) #24
  call void @llvm.lifetime.end.p0i8(i64 352, i8* nonnull %280) #24, !noalias !107
  %326 = getelementptr inbounds [5 x %"class.std::basic_string"], [5 x %"class.std::basic_string"]* %25, i64 0, i64 3
  invoke void @_ZNSs4swapERSs(%"class.std::basic_string"* nonnull align 8 dereferenceable(8) %326, %"class.std::basic_string"* nonnull align 8 dereferenceable(8) %29)
          to label %327 unwind label %1172

327:                                              ; preds = %323
  %328 = getelementptr inbounds %"class.std::basic_string", %"class.std::basic_string"* %29, i64 0, i32 0, i32 0
  %329 = load i8*, i8** %328, align 8, !tbaa !23
  %330 = getelementptr inbounds i8, i8* %329, i64 -24
  %331 = bitcast i8* %330 to %"struct.std::basic_string<char>::_Rep"*
  %332 = getelementptr inbounds %"class.std::allocator.0", %"class.std::allocator.0"* %7, i64 0, i32 0
  call void @llvm.lifetime.start.p0i8(i64 1, i8* nonnull %332) #24
  %333 = icmp eq i8* %330, bitcast ([0 x i64]* @_ZNSs4_Rep20_S_empty_rep_storageE to i8*)
  br i1 %333, label %346, label %334, !prof !26

334:                                              ; preds = %327
  %335 = getelementptr inbounds i8, i8* %329, i64 -8
  %336 = bitcast i8* %335 to i32*
  br i1 icmp ne (i8* bitcast (i32 (i32*, void (i8*)*)* @__pthread_key_create to i8*), i8* null), label %337, label %339

337:                                              ; preds = %334
  %338 = atomicrmw volatile add i32* %336, i32 -1 acq_rel, align 4
  br label %342

339:                                              ; preds = %334
  %340 = load i32, i32* %336, align 8, !tbaa !16
  %341 = add nsw i32 %340, -1
  store i32 %341, i32* %336, align 8, !tbaa !16
  br label %342

342:                                              ; preds = %339, %337
  %343 = phi i32 [ %338, %337 ], [ %340, %339 ]
  %344 = icmp slt i32 %343, 1
  br i1 %344, label %345, label %346

345:                                              ; preds = %342
  call void @_ZNSs4_Rep10_M_destroyERKSaIcE(%"struct.std::basic_string<char>::_Rep"* nonnull align 8 dereferenceable(24) %331, %"class.std::allocator.0"* nonnull align 1 dereferenceable(1) %7) #24
  br label %346

346:                                              ; preds = %327, %342, %345
  call void @llvm.lifetime.end.p0i8(i64 1, i8* nonnull %332) #24
  call void @llvm.lifetime.end.p0i8(i64 8, i8* nonnull %279) #24
  %347 = bitcast %"class.std::basic_string"* %30 to i8*
  call void @llvm.lifetime.start.p0i8(i64 8, i8* nonnull %347) #24
  %348 = load i32, i32* %67, align 8, !tbaa !17
  %349 = load i32, i32* %140, align 4, !tbaa !7
  %350 = bitcast %"class.std::basic_ostringstream"* %6 to i8*
  call void @llvm.lifetime.start.p0i8(i64 352, i8* nonnull %350) #24, !noalias !110
  invoke void @_ZNSt19basic_ostringstreamIcSt11char_traitsIcESaIcEEC1ESt13_Ios_Openmode(%"class.std::basic_ostringstream"* nonnull align 8 dereferenceable(88) %6, i32 16)
          to label %351 unwind label %1176

351:                                              ; preds = %346
  %352 = mul nsw i32 %349, %348
  %353 = sitofp i32 %352 to double
  %354 = fdiv contract double %353, %43
  %355 = bitcast %"class.std::basic_ostringstream"* %6 to i8**
  %356 = load i8*, i8** %355, align 8, !tbaa !27, !noalias !110
  %357 = getelementptr i8, i8* %356, i64 -24
  %358 = bitcast i8* %357 to i64*
  %359 = load i64, i64* %358, align 8, !noalias !110
  %360 = getelementptr inbounds i8, i8* %350, i64 %359
  %361 = getelementptr inbounds i8, i8* %360, i64 24
  %362 = bitcast i8* %361 to i32*
  %363 = load i32, i32* %362, align 8, !tbaa !94, !noalias !110
  %364 = and i32 %363, -75
  %365 = or i32 %364, 2
  store i32 %365, i32* %362, align 8, !tbaa !100, !noalias !110
  %366 = bitcast %"class.std::basic_ostringstream"* %6 to %"class.std::basic_ostream"*
  %367 = invoke nonnull align 8 dereferenceable(8) %"class.std::basic_ostream"* @_ZNSo9_M_insertIdEERSoT_(%"class.std::basic_ostream"* nonnull align 8 dereferenceable(8) %366, double %354)
          to label %368 unwind label %394, !noalias !110

368:                                              ; preds = %351
  %369 = getelementptr inbounds %"class.std::basic_ostringstream", %"class.std::basic_ostringstream"* %6, i64 0, i32 1
  invoke void @_ZNKSt15basic_stringbufIcSt11char_traitsIcESaIcEE3strEv(%"class.std::basic_string"* nonnull sret(%"class.std::basic_string") align 8 %30, %"class.std::basic_stringbuf"* nonnull align 8 dereferenceable(80) %369)
          to label %370 unwind label %394

370:                                              ; preds = %368
  %371 = getelementptr inbounds %"class.std::basic_ostringstream", %"class.std::basic_ostringstream"* %6, i64 0, i32 0, i32 0
  store i32 (...)** %87, i32 (...)*** %371, align 8, !tbaa !27, !noalias !110
  %372 = load i64, i64* %91, align 8
  %373 = getelementptr inbounds i8, i8* %350, i64 %372
  %374 = bitcast i8* %373 to i32 (...)***
  store i32 (...)** %89, i32 (...)*** %374, align 8, !tbaa !27, !noalias !110
  %375 = getelementptr inbounds %"class.std::basic_ostringstream", %"class.std::basic_ostringstream"* %6, i64 0, i32 1, i32 0, i32 0
  store i32 (...)** bitcast (i8** getelementptr inbounds ({ [16 x i8*] }, { [16 x i8*] }* @_ZTVSt15basic_stringbufIcSt11char_traitsIcESaIcEE, i64 0, inrange i32 0, i64 2) to i32 (...)**), i32 (...)*** %375, align 8, !tbaa !27, !noalias !110
  %376 = getelementptr inbounds %"class.std::basic_ostringstream", %"class.std::basic_ostringstream"* %6, i64 0, i32 1, i32 2, i32 0, i32 0
  %377 = load i8*, i8** %376, align 8, !tbaa !23, !noalias !110
  %378 = getelementptr inbounds i8, i8* %377, i64 -24
  %379 = bitcast i8* %378 to %"struct.std::basic_string<char>::_Rep"*
  %380 = getelementptr inbounds %"class.std::allocator.0", %"class.std::allocator.0"* %5, i64 0, i32 0
  call void @llvm.lifetime.start.p0i8(i64 1, i8* nonnull %380) #24, !noalias !110
  %381 = icmp eq i8* %378, bitcast ([0 x i64]* @_ZNSs4_Rep20_S_empty_rep_storageE to i8*)
  br i1 %381, label %396, label %382, !prof !26

382:                                              ; preds = %370
  %383 = getelementptr inbounds i8, i8* %377, i64 -8
  %384 = bitcast i8* %383 to i32*
  br i1 icmp ne (i8* bitcast (i32 (i32*, void (i8*)*)* @__pthread_key_create to i8*), i8* null), label %385, label %387

385:                                              ; preds = %382
  %386 = atomicrmw volatile add i32* %384, i32 -1 acq_rel, align 4
  br label %390

387:                                              ; preds = %382
  %388 = load i32, i32* %384, align 8, !tbaa !16
  %389 = add nsw i32 %388, -1
  store i32 %389, i32* %384, align 8, !tbaa !16
  br label %390

390:                                              ; preds = %387, %385
  %391 = phi i32 [ %386, %385 ], [ %388, %387 ]
  %392 = icmp slt i32 %391, 1
  br i1 %392, label %393, label %396

393:                                              ; preds = %390
  call void @_ZNSs4_Rep10_M_destroyERKSaIcE(%"struct.std::basic_string<char>::_Rep"* nonnull align 8 dereferenceable(24) %379, %"class.std::allocator.0"* nonnull align 1 dereferenceable(1) %5) #24
  br label %396

394:                                              ; preds = %368, %351
  %395 = landingpad { i8*, i32 }
          cleanup
  call void @_ZNSt19basic_ostringstreamIcSt11char_traitsIcESaIcEED1Ev(%"class.std::basic_ostringstream"* nonnull align 8 dereferenceable(88) %6) #24
  call void @llvm.lifetime.end.p0i8(i64 352, i8* nonnull %350) #24, !noalias !110
  br label %1180

396:                                              ; preds = %393, %390, %370
  call void @llvm.lifetime.end.p0i8(i64 1, i8* nonnull %380) #24, !noalias !110
  store i32 (...)** bitcast (i8** getelementptr inbounds ({ [16 x i8*] }, { [16 x i8*] }* @_ZTVSt15basic_streambufIcSt11char_traitsIcEE, i64 0, inrange i32 0, i64 2) to i32 (...)**), i32 (...)*** %375, align 8, !tbaa !27, !noalias !110
  %397 = getelementptr inbounds %"class.std::basic_ostringstream", %"class.std::basic_ostringstream"* %6, i64 0, i32 1, i32 0, i32 7
  call void @_ZNSt6localeD1Ev(%"class.std::locale"* nonnull align 8 dereferenceable(8) %397) #24
  %398 = getelementptr inbounds %"class.std::basic_ostringstream", %"class.std::basic_ostringstream"* %6, i64 0, i32 2, i32 0
  call void @_ZNSt8ios_baseD2Ev(%"class.std::ios_base"* nonnull align 8 dereferenceable(216) %398) #24
  call void @llvm.lifetime.end.p0i8(i64 352, i8* nonnull %350) #24, !noalias !110
  %399 = getelementptr inbounds [5 x %"class.std::basic_string"], [5 x %"class.std::basic_string"]* %25, i64 0, i64 4
  invoke void @_ZNSs4swapERSs(%"class.std::basic_string"* nonnull align 8 dereferenceable(8) %399, %"class.std::basic_string"* nonnull align 8 dereferenceable(8) %30)
          to label %400 unwind label %1178

400:                                              ; preds = %396
  %401 = getelementptr inbounds %"class.std::basic_string", %"class.std::basic_string"* %30, i64 0, i32 0, i32 0
  %402 = load i8*, i8** %401, align 8, !tbaa !23
  %403 = getelementptr inbounds i8, i8* %402, i64 -24
  %404 = bitcast i8* %403 to %"struct.std::basic_string<char>::_Rep"*
  %405 = getelementptr inbounds %"class.std::allocator.0", %"class.std::allocator.0"* %4, i64 0, i32 0
  call void @llvm.lifetime.start.p0i8(i64 1, i8* nonnull %405) #24
  %406 = icmp eq i8* %403, bitcast ([0 x i64]* @_ZNSs4_Rep20_S_empty_rep_storageE to i8*)
  br i1 %406, label %419, label %407, !prof !26

407:                                              ; preds = %400
  %408 = getelementptr inbounds i8, i8* %402, i64 -8
  %409 = bitcast i8* %408 to i32*
  br i1 icmp ne (i8* bitcast (i32 (i32*, void (i8*)*)* @__pthread_key_create to i8*), i8* null), label %410, label %412

410:                                              ; preds = %407
  %411 = atomicrmw volatile add i32* %409, i32 -1 acq_rel, align 4
  br label %415

412:                                              ; preds = %407
  %413 = load i32, i32* %409, align 8, !tbaa !16
  %414 = add nsw i32 %413, -1
  store i32 %414, i32* %409, align 8, !tbaa !16
  br label %415

415:                                              ; preds = %412, %410
  %416 = phi i32 [ %411, %410 ], [ %413, %412 ]
  %417 = icmp slt i32 %416, 1
  br i1 %417, label %418, label %419

418:                                              ; preds = %415
  call void @_ZNSs4_Rep10_M_destroyERKSaIcE(%"struct.std::basic_string<char>::_Rep"* nonnull align 8 dereferenceable(24) %404, %"class.std::allocator.0"* nonnull align 1 dereferenceable(1) %4) #24
  br label %419

419:                                              ; preds = %400, %415, %418
  call void @llvm.lifetime.end.p0i8(i64 1, i8* nonnull %405) #24
  call void @llvm.lifetime.end.p0i8(i64 8, i8* nonnull %347) #24
  %420 = invoke noalias nonnull dereferenceable(20) i8* @_Znam(i64 20) #26
          to label %421 unwind label %1192

421:                                              ; preds = %419
  %422 = bitcast i8* %420 to i32*
  %423 = load i8*, i8** bitcast (%"class.std::basic_ostream"* @_ZSt4cout to i8**), align 8, !tbaa !27
  %424 = getelementptr i8, i8* %423, i64 -24
  %425 = bitcast i8* %424 to i64*
  %426 = load i64, i64* %425, align 8
  %427 = getelementptr inbounds i8, i8* bitcast (%"class.std::basic_ostream"* @_ZSt4cout to i8*), i64 %426
  %428 = getelementptr inbounds i8, i8* %427, i64 240
  %429 = bitcast i8* %428 to %"class.std::ctype"**
  %430 = load %"class.std::ctype"*, %"class.std::ctype"** %429, align 8, !tbaa !29
  %431 = icmp eq %"class.std::ctype"* %430, null
  br i1 %431, label %432, label %434

432:                                              ; preds = %421
  invoke void @_ZSt16__throw_bad_castv() #25
          to label %433 unwind label %1192

433:                                              ; preds = %432
  unreachable

434:                                              ; preds = %421
  %435 = getelementptr inbounds %"class.std::ctype", %"class.std::ctype"* %430, i64 0, i32 8
  %436 = load i8, i8* %435, align 8, !tbaa !31
  %437 = icmp eq i8 %436, 0
  br i1 %437, label %441, label %438

438:                                              ; preds = %434
  %439 = getelementptr inbounds %"class.std::ctype", %"class.std::ctype"* %430, i64 0, i32 9, i64 10
  %440 = load i8, i8* %439, align 1, !tbaa !33
  br label %448

441:                                              ; preds = %434
  invoke void @_ZNKSt5ctypeIcE13_M_widen_initEv(%"class.std::ctype"* nonnull align 8 dereferenceable(570) %430)
          to label %442 unwind label %1192

442:                                              ; preds = %441
  %443 = bitcast %"class.std::ctype"* %430 to i8 (%"class.std::ctype"*, i8)***
  %444 = load i8 (%"class.std::ctype"*, i8)**, i8 (%"class.std::ctype"*, i8)*** %443, align 8, !tbaa !27
  %445 = getelementptr inbounds i8 (%"class.std::ctype"*, i8)*, i8 (%"class.std::ctype"*, i8)** %444, i64 6
  %446 = load i8 (%"class.std::ctype"*, i8)*, i8 (%"class.std::ctype"*, i8)** %445, align 8
  %447 = invoke signext i8 %446(%"class.std::ctype"* nonnull align 8 dereferenceable(570) %430, i8 signext 10)
          to label %448 unwind label %1192

448:                                              ; preds = %442, %438
  %449 = phi i8 [ %440, %438 ], [ %447, %442 ]
  %450 = invoke nonnull align 8 dereferenceable(8) %"class.std::basic_ostream"* @_ZNSo3putEc(%"class.std::basic_ostream"* nonnull align 8 dereferenceable(8) @_ZSt4cout, i8 signext %449)
          to label %451 unwind label %1192

451:                                              ; preds = %448
  %452 = invoke nonnull align 8 dereferenceable(8) %"class.std::basic_ostream"* @_ZNSo5flushEv(%"class.std::basic_ostream"* nonnull align 8 dereferenceable(8) %450)
          to label %453 unwind label %1192

453:                                              ; preds = %451
  %454 = invoke nonnull align 8 dereferenceable(8) %"class.std::basic_ostream"* @_ZSt16__ostream_insertIcSt11char_traitsIcEERSt13basic_ostreamIT_T0_ES6_PKS3_l(%"class.std::basic_ostream"* nonnull align 8 dereferenceable(8) %452, i8* nonnull getelementptr inbounds ([2 x i8], [2 x i8]* @.str.66, i64 0, i64 0), i64 1)
          to label %455 unwind label %1192

455:                                              ; preds = %453
  %456 = getelementptr inbounds [5 x %"class.std::basic_string"], [5 x %"class.std::basic_string"]* %19, i64 0, i64 0, i32 0, i32 0
  %457 = load i8*, i8** %456, align 16, !tbaa !23
  %458 = getelementptr inbounds i8, i8* %457, i64 -24
  %459 = bitcast i8* %458 to i64*
  %460 = load i64, i64* %459, align 8, !tbaa !44
  %461 = getelementptr inbounds [5 x %"class.std::basic_string"], [5 x %"class.std::basic_string"]* %25, i64 0, i64 0, i32 0, i32 0
  %462 = load i8*, i8** %461, align 16, !tbaa !23
  %463 = getelementptr inbounds i8, i8* %462, i64 -24
  %464 = bitcast i8* %463 to i64*
  %465 = load i64, i64* %464, align 8, !tbaa !44
  %466 = icmp ugt i64 %460, %465
  %467 = select i1 %466, i64 %460, i64 %465
  %468 = trunc i64 %467 to i32
  store i32 %468, i32* %422, align 4, !tbaa !16
  %469 = invoke nonnull align 8 dereferenceable(8) %"class.std::basic_ostream"* @_ZSt16__ostream_insertIcSt11char_traitsIcEERSt13basic_ostreamIT_T0_ES6_PKS3_l(%"class.std::basic_ostream"* nonnull align 8 dereferenceable(8) @_ZSt4cout, i8* nonnull getelementptr inbounds ([2 x i8], [2 x i8]* @.str.67, i64 0, i64 0), i64 1)
          to label %470 unwind label %1192

470:                                              ; preds = %455
  %471 = load i8*, i8** bitcast (%"class.std::basic_ostream"* @_ZSt4cout to i8**), align 8, !tbaa !27
  %472 = getelementptr i8, i8* %471, i64 -24
  %473 = bitcast i8* %472 to i64*
  %474 = load i64, i64* %473, align 8
  %475 = getelementptr inbounds i8, i8* bitcast (%"class.std::basic_ostream"* @_ZSt4cout to i8*), i64 %474
  %476 = shl i64 %467, 32
  %477 = add i64 %476, 4294967296
  %478 = ashr exact i64 %477, 32
  %479 = getelementptr inbounds i8, i8* %475, i64 16
  %480 = bitcast i8* %479 to i64*
  store i64 %478, i64* %480, align 8, !tbaa !113
  %481 = load i64, i64* %473, align 8
  %482 = getelementptr inbounds i8, i8* bitcast (%"class.std::basic_ostream"* @_ZSt4cout to i8*), i64 %481
  %483 = getelementptr inbounds i8, i8* %482, i64 24
  %484 = bitcast i8* %483 to i32*
  %485 = load i32, i32* %484, align 8, !tbaa !94
  %486 = and i32 %485, -177
  %487 = or i32 %486, 32
  store i32 %487, i32* %484, align 8, !tbaa !100
  %488 = load i8*, i8** %456, align 16, !tbaa !23
  %489 = getelementptr inbounds i8, i8* %488, i64 -24
  %490 = bitcast i8* %489 to i64*
  %491 = load i64, i64* %490, align 8, !tbaa !44
  %492 = invoke nonnull align 8 dereferenceable(8) %"class.std::basic_ostream"* @_ZSt16__ostream_insertIcSt11char_traitsIcEERSt13basic_ostreamIT_T0_ES6_PKS3_l(%"class.std::basic_ostream"* nonnull align 8 dereferenceable(8) @_ZSt4cout, i8* nonnull %488, i64 %491)
          to label %493 unwind label %1192

493:                                              ; preds = %470
  %494 = invoke nonnull align 8 dereferenceable(8) %"class.std::basic_ostream"* @_ZSt16__ostream_insertIcSt11char_traitsIcEERSt13basic_ostreamIT_T0_ES6_PKS3_l(%"class.std::basic_ostream"* nonnull align 8 dereferenceable(8) %492, i8* nonnull getelementptr inbounds ([2 x i8], [2 x i8]* @.str.66, i64 0, i64 0), i64 1)
          to label %495 unwind label %1192

495:                                              ; preds = %493
  %496 = getelementptr inbounds [5 x %"class.std::basic_string"], [5 x %"class.std::basic_string"]* %19, i64 0, i64 1, i32 0, i32 0
  %497 = load i8*, i8** %496, align 8, !tbaa !23
  %498 = getelementptr inbounds i8, i8* %497, i64 -24
  %499 = bitcast i8* %498 to i64*
  %500 = load i64, i64* %499, align 8, !tbaa !44
  %501 = getelementptr inbounds [5 x %"class.std::basic_string"], [5 x %"class.std::basic_string"]* %25, i64 0, i64 1, i32 0, i32 0
  %502 = load i8*, i8** %501, align 8, !tbaa !23
  %503 = getelementptr inbounds i8, i8* %502, i64 -24
  %504 = bitcast i8* %503 to i64*
  %505 = load i64, i64* %504, align 8, !tbaa !44
